

Microchip MPLAB XC8 Assembler V2.05 build -831301201 
                                                                                               Tue Apr 27 06:27:41 2021

Microchip MPLAB XC8 C Compiler v2.05 (Free license) build 20181220022703 Og1 
     1                           	processor	18F45K50
     2                           	fnconf	rparam,??,?,0
     3                           	opt	pw 120
     4                           	opt	flic
     5                           	psect	idataBIGRAMl,global,class=CODE,delta=1,noexec
     6                           	psect	smallconst,global,reloc=2,class=SMALLCONST,delta=1,noexec
     7                           	psect	cinit,global,reloc=2,class=CODE,delta=1
     8                           	psect	bssCOMRAM,global,class=COMRAM,space=1,delta=1,noexec
     9                           	psect	bssBANK0,global,class=BANK0,space=1,delta=1,lowdata,noexec
    10                           	psect	bssBANK1,global,class=BANK1,space=1,delta=1,lowdata,noexec
    11                           	psect	dataBIGRAMl,global,class=BIGRAM,space=1,delta=1,lowdata,noexec
    12                           	psect	cstackBANK0,global,class=BANK0,space=1,delta=1,noexec
    13                           	psect	cstackCOMRAM,global,class=COMRAM,space=1,delta=1,noexec
    14                           	psect	text0,global,reloc=2,class=CODE,delta=1
    15                           	psect	text1,global,reloc=2,class=CODE,delta=1
    16                           	psect	text2,global,reloc=2,class=CODE,delta=1
    17                           	psect	text3,global,reloc=2,class=CODE,delta=1
    18                           	psect	text4,global,reloc=2,class=CODE,delta=1
    19                           	psect	text5,global,reloc=2,class=CODE,delta=1
    20                           	psect	text6,global,reloc=2,class=CODE,delta=1
    21                           	psect	text7,global,reloc=2,class=CODE,delta=1,group=2
    22                           	psect	text8,global,reloc=2,class=CODE,delta=1
    23                           	psect	text9,global,reloc=2,class=CODE,delta=1
    24                           	psect	text10,global,reloc=2,class=CODE,delta=1
    25                           	psect	text11,global,reloc=2,class=CODE,delta=1
    26                           	psect	text12,global,reloc=2,class=CODE,delta=1
    27                           	psect	text13,global,reloc=2,class=CODE,delta=1
    28                           	psect	text14,global,reloc=2,class=CODE,delta=1
    29                           	psect	text15,global,reloc=2,class=CODE,delta=1
    30                           	psect	intcode,global,reloc=2,class=CODE,delta=1
    31                           	psect	text17,global,reloc=2,class=CODE,delta=1
    32                           	psect	text18,global,reloc=2,class=CODE,delta=1
    33                           	psect	text19,global,reloc=2,class=CODE,delta=1
    34                           	psect	text20,global,reloc=2,class=CODE,delta=1
    35                           	psect	text21,global,reloc=2,class=CODE,delta=1
    36                           	psect	text22,global,reloc=2,class=CODE,delta=1
    37                           	psect	text23,global,reloc=2,class=CODE,delta=1
    38                           	psect	text24,global,reloc=2,class=CODE,delta=1,group=2
    39                           	psect	text25,global,reloc=2,class=CODE,delta=1
    40                           	psect	text26,global,reloc=2,class=CODE,delta=1
    41                           	psect	text27,global,reloc=2,class=CODE,delta=1
    42                           	psect	text28,global,reloc=2,class=CODE,delta=1
    43                           	psect	text29,global,reloc=2,class=CODE,delta=1
    44                           	psect	text30,global,reloc=2,class=CODE,delta=1
    45                           	psect	text31,global,reloc=2,class=CODE,delta=1
    46                           	psect	text32,global,reloc=2,class=CODE,delta=1
    47                           	psect	text33,global,reloc=2,class=CODE,delta=1
    48                           	psect	text34,global,reloc=2,class=CODE,delta=1
    49                           	psect	text35,global,reloc=2,class=CODE,delta=1
    50                           	psect	text36,global,reloc=2,class=CODE,delta=1
    51                           	psect	text37,global,reloc=2,class=CODE,delta=1
    52                           	psect	text38,global,reloc=2,class=CODE,delta=1
    53                           	psect	text39,global,reloc=2,class=CODE,delta=1
    54                           	psect	text40,global,reloc=2,class=CODE,delta=1
    55                           	psect	text41,global,reloc=2,class=CODE,delta=1
    56                           	psect	text42,global,reloc=2,class=CODE,delta=1
    57                           	psect	text43,global,reloc=2,class=CODE,delta=1
    58                           	psect	text44,global,reloc=2,class=CODE,delta=1
    59                           	psect	text45,global,reloc=2,class=CODE,delta=1
    60                           	psect	text46,global,reloc=2,class=CODE,delta=1
    61                           	psect	text47,global,reloc=2,class=CODE,delta=1
    62                           	psect	text48,global,reloc=2,class=CODE,delta=1
    63                           	psect	text49,global,reloc=2,class=CODE,delta=1
    64                           	psect	text50,global,reloc=2,class=CODE,delta=1
    65                           	psect	text51,global,reloc=2,class=CODE,delta=1
    66                           	psect	text52,global,reloc=2,class=CODE,delta=1
    67                           	psect	text53,global,reloc=2,class=CODE,delta=1
    68                           	psect	text54,global,reloc=2,class=CODE,delta=1
    69                           	psect	intsave_regs,global,class=BIGRAM,space=1,delta=1,noexec
    70                           	psect	text55,global,reloc=2,class=CODE,delta=1
    71                           	psect	rparam,global,class=COMRAM,space=1,delta=1,noexec
    72                           	psect	temp,global,ovrld,common,class=COMRAM,space=1,delta=1
    73                           	dabs	1,0x400,48,_BDT
    74                           	dabs	1,0x500,8,_inputReport
    75                           	dabs	1,0x438,8,_CtrlTrfData
    76                           	dabs	1,0x430,8,_SetupPkt
    77                           	dabs	1,0x510,8,_e2Report
    78                           	dabs	1,0x508,1,_outputReport
    79                           	dabs	1,0x518,8,_e2outReport
    80  0000                     
    81                           ; Version 2.05
    82                           ; Generated 20/12/2018 GMT
    83                           ; 
    84                           ; Copyright © 2018, Microchip Technology Inc. and its subsidiaries ("Microchip")
    85                           ; All rights reserved.
    86                           ; 
    87                           ; This software is developed by Microchip Technology Inc. and its subsidiaries ("Microch
      +                          ip").
    88                           ; 
    89                           ; Redistribution and use in source and binary forms, with or without modification, are
    90                           ; permitted provided that the following conditions are met:
    91                           ; 
    92                           ;     1. Redistributions of source code must retain the above copyright notice, this lis
      +                          t of
    93                           ;        conditions and the following disclaimer.
    94                           ; 
    95                           ;     2. Redistributions in binary form must reproduce the above copyright notice, this 
      +                          list
    96                           ;        of conditions and the following disclaimer in the documentation and/or other
    97                           ;        materials provided with the distribution.
    98                           ; 
    99                           ;     3. Microchip's name may not be used to endorse or promote products derived from th
      +                          is
   100                           ;        software without specific prior written permission.
   101                           ; 
   102                           ; THIS SOFTWARE IS PROVIDED BY MICROCHIP "AS IS" AND ANY EXPRESS OR IMPLIED WARRANTIES,
   103                           ; INCLUDING, BUT NOT LIMITED TO, THE IMPLIED WARRANTIES OF MERCHANTABILITY AND FITNESS F
      +                          OR
   104                           ; PURPOSE ARE DISCLAIMED.  IN NO EVENT SHALL MICROCHIP BE LIABLE FOR ANY DIRECT, INDIREC
      +                          T,
   105                           ; INCIDENTAL, SPECIAL, EXEMPLARY, OR CONSEQUENTIAL DAMAGES (INCLUDING BUT NOT LIMITED TO
   106                           ; PROCUREMENT OF SUBSTITUTE GOODS OR SERVICES; LOSS OF USE, DATA OR PROFITS; OR BUSINESS
   107                           ; INTERRUPTION) HOWSOEVER CAUSED AND ON ANY THEORY OF LIABILITY, WHETHER IN CONTRACT, ST
      +                          RICT
   108                           ; LIABILITY, OR TORT (INCLUDING NEGLIGENCE OR OTHERWISE) ARISING IN ANY WAY OUT OF THE U
      +                          SE OF
   109                           ; THIS SOFTWARE, EVEN IF ADVISED OF THE POSSIBILITY OF SUCH DAMAGE.
   110                           ; 
   111                           ; 
   112                           ; Code-generator required, PIC18F45K50 Definitions
   113                           ; 
   114                           ; SFR Addresses
   115  0000                     
   116                           	psect	idataBIGRAMl
   117  000F1A                     __pidataBIGRAMl:
   118                           	opt callstack 0
   119                           
   120                           ;initializer for _CodeChart
   121  000F1A  3E                 	db	62
   122  000F1B  00                 	db	0
   123  000F1C  01                 	db	1
   124  000F1D  3F                 	db	63
   125  000F1E  00                 	db	0
   126  000F1F  01                 	db	1
   127  000F20  40                 	db	64
   128  000F21  00                 	db	0
   129  000F22  01                 	db	1
   130  000F23  41                 	db	65
   131  000F24  00                 	db	0
   132  000F25  01                 	db	1
   133  000F26  42                 	db	66
   134  000F27  00                 	db	0
   135  000F28  01                 	db	1
   136  000F29  43                 	db	67
   137  000F2A  00                 	db	0
   138  000F2B  01                 	db	1
   139  000F2C  44                 	db	68
   140  000F2D  00                 	db	0
   141  000F2E  01                 	db	1
   142  000F2F  45                 	db	69
   143  000F30  00                 	db	0
   144  000F31  01                 	db	1
   145  000F32  21                 	db	33
   146  000F33  00                 	db	0
   147  000F34  01                 	db	1
   148  000F35  1E                 	db	30
   149  000F36  00                 	db	0
   150  000F37  01                 	db	1
   151  000F38  1F                 	db	31
   152  000F39  00                 	db	0
   153  000F3A  01                 	db	1
   154  000F3B  20                 	db	32
   155  000F3C  00                 	db	0
   156  000F3D  01                 	db	1
   157  000F3E  22                 	db	34
   158  000F3F  00                 	db	0
   159  000F40  01                 	db	1
   160  000F41  23                 	db	35
   161  000F42  00                 	db	0
   162  000F43  01                 	db	1
   163  000F44  24                 	db	36
   164  000F45  00                 	db	0
   165  000F46  01                 	db	1
   166  000F47  25                 	db	37
   167  000F48  00                 	db	0
   168  000F49  01                 	db	1
   169  000F4A  18                 	db	24
   170  000F4B  40                 	db	64
   171  000F4C  01                 	db	1
   172  000F4D  15                 	db	21
   173  000F4E  40                 	db	64
   174  000F4F  01                 	db	1
   175  000F50  17                 	db	23
   176  000F51  40                 	db	64
   177  000F52  01                 	db	1
   178  000F53  1C                 	db	28
   179  000F54  40                 	db	64
   180  000F55  01                 	db	1
   181  000F56  0C                 	db	12
   182  000F57  40                 	db	64
   183  000F58  01                 	db	1
   184  000F59  14                 	db	20
   185  000F5A  40                 	db	64
   186  000F5B  01                 	db	1
   187  000F5C  1A                 	db	26
   188  000F5D  40                 	db	64
   189  000F5E  01                 	db	1
   190  000F5F  08                 	db	8
   191  000F60  40                 	db	64
   192  000F61  01                 	db	1
   193  000F62  35                 	db	53
   194  000F63  00                 	db	0
   195  000F64  01                 	db	1
   196  000F65  39                 	db	57
   197  000F66  00                 	db	0
   198  000F67  01                 	db	1
   199  000F68  2B                 	db	43
   200  000F69  00                 	db	0
   201  000F6A  01                 	db	1
   202  000F6B  29                 	db	41
   203  000F6C  00                 	db	0
   204  000F6D  01                 	db	1
   205  000F6E  3A                 	db	58
   206  000F6F  00                 	db	0
   207  000F70  01                 	db	1
   208  000F71  3B                 	db	59
   209  000F72  00                 	db	0
   210  000F73  01                 	db	1
   211  000F74  3C                 	db	60
   212  000F75  00                 	db	0
   213  000F76  01                 	db	1
   214  000F77  3D                 	db	61
   215  000F78  00                 	db	0
   216  000F79  01                 	db	1
   217  000F7A  26                 	db	38
   218  000F7B  00                 	db	0
   219  000F7C  01                 	db	1
   220  000F7D  27                 	db	39
   221  000F7E  00                 	db	0
   222  000F7F  01                 	db	1
   223  000F80  2D                 	db	45
   224  000F81  00                 	db	0
   225  000F82  01                 	db	1
   226  000F83  2E                 	db	46
   227  000F84  00                 	db	0
   228  000F85  01                 	db	1
   229  000F86  07                 	db	7
   230  000F87  00                 	db	0
   231  000F88  03                 	db	3
   232  000F89  06                 	db	6
   233  000F8A  00                 	db	0
   234  000F8B  03                 	db	3
   235  000F8C  05                 	db	5
   236  000F8D  00                 	db	0
   237  000F8E  03                 	db	3
   238  000F8F  01                 	db	1
   239  000F90  00                 	db	0
   240  000F91  03                 	db	3
   241  000F92  00                 	db	0
   242  000F93  00                 	db	0
   243  000F94  00                 	db	0
   244  000F95  02                 	db	2
   245  000F96  00                 	db	0
   246  000F97  03                 	db	3
   247  000F98  49                 	db	73
   248  000F99  00                 	db	0
   249  000F9A  01                 	db	1
   250  000F9B  4A                 	db	74
   251  000F9C  00                 	db	0
   252  000F9D  01                 	db	1
   253  000F9E  4B                 	db	75
   254  000F9F  00                 	db	0
   255  000FA0  01                 	db	1
   256  000FA1  4E                 	db	78
   257  000FA2  00                 	db	0
   258  000FA3  01                 	db	1
   259  000FA4  4D                 	db	77
   260  000FA5  00                 	db	0
   261  000FA6  01                 	db	1
   262  000FA7  4C                 	db	76
   263  000FA8  00                 	db	0
   264  000FA9  01                 	db	1
   265  000FAA  16                 	db	22
   266  000FAB  40                 	db	64
   267  000FAC  01                 	db	1
   268  000FAD  07                 	db	7
   269  000FAE  40                 	db	64
   270  000FAF  01                 	db	1
   271  000FB0  31                 	db	49
   272  000FB1  00                 	db	0
   273  000FB2  01                 	db	1
   274  000FB3  04                 	db	4
   275  000FB4  00                 	db	0
   276  000FB5  03                 	db	3
   277  000FB6  03                 	db	3
   278  000FB7  00                 	db	0
   279  000FB8  03                 	db	3
   280  000FB9  12                 	db	18
   281  000FBA  40                 	db	64
   282  000FBB  01                 	db	1
   283  000FBC  13                 	db	19
   284  000FBD  40                 	db	64
   285  000FBE  01                 	db	1
   286  000FBF  04                 	db	4
   287  000FC0  40                 	db	64
   288  000FC1  01                 	db	1
   289  000FC2  14                 	db	20
   290  000FC3  00                 	db	0
   291  000FC4  01                 	db	1
   292  000FC5  15                 	db	21
   293  000FC6  00                 	db	0
   294  000FC7  01                 	db	1
   295  000FC8  17                 	db	23
   296  000FC9  00                 	db	0
   297  000FCA  01                 	db	1
   298  000FCB  09                 	db	9
   299  000FCC  40                 	db	64
   300  000FCD  01                 	db	1
   301  000FCE  0A                 	db	10
   302  000FCF  40                 	db	64
   303  000FD0  01                 	db	1
   304  000FD1  0B                 	db	11
   305  000FD2  40                 	db	64
   306  000FD3  01                 	db	1
   307  000FD4  1A                 	db	26
   308  000FD5  00                 	db	0
   309  000FD6  01                 	db	1
   310  000FD7  08                 	db	8
   311  000FD8  00                 	db	0
   312  000FD9  01                 	db	1
   313  000FDA  16                 	db	22
   314  000FDB  00                 	db	0
   315  000FDC  01                 	db	1
   316  000FDD  1B                 	db	27
   317  000FDE  40                 	db	64
   318  000FDF  01                 	db	1
   319  000FE0  0E                 	db	14
   320  000FE1  40                 	db	64
   321  000FE2  01                 	db	1
   322  000FE3  1D                 	db	29
   323  000FE4  40                 	db	64
   324  000FE5  01                 	db	1
   325  000FE6  04                 	db	4
   326  000FE7  00                 	db	0
   327  000FE8  01                 	db	1
   328  000FE9  07                 	db	7
   329  000FEA  00                 	db	0
   330  000FEB  01                 	db	1
   331  000FEC  09                 	db	9
   332  000FED  00                 	db	0
   333  000FEE  01                 	db	1
   334  000FEF  0F                 	db	15
   335  000FF0  40                 	db	64
   336  000FF1  01                 	db	1
   337  000FF2  2A                 	db	42
   338  000FF3  00                 	db	0
   339  000FF4  01                 	db	1
   340  000FF5  30                 	db	48
   341  000FF6  00                 	db	0
   342  000FF7  01                 	db	1
   343  000FF8  0C                 	db	12
   344  000FF9  00                 	db	0
   345  000FFA  01                 	db	1
   346  000FFB  18                 	db	24
   347  000FFC  00                 	db	0
   348  000FFD  01                 	db	1
   349  000FFE  1C                 	db	28
   350  000FFF  00                 	db	0
   351  001000  01                 	db	1
   352  001001  12                 	db	18
   353  001002  00                 	db	0
   354  001003  01                 	db	1
   355  001004  2F                 	db	47
   356  001005  00                 	db	0
   357  001006  01                 	db	1
   358  001007  13                 	db	19
   359  001008  00                 	db	0
   360  001009  01                 	db	1
   361  00100A  0E                 	db	14
   362  00100B  00                 	db	0
   363  00100C  01                 	db	1
   364  00100D  0B                 	db	11
   365  00100E  00                 	db	0
   366  00100F  01                 	db	1
   367  001010  34                 	db	52
   368  001011  00                 	db	0
   369  001012  01                 	db	1
   370  001013  33                 	db	51
   371  001014  00                 	db	0
   372  001015  01                 	db	1
   373  001016  0F                 	db	15
   374  001017  00                 	db	0
   375  001018  01                 	db	1
   376  001019  28                 	db	40
   377  00101A  00                 	db	0
   378  00101B  01                 	db	1
   379  00101C  0D                 	db	13
   380  00101D  00                 	db	0
   381  00101E  01                 	db	1
   382  00101F  0A                 	db	10
   383  001020  00                 	db	0
   384  001021  01                 	db	1
   385  001022  19                 	db	25
   386  001023  00                 	db	0
   387  001024  01                 	db	1
   388  001025  1B                 	db	27
   389  001026  00                 	db	0
   390  001027  01                 	db	1
   391  001028  05                 	db	5
   392  001029  40                 	db	64
   393  00102A  01                 	db	1
   394  00102B  06                 	db	6
   395  00102C  00                 	db	0
   396  00102D  01                 	db	1
   397  00102E  19                 	db	25
   398  00102F  40                 	db	64
   399  001030  01                 	db	1
   400  001031  1D                 	db	29
   401  001032  00                 	db	0
   402  001033  01                 	db	1
   403  001034  06                 	db	6
   404  001035  40                 	db	64
   405  001036  01                 	db	1
   406  001037  11                 	db	17
   407  001038  40                 	db	64
   408  001039  01                 	db	1
   409  00103A  E6                 	db	230
   410  00103B  40                 	db	64
   411  00103C  02                 	db	2
   412  00103D  E3                 	db	227
   413  00103E  08                 	db	8
   414  00103F  02                 	db	2
   415  001040  E1                 	db	225
   416  001041  02                 	db	2
   417  001042  02                 	db	2
   418  001043  E2                 	db	226
   419  001044  04                 	db	4
   420  001045  02                 	db	2
   421  001046  0D                 	db	13
   422  001047  40                 	db	64
   423  001048  01                 	db	1
   424  001049  E7                 	db	231
   425  00104A  80                 	db	128
   426  00104B  02                 	db	2
   427  00104C  2C                 	db	44
   428  00104D  00                 	db	0
   429  00104E  01                 	db	1
   430  00104F  E0                 	db	224
   431  001050  01                 	db	1
   432  001051  02                 	db	2
   433  001052  38                 	db	56
   434  001053  00                 	db	0
   435  001054  01                 	db	1
   436  001055  37                 	db	55
   437  001056  00                 	db	0
   438  001057  01                 	db	1
   439  001058  36                 	db	54
   440  001059  00                 	db	0
   441  00105A  01                 	db	1
   442  00105B  10                 	db	16
   443  00105C  00                 	db	0
   444  00105D  01                 	db	1
   445  00105E  11                 	db	17
   446  00105F  00                 	db	0
   447  001060  01                 	db	1
   448  001061  05                 	db	5
   449  001062  00                 	db	0
   450  001063  01                 	db	1
   451  001064  00                 	db	0
   452  001065  00                 	db	0
   453  001066  00                 	db	0
   454  001067  E5                 	db	229
   455  001068  20                 	db	32
   456  001069  02                 	db	2
   457  00106A  5A                 	db	90
   458  00106B  00                 	db	0
   459  00106C  01                 	db	1
   460  00106D  5D                 	db	93
   461  00106E  00                 	db	0
   462  00106F  01                 	db	1
   463  001070  60                 	db	96
   464  001071  00                 	db	0
   465  001072  01                 	db	1
   466  001073  54                 	db	84
   467  001074  00                 	db	0
   468  001075  01                 	db	1
   469  001076  53                 	db	83
   470  001077  00                 	db	0
   471  001078  01                 	db	1
   472  001079  5F                 	db	95
   473  00107A  00                 	db	0
   474  00107B  01                 	db	1
   475  00107C  5C                 	db	92
   476  00107D  00                 	db	0
   477  00107E  01                 	db	1
   478  00107F  59                 	db	89
   479  001080  00                 	db	0
   480  001081  01                 	db	1
   481  001082  56                 	db	86
   482  001083  00                 	db	0
   483  001084  01                 	db	1
   484  001085  57                 	db	87
   485  001086  00                 	db	0
   486  001087  01                 	db	1
   487  001088  58                 	db	88
   488  001089  00                 	db	0
   489  00108A  01                 	db	1
   490  00108B  63                 	db	99
   491  00108C  00                 	db	0
   492  00108D  01                 	db	1
   493  00108E  5B                 	db	91
   494  00108F  00                 	db	0
   495  001090  01                 	db	1
   496  001091  5E                 	db	94
   497  001092  00                 	db	0
   498  001093  01                 	db	1
   499  001094  61                 	db	97
   500  001095  00                 	db	0
   501  001096  01                 	db	1
   502  001097  55                 	db	85
   503  001098  00                 	db	0
   504  001099  01                 	db	1
   505  00109A  52                 	db	82
   506  00109B  00                 	db	0
   507  00109C  01                 	db	1
   508  00109D  50                 	db	80
   509  00109E  00                 	db	0
   510  00109F  01                 	db	1
   511  0010A0  51                 	db	81
   512  0010A1  00                 	db	0
   513  0010A2  01                 	db	1
   514  0010A3  4F                 	db	79
   515  0010A4  00                 	db	0
   516  0010A5  01                 	db	1
   517  0010A6  E4                 	db	228
   518  0010A7  10                 	db	16
   519  0010A8  02                 	db	2
   520  0010A9  62                 	db	98
   521  0010AA  00                 	db	0
   522  0010AB  01                 	db	1
   523  0010AC  65                 	db	101
   524  0010AD  00                 	db	0
   525  0010AE  01                 	db	1
   526  0010AF  00                 	db	0
   527  0010B0  00                 	db	0
   528  0010B1  00                 	db	0
   529                           
   530                           	psect	smallconst
   531  000800                     __psmallconst:
   532                           	opt callstack 0
   533  000800  00                 	db	0
   534  000801                     _USB_SD_Ptr:
   535                           	opt callstack 0
   536  000801  EA                 	db	low _sd000
   537  000802  08                 	db	high _sd000
   538  000803  88                 	db	low _sd001
   539  000804  08                 	db	high _sd001
   540  000805  BC                 	db	low _sd002
   541  000806  08                 	db	high _sd002
   542  000807                     __end_of_USB_SD_Ptr:
   543                           	opt callstack 0
   544  000807                     _USB_CD_Ptr:
   545                           	opt callstack 0
   546  000807  09                 	db	low _configDescriptor1
   547  000808  08                 	db	high _configDescriptor1
   548  000809                     __end_of_USB_CD_Ptr:
   549                           	opt callstack 0
   550  000809                     _configDescriptor1:
   551                           	opt callstack 0
   552  000809  09                 	db	9
   553  00080A  02                 	db	2
   554  00080B  40                 	db	64
   555  00080C  00                 	db	0
   556  00080D  02                 	db	2
   557  00080E  01                 	db	1
   558  00080F  00                 	db	0
   559  000810  80                 	db	128
   560  000811  32                 	db	50
   561  000812  09                 	db	9
   562  000813  04                 	db	4
   563  000814  00                 	db	0
   564  000815  00                 	db	0
   565  000816  02                 	db	2
   566  000817  03                 	db	3
   567  000818  01                 	db	1
   568  000819  01                 	db	1
   569  00081A  00                 	db	0
   570  00081B  09                 	db	9
   571  00081C  21                 	db	33
   572  00081D  11                 	db	17
   573  00081E  01                 	db	1
   574  00081F  00                 	db	0
   575  000820  01                 	db	1
   576  000821  22                 	db	34
   577  000822  3F                 	db	63
   578  000823  00                 	db	0
   579  000824  07                 	db	7
   580  000825  05                 	db	5
   581  000826  81                 	db	129
   582  000827  03                 	db	3
   583  000828  08                 	db	8
   584  000829  00                 	db	0
   585  00082A  01                 	db	1
   586  00082B  07                 	db	7
   587  00082C  05                 	db	5
   588  00082D  01                 	db	1
   589  00082E  03                 	db	3
   590  00082F  08                 	db	8
   591  000830  00                 	db	0
   592  000831  01                 	db	1
   593  000832  09                 	db	9
   594  000833  04                 	db	4
   595  000834  01                 	db	1
   596  000835  00                 	db	0
   597  000836  02                 	db	2
   598  000837  FF                 	db	255
   599  000838  FF                 	db	255
   600  000839  FF                 	db	255
   601  00083A  00                 	db	0
   602  00083B  07                 	db	7
   603  00083C  05                 	db	5
   604  00083D  82                 	db	130
   605  00083E  02                 	db	2
   606  00083F  08                 	db	8
   607  000840  00                 	db	0
   608  000841  01                 	db	1
   609  000842  07                 	db	7
   610  000843  05                 	db	5
   611  000844  02                 	db	2
   612  000845  02                 	db	2
   613  000846  08                 	db	8
   614  000847  00                 	db	0
   615  000848  01                 	db	1
   616  000849                     __end_of_configDescriptor1:
   617                           	opt callstack 0
   618  000849                     _hid_rpt01:
   619                           	opt callstack 0
   620  000849  05                 	db	5
   621  00084A  01                 	db	1
   622  00084B  09                 	db	9
   623  00084C  06                 	db	6
   624  00084D  A1                 	db	161
   625  00084E  01                 	db	1
   626  00084F  05                 	db	5
   627  000850  07                 	db	7
   628  000851  19                 	db	25
   629  000852  E0                 	db	224
   630  000853  29                 	db	41
   631  000854  E7                 	db	231
   632  000855  15                 	db	21
   633  000856  00                 	db	0
   634  000857  25                 	db	37
   635  000858  01                 	db	1
   636  000859  75                 	db	117
   637  00085A  01                 	db	1
   638  00085B  95                 	db	149
   639  00085C  08                 	db	8
   640  00085D  81                 	db	129
   641  00085E  02                 	db	2
   642  00085F  95                 	db	149
   643  000860  01                 	db	1
   644  000861  75                 	db	117
   645  000862  08                 	db	8
   646  000863  81                 	db	129
   647  000864  03                 	db	3
   648  000865  95                 	db	149
   649  000866  05                 	db	5
   650  000867  75                 	db	117
   651  000868  01                 	db	1
   652  000869  05                 	db	5
   653  00086A  08                 	db	8
   654  00086B  19                 	db	25
   655  00086C  01                 	db	1
   656  00086D  29                 	db	41
   657  00086E  05                 	db	5
   658  00086F  91                 	db	145
   659  000870  02                 	db	2
   660  000871  95                 	db	149
   661  000872  01                 	db	1
   662  000873  75                 	db	117
   663  000874  03                 	db	3
   664  000875  91                 	db	145
   665  000876  03                 	db	3
   666  000877  95                 	db	149
   667  000878  06                 	db	6
   668  000879  75                 	db	117
   669  00087A  08                 	db	8
   670  00087B  15                 	db	21
   671  00087C  00                 	db	0
   672  00087D  25                 	db	37
   673  00087E  FF                 	db	255
   674  00087F  05                 	db	5
   675  000880  07                 	db	7
   676  000881  19                 	db	25
   677  000882  00                 	db	0
   678  000883  29                 	db	41
   679  000884  FF                 	db	255
   680  000885  81                 	db	129
   681  000886  00                 	db	0
   682  000887  C0                 	db	192
   683  000888                     __end_of_hid_rpt01:
   684                           	opt callstack 0
   685  000888                     _sd001:
   686                           	opt callstack 0
   687  000888  34                 	db	52
   688  000889  03                 	db	3
   689  00088A  0056               	dw	86
   690  00088C  0069               	dw	105
   691  00088E  0074               	dw	116
   692  000890  0061               	dw	97
   693  000892  006E               	dw	110
   694  000894  0069               	dw	105
   695  000896  0076               	dw	118
   696  000898  0065               	dw	101
   697  00089A  0020               	dw	32
   698  00089C  004C               	dw	76
   699  00089E  0074               	dw	116
   700  0008A0  0064               	dw	100
   701  0008A2  0020               	dw	32
   702  0008A4  0020               	dw	32
   703  0008A6  0020               	dw	32
   704  0008A8  0020               	dw	32
   705  0008AA  0020               	dw	32
   706  0008AC  0020               	dw	32
   707  0008AE  0020               	dw	32
   708  0008B0  0020               	dw	32
   709  0008B2  0020               	dw	32
   710  0008B4  0020               	dw	32
   711  0008B6  0020               	dw	32
   712  0008B8  0020               	dw	32
   713  0008BA  0020               	dw	32
   714  0008BC                     __end_of_sd001:
   715                           	opt callstack 0
   716  0008BC                     _sd002:
   717                           	opt callstack 0
   718  0008BC  1C                 	db	28
   719  0008BD  03                 	db	3
   720  0008BE  004B               	dw	75
   721  0008C0  0065               	dw	101
   722  0008C2  0079               	dw	121
   723  0008C4  0062               	dw	98
   724  0008C6  006F               	dw	111
   725  0008C8  0061               	dw	97
   726  0008CA  0072               	dw	114
   727  0008CC  0064               	dw	100
   728  0008CE  0020               	dw	32
   729  0008D0  0032               	dw	50
   730  0008D2  0030               	dw	48
   731  0008D4  0032               	dw	50
   732  0008D6  0030               	dw	48
   733  0008D8                     __end_of_sd002:
   734                           	opt callstack 0
   735  0008D8                     _device_dsc:
   736                           	opt callstack 0
   737  0008D8  12                 	db	18
   738  0008D9  01                 	db	1
   739  0008DA  0200               	dw	512
   740  0008DC  00                 	db	0
   741  0008DD  00                 	db	0
   742  0008DE  00                 	db	0
   743  0008DF  08                 	db	8
   744  0008E0  04D8               	dw	1240
   745  0008E2  0055               	dw	85
   746  0008E4  0001               	dw	1
   747  0008E6  01                 	db	1
   748  0008E7  02                 	db	2
   749  0008E8  00                 	db	0
   750  0008E9  01                 	db	1
   751  0008EA                     __end_of_device_dsc:
   752                           	opt callstack 0
   753  0008EA                     _sd000:
   754                           	opt callstack 0
   755  0008EA  04                 	db	4
   756  0008EB  03                 	db	3
   757  0008EC  0409               	dw	1033
   758  0008EE                     __end_of_sd000:
   759                           	opt callstack 0
   760  0000                     _ANSELEbits	set	3935
   761  0000                     _ANSELA	set	3931
   762  0000                     _ANSELD	set	3934
   763  0000                     _ANSELC	set	3933
   764  0000                     _ANSELB	set	3932
   765  0000                     _TRISEbits	set	3990
   766  0000                     _LATEbits	set	3981
   767  0000                     _TRISA	set	3986
   768  0000                     _TRISD	set	3989
   769  0000                     _TRISC	set	3988
   770  0000                     _TRISB	set	3987
   771  0000                     _PORTBbits	set	3969
   772  0000                     _LATC	set	3979
   773  0000                     _LATB	set	3978
   774  0000                     _LATD	set	3980
   775  0000                     _PORTA	set	3968
   776  0000                     _ACTCON	set	4021
   777  0000                     _OSCCON2bits	set	4050
   778  0000                     _OSCCON2	set	4050
   779  0000                     _OSCCON	set	4051
   780  0000                     _OSCTUNE	set	3995
   781  0000                     _UEP0bits	set	3946
   782  0000                     _INTCONbits	set	4082
   783  0000                     _IPR3bits	set	4005
   784  0000                     _RCONbits	set	4048
   785  0000                     _UCON	set	3936
   786  0000                     _USTAT	set	3937
   787  0000                     _PIR3bits	set	4004
   788  0000                     _UIEbits	set	3940
   789  0000                     _UIRbits	set	3941
   790  0000                     _UADDR	set	3939
   791  0000                     _UCONbits	set	3936
   792  0000                     _UIE	set	3940
   793  0000                     _UEIE	set	3942
   794  0000                     _UCFG	set	3938
   795  0000                     _UIR	set	3941
   796  0000                     _UEIR	set	3943
   797  0000                     _PIE3bits	set	4003
   798  0000                     _UEP1	set	3947
   799  0000                     _UEP0	set	3946
   800  0000                     
   801                           ; #config settings
   802  0008EE  00                 	db	0	; dummy byte at the end
   803  0000                     
   804                           	psect	cinit
   805  002850                     __pcinit:
   806                           	opt callstack 0
   807  002850                     start_initialization:
   808                           	opt callstack 0
   809  002850                     __initialization:
   810                           	opt callstack 0
   811                           
   812                           ; Initialize objects allocated to BIGRAMl (408 bytes)
   813                           ; load TBLPTR registers with __pidataBIGRAMl
   814  002850  0E1A               	movlw	low __pidataBIGRAMl
   815  002852  6EF6               	movwf	tblptrl,c
   816  002854  0E0F               	movlw	high __pidataBIGRAMl
   817  002856  6EF7               	movwf	tblptrh,c
   818  002858  0E00               	movlw	low (__pidataBIGRAMl shr (0+16))
   819  00285A  6EF8               	movwf	tblptru,c
   820  00285C  EE05  F020         	lfsr	0,__pdataBIGRAMl
   821  002860  EE11 F098          	lfsr	1,408
   822  002864                     copy_data0:
   823  002864  0009               	tblrd		*+
   824  002866  CFF5 FFEE          	movff	tablat,postinc0
   825  00286A  50E5               	movf	postdec1,w,c
   826  00286C  50E1               	movf	fsr1l,w,c
   827  00286E  E1FA               	bnz	copy_data0
   828  002870  50E2               	movf	fsr1h,w,c
   829  002872  E1F8               	bnz	copy_data0
   830                           
   831                           ; Clear objects allocated to BANK1 (48 bytes)
   832  002874  EE01  F000         	lfsr	0,__pbssBANK1
   833  002878  0E30               	movlw	48
   834  00287A                     clear_0:
   835  00287A  6AEE               	clrf	postinc0,c
   836  00287C  06E8               	decf	wreg,f,c
   837  00287E  E1FD               	bnz	clear_0
   838                           
   839                           ; Clear objects allocated to BANK0 (117 bytes)
   840  002880  EE00  F060         	lfsr	0,__pbssBANK0
   841  002884  0E75               	movlw	117
   842  002886                     clear_1:
   843  002886  6AEE               	clrf	postinc0,c
   844  002888  06E8               	decf	wreg,f,c
   845  00288A  E1FD               	bnz	clear_1
   846                           
   847                           ; Clear objects allocated to COMRAM (43 bytes)
   848  00288C  EE00  F001         	lfsr	0,__pbssCOMRAM
   849  002890  0E2B               	movlw	43
   850  002892                     clear_2:
   851  002892  6AEE               	clrf	postinc0,c
   852  002894  06E8               	decf	wreg,f,c
   853  002896  E1FD               	bnz	clear_2
   854  002898                     end_of_initialization:
   855                           	opt callstack 0
   856  002898                     __end_of__initialization:
   857                           	opt callstack 0
   858  002898  9057               	bcf	int$flags,0,c	;clear compiler interrupt flag (level 1)
   859  00289A  9257               	bcf	int$flags,1,c	;clear compiler interrupt flag (level 2)
   860  00289C  0E00               	movlw	low (__Lmediumconst shr (0+16))
   861  00289E  6EF8               	movwf	tblptru,c
   862  0028A0  0100               	movlb	0
   863  0028A2  EFA8  F016         	goto	_main	;jump to C main() function
   864                           
   865                           	psect	bssCOMRAM
   866  000001                     __pbssCOMRAM:
   867                           	opt callstack 0
   868  000001                     _USB1msTickCount:
   869                           	opt callstack 0
   870  000001                     	ds	4
   871  000005                     SortSendList@F5618:
   872                           	opt callstack 0
   873  000005                     	ds	3
   874  000008                     APP_LEDUpdateUSBStatus@ledCount:
   875                           	opt callstack 0
   876  000008                     	ds	2
   877  00000A                     _OldSOFCount:
   878                           	opt callstack 0
   879  00000A                     	ds	2
   880  00000C                     _SOFCounter:
   881                           	opt callstack 0
   882  00000C                     	ds	2
   883  00000E                     _pDst:
   884                           	opt callstack 0
   885  00000E                     	ds	2
   886  000010                     _pBDTEntryEP0OutNext:
   887                           	opt callstack 0
   888  000010                     	ds	2
   889  000012                     _pBDTEntryEP0OutCurrent:
   890                           	opt callstack 0
   891  000012                     	ds	2
   892  000014                     _EP2ListCount:
   893                           	opt callstack 0
   894  000014                     	ds	1
   895  000015                     _ModListCount:
   896                           	opt callstack 0
   897  000015                     	ds	1
   898  000016                     _CharListCount:
   899                           	opt callstack 0
   900  000016                     	ds	1
   901  000017                     _SendListCount:
   902                           	opt callstack 0
   903  000017                     	ds	1
   904  000018                     _USBTicksSinceSuspendEnd:
   905                           	opt callstack 0
   906  000018                     	ds	1
   907  000019                     _USBDeferOUTDataStagePackets:
   908                           	opt callstack 0
   909  000019                     	ds	1
   910  00001A                     _USBDeferINDataStagePackets:
   911                           	opt callstack 0
   912  00001A                     	ds	1
   913  00001B                     _USBStatusStageEnabledFlag2:
   914                           	opt callstack 0
   915  00001B                     	ds	1
   916  00001C                     _USBStatusStageEnabledFlag1:
   917                           	opt callstack 0
   918  00001C                     	ds	1
   919  00001D                     _USBDeferStatusStagePacket:
   920                           	opt callstack 0
   921  00001D                     	ds	1
   922  00001E                     _USBStatusStageTimeoutCounter:
   923                           	opt callstack 0
   924  00001E                     	ds	1
   925  00001F                     _BothEP0OutUOWNsSet:
   926                           	opt callstack 0
   927  00001F                     	ds	1
   928  000020                     _endpoint_number:
   929                           	opt callstack 0
   930  000020                     	ds	1
   931  000021                     _USBBusIsSuspended:
   932                           	opt callstack 0
   933  000021                     	ds	1
   934  000022                     _RemoteWakeup:
   935                           	opt callstack 0
   936  000022                     	ds	1
   937  000023                     _controlTransferState:
   938                           	opt callstack 0
   939  000023                     	ds	1
   940  000024                     _shortPacketStatus:
   941                           	opt callstack 0
   942  000024                     	ds	1
   943  000025                     _USBDeviceState:
   944                           	opt callstack 0
   945  000025                     	ds	1
   946  000026                     _USBAlternateInterface:
   947                           	opt callstack 0
   948  000026                     	ds	2
   949  000028                     _active_protocol:
   950                           	opt callstack 0
   951  000028                     	ds	1
   952  000029                     _idle_rate:
   953                           	opt callstack 0
   954  000029                     	ds	1
   955  00002A                     _USTATcopy:
   956                           	opt callstack 0
   957  00002A                     	ds	1
   958  00002B                     _USBActiveConfiguration:
   959                           	opt callstack 0
   960  00002B                     	ds	1
   961                           
   962                           	psect	bssBANK0
   963  000060                     __pbssBANK0:
   964                           	opt callstack 0
   965  000060                     _CharKeyList:
   966                           	opt callstack 0
   967  000060                     	ds	24
   968  000078                     _SendList:
   969                           	opt callstack 0
   970  000078                     	ds	24
   971  000090                     _old_ep2report:
   972                           	opt callstack 0
   973  000090                     	ds	8
   974  000098                     _oldInputReport:
   975                           	opt callstack 0
   976  000098                     	ds	8
   977  0000A0                     _outPipes:
   978                           	opt callstack 0
   979  0000A0                     	ds	8
   980  0000A8                     _inPipes:
   981                           	opt callstack 0
   982  0000A8                     	ds	6
   983  0000AE                     _pBDTEntryIn:
   984                           	opt callstack 0
   985  0000AE                     	ds	6
   986  0000B4                     _pBDTEntryOut:
   987                           	opt callstack 0
   988  0000B4                     	ds	6
   989  0000BA                     _keyboard:
   990                           	opt callstack 0
   991  0000BA                     	ds	4
   992  0000BE                     APP_KeyboardTasks@F5643:
   993                           	opt callstack 0
   994  0000BE                     	ds	3
   995  0000C1                     APP_KeyboardTasks@F5641:
   996                           	opt callstack 0
   997  0000C1                     	ds	3
   998  0000C4                     APP_KeyboardTasks@F5639:
   999                           	opt callstack 0
  1000  0000C4                     	ds	3
  1001  0000C7                     _ep_data_out:
  1002                           	opt callstack 0
  1003  0000C7                     	ds	3
  1004  0000CA                     _ep_data_in:
  1005                           	opt callstack 0
  1006  0000CA                     	ds	3
  1007  0000CD                     _ep2_out_handle:
  1008                           	opt callstack 0
  1009  0000CD                     	ds	2
  1010  0000CF                     _ep2_handle:
  1011                           	opt callstack 0
  1012  0000CF                     	ds	2
  1013  0000D1                     _LocalSOFCount:
  1014                           	opt callstack 0
  1015  0000D1                     	ds	2
  1016  0000D3                     _keyboardIdleRate:
  1017                           	opt callstack 0
  1018  0000D3                     	ds	2
  1019                           
  1020                           	psect	bssBANK1
  1021  000100                     __pbssBANK1:
  1022                           	opt callstack 0
  1023  000100                     _EP2KeyList:
  1024                           	opt callstack 0
  1025  000100                     	ds	24
  1026  000118                     _ModKeyList:
  1027                           	opt callstack 0
  1028  000118                     	ds	24
  1029                           
  1030                           	psect	dataBIGRAMl
  1031  000520                     __pdataBIGRAMl:
  1032                           	opt callstack 0
  1033  000520                     _CodeChart:
  1034                           	opt callstack 0
  1035  000520                     	ds	408
  1036                           
  1037                           	psect	cstackBANK0
  1038  0000D5                     __pcstackBANK0:
  1039                           	opt callstack 0
  1040  0000D5                     ??_LED_Enable:
  1041  0000D5                     ??_LED_On:
  1042  0000D5                     ??_LED_Off:
  1043  0000D5                     ??_SortSendList:
  1044  0000D5                     ?_USBTransferOnePacket:
  1045                           	opt callstack 0
  1046  0000D5                     USBTransferOnePacket@dir:
  1047                           	opt callstack 0
  1048  0000D5                     memset@dest:
  1049                           	opt callstack 0
  1050  0000D5                     AddToSendList@keyCode:
  1051                           	opt callstack 0
  1052                           
  1053                           ; 3 bytes @ 0x0
  1054  0000D5                     	ds	1
  1055  0000D6                     USBTransferOnePacket@data:
  1056                           	opt callstack 0
  1057                           
  1058                           ; 2 bytes @ 0x1
  1059  0000D6                     	ds	1
  1060  0000D7                     LED_On@led:
  1061                           	opt callstack 0
  1062  0000D7                     LED_Off@led:
  1063                           	opt callstack 0
  1064  0000D7                     LED_Enable@led:
  1065                           	opt callstack 0
  1066  0000D7                     memset@c:
  1067                           	opt callstack 0
  1068  0000D7                     SortSendList@5619:
  1069                           	opt callstack 0
  1070                           
  1071                           ; 3 bytes @ 0x2
  1072  0000D7                     	ds	1
  1073  0000D8                     ??_SYSTEM_Initialize:
  1074  0000D8                     ??_ProcessLine:
  1075  0000D8                     USBTransferOnePacket@len:
  1076                           	opt callstack 0
  1077                           
  1078                           ; 1 bytes @ 0x3
  1079  0000D8                     	ds	1
  1080  0000D9                     ??_USBTransferOnePacket:
  1081  0000D9                     memset@n:
  1082                           	opt callstack 0
  1083                           
  1084                           ; 2 bytes @ 0x4
  1085  0000D9                     	ds	1
  1086  0000DA                     SYSTEM_Initialize@state:
  1087                           	opt callstack 0
  1088  0000DA                     SortSendList@j:
  1089                           	opt callstack 0
  1090                           
  1091                           ; 1 bytes @ 0x5
  1092  0000DA                     	ds	1
  1093  0000DB                     ??_memset:
  1094  0000DB                     SortSendList@i:
  1095                           	opt callstack 0
  1096                           
  1097                           ; 1 bytes @ 0x6
  1098  0000DB                     	ds	1
  1099  0000DC                     ProcessLine@lineNo:
  1100                           	opt callstack 0
  1101                           
  1102                           ; 1 bytes @ 0x7
  1103  0000DC                     	ds	1
  1104  0000DD                     USBTransferOnePacket@ep:
  1105                           	opt callstack 0
  1106  0000DD                     ProcessLine@tempBuf:
  1107                           	opt callstack 0
  1108  0000DD                     memset@k:
  1109                           	opt callstack 0
  1110                           
  1111                           ; 2 bytes @ 0x8
  1112  0000DD                     	ds	1
  1113  0000DE                     ProcessLine@readBuf:
  1114                           	opt callstack 0
  1115  0000DE                     USBTransferOnePacket@handle:
  1116                           	opt callstack 0
  1117                           
  1118                           ; 2 bytes @ 0x9
  1119  0000DE                     	ds	1
  1120  0000DF                     ProcessLine@filt:
  1121                           	opt callstack 0
  1122  0000DF                     memset@s:
  1123                           	opt callstack 0
  1124                           
  1125                           ; 2 bytes @ 0xA
  1126  0000DF                     	ds	1
  1127  0000E0                     ProcessLine@x:
  1128                           	opt callstack 0
  1129                           
  1130                           ; 1 bytes @ 0xB
  1131  0000E0                     	ds	1
  1132  0000E1                     USBDeviceInit@i:
  1133                           	opt callstack 0
  1134  0000E1                     ProcessLine@i:
  1135                           	opt callstack 0
  1136                           
  1137                           ; 1 bytes @ 0xC
  1138  0000E1                     	ds	1
  1139  0000E2                     ProcessKeyboard@n:
  1140                           	opt callstack 0
  1141                           
  1142                           ; 1 bytes @ 0xD
  1143  0000E2                     	ds	1
  1144  0000E3                     ProcessKeyboard@n_2367:
  1145                           	opt callstack 0
  1146                           
  1147                           ; 1 bytes @ 0xE
  1148  0000E3                     	ds	1
  1149  0000E4                     ProcessKeyboard@n_2368:
  1150                           	opt callstack 0
  1151                           
  1152                           ; 1 bytes @ 0xF
  1153  0000E4                     	ds	1
  1154  0000E5                     ProcessKeyboard@line:
  1155                           	opt callstack 0
  1156                           
  1157                           ; 1 bytes @ 0x10
  1158  0000E5                     	ds	1
  1159  0000E6                     ProcessKeyboard@latWriter:
  1160                           	opt callstack 0
  1161                           
  1162                           ; 1 bytes @ 0x11
  1163  0000E6                     	ds	1
  1164  0000E7                     ??_APP_KeyboardTasks:
  1165                           
  1166                           ; 1 bytes @ 0x12
  1167  0000E7                     	ds	2
  1168  0000E9                     APP_KeyboardTasks@5640:
  1169                           	opt callstack 0
  1170                           
  1171                           ; 3 bytes @ 0x14
  1172  0000E9                     	ds	3
  1173  0000EC                     APP_KeyboardTasks@5642:
  1174                           	opt callstack 0
  1175                           
  1176                           ; 3 bytes @ 0x17
  1177  0000EC                     	ds	3
  1178  0000EF                     APP_KeyboardTasks@5644:
  1179                           	opt callstack 0
  1180                           
  1181                           ; 3 bytes @ 0x1A
  1182  0000EF                     	ds	3
  1183  0000F2                     APP_KeyboardTasks@shd_send:
  1184                           	opt callstack 0
  1185                           
  1186                           ; 1 bytes @ 0x1D
  1187  0000F2                     	ds	1
  1188  0000F3                     APP_KeyboardTasks@needToSendNewReportPacket:
  1189                           	opt callstack 0
  1190                           
  1191                           ; 1 bytes @ 0x1E
  1192  0000F3                     	ds	1
  1193  0000F4                     APP_KeyboardTasks@j:
  1194                           	opt callstack 0
  1195                           
  1196                           ; 1 bytes @ 0x1F
  1197  0000F4                     	ds	1
  1198  0000F5                     APP_KeyboardTasks@TimeDeltaMilliseconds:
  1199                           	opt callstack 0
  1200                           
  1201                           ; 2 bytes @ 0x20
  1202  0000F5                     	ds	2
  1203  0000F7                     APP_KeyboardTasks@j_2415:
  1204                           	opt callstack 0
  1205                           
  1206                           ; 1 bytes @ 0x22
  1207  0000F7                     	ds	1
  1208  0000F8                     APP_KeyboardTasks@j_2416:
  1209                           	opt callstack 0
  1210                           
  1211                           ; 1 bytes @ 0x23
  1212  0000F8                     	ds	1
  1213  0000F9                     APP_KeyboardTasks@j_2417:
  1214                           	opt callstack 0
  1215                           
  1216                           ; 1 bytes @ 0x24
  1217  0000F9                     	ds	1
  1218  0000FA                     APP_KeyboardTasks@j_2418:
  1219                           	opt callstack 0
  1220                           
  1221                           ; 1 bytes @ 0x25
  1222  0000FA                     	ds	1
  1223  0000FB                     APP_KeyboardTasks@j_2424:
  1224                           	opt callstack 0
  1225                           
  1226                           ; 1 bytes @ 0x26
  1227  0000FB                     	ds	1
  1228  0000FC                     APP_KeyboardTasks@i:
  1229                           	opt callstack 0
  1230                           
  1231                           ; 1 bytes @ 0x27
  1232  0000FC                     	ds	1
  1233  0000FD                     APP_KeyboardTasks@j_2423:
  1234                           	opt callstack 0
  1235                           
  1236                           ; 1 bytes @ 0x28
  1237  0000FD                     	ds	1
  1238  0000FE                     APP_KeyboardTasks@j_2403:
  1239                           	opt callstack 0
  1240                           
  1241                           ; 1 bytes @ 0x29
  1242  0000FE                     	ds	1
  1243  0000FF                     
  1244                           ; 1 bytes @ 0x2A
  1245                           
  1246                           	psect	cstackCOMRAM
  1247  00002C                     __pcstackCOMRAM:
  1248                           	opt callstack 0
  1249  00002C                     ??_APP_LEDUpdateUSBStatus:
  1250  00002C                     ??_USBStdGetDscHandler:
  1251  00002C                     ??_USBStdGetStatusHandler:
  1252  00002C                     ??i2_LED_On:
  1253  00002C                     ??i2_LED_Off:
  1254  00002C                     ??i2_LED_Enable:
  1255  00002C                     ?i2_USBTransferOnePacket:
  1256                           	opt callstack 0
  1257  00002C                     USBConfigureEndpoint@direction:
  1258                           	opt callstack 0
  1259  00002C                     USBCtrlTrfTxService@byteToSend:
  1260                           	opt callstack 0
  1261  00002C                     USBHIDCBSetIdleRateHandler@newIdleRate:
  1262                           	opt callstack 0
  1263  00002C                     i2USBTransferOnePacket@dir:
  1264                           	opt callstack 0
  1265  00002C                     memcpy@d1:
  1266                           	opt callstack 0
  1267  00002C                     i2memset@dest:
  1268                           	opt callstack 0
  1269                           
  1270                           ; 2 bytes @ 0x0
  1271  00002C                     	ds	1
  1272  00002D                     ??_USBConfigureEndpoint:
  1273  00002D                     USBHIDCBSetIdleRateHandler@reportID:
  1274                           	opt callstack 0
  1275  00002D                     i2USBTransferOnePacket@data:
  1276                           	opt callstack 0
  1277                           
  1278                           ; 2 bytes @ 0x1
  1279  00002D                     	ds	1
  1280  00002E                     ??_USBCheckHIDRequest:
  1281  00002E                     i2LED_On@led:
  1282                           	opt callstack 0
  1283  00002E                     i2LED_Off@led:
  1284                           	opt callstack 0
  1285  00002E                     i2LED_Enable@led:
  1286                           	opt callstack 0
  1287  00002E                     USBStdGetStatusHandler@p:
  1288                           	opt callstack 0
  1289  00002E                     memcpy@s1:
  1290                           	opt callstack 0
  1291  00002E                     i2memset@c:
  1292                           	opt callstack 0
  1293                           
  1294                           ; 2 bytes @ 0x2
  1295  00002E                     	ds	1
  1296  00002F                     ??i2_SYSTEM_Initialize:
  1297  00002F                     USBCtrlTrfRxService@i:
  1298                           	opt callstack 0
  1299  00002F                     USBCtrlTrfInHandler@lastDTS:
  1300                           	opt callstack 0
  1301  00002F                     i2USBTransferOnePacket@len:
  1302                           	opt callstack 0
  1303                           
  1304                           ; 1 bytes @ 0x3
  1305  00002F                     	ds	1
  1306  000030                     ??i2_USBTransferOnePacket:
  1307  000030                     USBCtrlTrfRxService@byteToRead:
  1308                           	opt callstack 0
  1309  000030                     memcpy@n:
  1310                           	opt callstack 0
  1311  000030                     i2memset@n:
  1312                           	opt callstack 0
  1313                           
  1314                           ; 2 bytes @ 0x4
  1315  000030                     	ds	1
  1316  000031                     USBConfigureEndpoint@EPNum:
  1317                           	opt callstack 0
  1318  000031                     i2SYSTEM_Initialize@state:
  1319                           	opt callstack 0
  1320                           
  1321                           ; 1 bytes @ 0x5
  1322  000031                     	ds	1
  1323  000032                     ??i2_memset:
  1324  000032                     USBConfigureEndpoint@handle:
  1325                           	opt callstack 0
  1326  000032                     memcpy@d:
  1327                           	opt callstack 0
  1328                           
  1329                           ; 2 bytes @ 0x6
  1330  000032                     	ds	2
  1331  000034                     USBEnableEndpoint@options:
  1332                           	opt callstack 0
  1333  000034                     i2USBTransferOnePacket@ep:
  1334                           	opt callstack 0
  1335  000034                     memcpy@s:
  1336                           	opt callstack 0
  1337  000034                     i2memset@k:
  1338                           	opt callstack 0
  1339                           
  1340                           ; 2 bytes @ 0x8
  1341  000034                     	ds	1
  1342  000035                     USBEnableEndpoint@p:
  1343                           	opt callstack 0
  1344  000035                     i2USBTransferOnePacket@handle:
  1345                           	opt callstack 0
  1346                           
  1347                           ; 2 bytes @ 0x9
  1348  000035                     	ds	1
  1349  000036                     memcpy@tmp:
  1350                           	opt callstack 0
  1351  000036                     i2memset@s:
  1352                           	opt callstack 0
  1353                           
  1354                           ; 2 bytes @ 0xA
  1355  000036                     	ds	1
  1356  000037                     USBEnableEndpoint@ep:
  1357                           	opt callstack 0
  1358                           
  1359                           ; 1 bytes @ 0xB
  1360  000037                     	ds	1
  1361  000038                     i2USBDeviceInit@i:
  1362                           	opt callstack 0
  1363  000038                     USER_USB_CALLBACK_EVENT_HANDLER@event:
  1364                           	opt callstack 0
  1365                           
  1366                           ; 2 bytes @ 0xC
  1367  000038                     	ds	2
  1368  00003A                     USER_USB_CALLBACK_EVENT_HANDLER@pdata:
  1369                           	opt callstack 0
  1370                           
  1371                           ; 2 bytes @ 0xE
  1372  00003A                     	ds	2
  1373  00003C                     USER_USB_CALLBACK_EVENT_HANDLER@size:
  1374                           	opt callstack 0
  1375                           
  1376                           ; 2 bytes @ 0x10
  1377  00003C                     	ds	2
  1378  00003E                     ??_USER_USB_CALLBACK_EVENT_HANDLER:
  1379                           
  1380                           ; 1 bytes @ 0x12
  1381  00003E                     	ds	2
  1382  000040                     ??_USBStdFeatureReqHandler:
  1383  000040                     USBStdSetCfgHandler@i:
  1384                           	opt callstack 0
  1385                           
  1386                           ; 1 bytes @ 0x14
  1387  000040                     	ds	2
  1388  000042                     USBStdFeatureReqHandler@pUEP:
  1389                           	opt callstack 0
  1390                           
  1391                           ; 2 bytes @ 0x16
  1392  000042                     	ds	2
  1393  000044                     USBStdFeatureReqHandler@current_ep_data:
  1394                           	opt callstack 0
  1395                           
  1396                           ; 1 bytes @ 0x18
  1397  000044                     	ds	1
  1398  000045                     USBStdFeatureReqHandler@p:
  1399                           	opt callstack 0
  1400                           
  1401                           ; 2 bytes @ 0x19
  1402  000045                     	ds	2
  1403  000047                     ??_USBCheckStdRequest:
  1404                           
  1405                           ; 1 bytes @ 0x1B
  1406  000047                     	ds	2
  1407  000049                     ??_USBCtrlEPService:
  1408  000049                     
  1409                           ; 1 bytes @ 0x1D
  1410  000049                     	ds	1
  1411  00004A                     USBDeviceTasks@i:
  1412                           	opt callstack 0
  1413                           
  1414                           ; 1 bytes @ 0x1E
  1415  00004A                     	ds	1
  1416  00004B                     ??_SYS_InterruptHigh:
  1417                           
  1418                           ; 1 bytes @ 0x1F
  1419  00004B                     	ds	12
  1420                           
  1421 ;;
  1422 ;;Main: autosize = 0, tempsize = 0, incstack = 0, save=0
  1423 ;;
  1424 ;; *************** function _main *****************
  1425 ;; Defined at:
  1426 ;;		line 38 in file "main.c"
  1427 ;; Parameters:    Size  Location     Type
  1428 ;;		None
  1429 ;; Auto vars:     Size  Location     Type
  1430 ;;		None
  1431 ;; Return value:  Size  Location     Type
  1432 ;;                  2   12[None  ] int 
  1433 ;; Registers used:
  1434 ;;		wreg, fsr1l, fsr1h, fsr2l, fsr2h, status,2, status,0, prodl, prodh, cstack
  1435 ;; Tracked objects:
  1436 ;;		On entry : 0/0
  1437 ;;		On exit  : 0/0
  1438 ;;		Unchanged: 0/0
  1439 ;; Data sizes:     COMRAM   BANK0   BANK1   BANK2   BANK3   BANK4  BANK5h  BANK5l   BANK6   BANK7
  1440 ;;      Params:         0       0       0       0       0       0       0       0       0       0
  1441 ;;      Locals:         0       0       0       0       0       0       0       0       0       0
  1442 ;;      Temps:          0       0       0       0       0       0       0       0       0       0
  1443 ;;      Totals:         0       0       0       0       0       0       0       0       0       0
  1444 ;;Total ram usage:        0 bytes
  1445 ;; Hardware stack levels required when called:   14
  1446 ;; This function calls:
  1447 ;;		_APP_KeyboardTasks
  1448 ;;		_SYSTEM_Initialize
  1449 ;;		_USBDeviceAttach
  1450 ;;		_USBDeviceInit
  1451 ;; This function is called by:
  1452 ;;		Startup code after reset
  1453 ;; This function uses a non-reentrant model
  1454 ;;
  1455                           
  1456                           	psect	text0
  1457  002D50                     __ptext0:
  1458                           	opt callstack 0
  1459  002D50                     _main:
  1460                           	opt callstack 17
  1461                           
  1462                           ;main.c: 40:     SYSTEM_Initialize( SYSTEM_STATE_USB_START );
  1463                           
  1464                           ;incstack = 0
  1465  002D50  0E00               	movlw	0
  1466  002D52  EC53  F014         	call	_SYSTEM_Initialize
  1467                           
  1468                           ;main.c: 42:     USBDeviceInit();
  1469  002D56  ECC0  F00A         	call	_USBDeviceInit	;wreg free
  1470                           
  1471                           ;main.c: 43:     USBDeviceAttach();
  1472  002D5A  EC1B  F016         	call	_USBDeviceAttach	;wreg free
  1473  002D5E                     l6205:
  1474                           
  1475                           ;main.c: 46:     {;main.c: 65:         APP_KeyboardTasks();
  1476  002D5E  EC78  F004         	call	_APP_KeyboardTasks	;wreg free
  1477  002D62  D7FD               	goto	l6205
  1478  002D64                     __end_of_main:
  1479                           	opt callstack 0
  1480                           
  1481 ;; *************** function _USBDeviceInit *****************
  1482 ;; Defined at:
  1483 ;;		line 281 in file "usb/usb_device.c"
  1484 ;; Parameters:    Size  Location     Type
  1485 ;;		None
  1486 ;; Auto vars:     Size  Location     Type
  1487 ;;  i               1   12[BANK0 ] unsigned char 
  1488 ;; Return value:  Size  Location     Type
  1489 ;;                  1    wreg      void 
  1490 ;; Registers used:
  1491 ;;		wreg, fsr2l, fsr2h, status,2, status,0, prodl, prodh, cstack
  1492 ;; Tracked objects:
  1493 ;;		On entry : 0/0
  1494 ;;		On exit  : 0/0
  1495 ;;		Unchanged: 0/0
  1496 ;; Data sizes:     COMRAM   BANK0   BANK1   BANK2   BANK3   BANK4  BANK5h  BANK5l   BANK6   BANK7
  1497 ;;      Params:         0       0       0       0       0       0       0       0       0       0
  1498 ;;      Locals:         0       1       0       0       0       0       0       0       0       0
  1499 ;;      Temps:          0       0       0       0       0       0       0       0       0       0
  1500 ;;      Totals:         0       1       0       0       0       0       0       0       0       0
  1501 ;;Total ram usage:        1 bytes
  1502 ;; Hardware stack levels used:    1
  1503 ;; Hardware stack levels required when called:   11
  1504 ;; This function calls:
  1505 ;;		_memset
  1506 ;; This function is called by:
  1507 ;;		_main
  1508 ;; This function uses a non-reentrant model
  1509 ;;
  1510                           
  1511                           	psect	text1
  1512  001580                     __ptext1:
  1513                           	opt callstack 0
  1514  001580                     _USBDeviceInit:
  1515                           	opt callstack 19
  1516                           
  1517                           ;usb/usb_device.c: 283:     uint8_t i;;usb/usb_device.c: 285:     {PIE3bits.USBIE = 0;};
  1518                           
  1519                           ;incstack = 0
  1520  001580  94A3               	bcf	4003,2,c	;volatile
  1521                           
  1522                           ;usb/usb_device.c: 292:     {UEIR = 0;};
  1523  001582  0E00               	movlw	0
  1524  001584  6E67               	movwf	3943,c	;volatile
  1525                           
  1526                           ;usb/usb_device.c: 295:     {UIR = 0;};
  1527  001586  0E00               	movlw	0
  1528  001588  6E65               	movwf	3941,c	;volatile
  1529                           
  1530                           ;usb/usb_device.c: 298:     UEP0 = 0;
  1531  00158A  0E00               	movlw	0
  1532  00158C  6E6A               	movwf	3946,c	;volatile
  1533                           
  1534                           ;usb/usb_device.c: 300:     memset((void*)&UEP1,0x00,(2));;
  1535  00158E  0E6B               	movlw	107
  1536  001590  0100               	movlb	0	; () banked
  1537  001592  6FD5               	movwf	memset@dest& (0+255),b
  1538  001594  0E0F               	movlw	15
  1539  001596  6FD6               	movwf	(memset@dest+1)& (0+255),b
  1540  001598  0E00               	movlw	0
  1541  00159A  6FD8               	movwf	(memset@c+1)& (0+255),b
  1542  00159C  0E00               	movlw	0
  1543  00159E  6FD7               	movwf	memset@c& (0+255),b
  1544  0015A0  0E00               	movlw	0
  1545  0015A2  6FDA               	movwf	(memset@n+1)& (0+255),b
  1546  0015A4  0E02               	movlw	2
  1547  0015A6  6FD9               	movwf	memset@n& (0+255),b
  1548  0015A8  ECF5  F008         	call	_memset	;wreg free
  1549                           
  1550                           ;usb/usb_device.c: 302:     { UCFG = 0x10 | 0x00 | 0x00 | 0x02; UEIE = 0x9F; UIE = 0x39 
      +                          | 0x40 | 0x02; };
  1551  0015AC  0E12               	movlw	18
  1552  0015AE  6E62               	movwf	3938,c	;volatile
  1553  0015B0  0E9F               	movlw	159
  1554  0015B2  6E66               	movwf	3942,c	;volatile
  1555  0015B4  0E7B               	movlw	123
  1556  0015B6  6E64               	movwf	3940,c	;volatile
  1557                           
  1558                           ;usb/usb_device.c: 311:     for(i = 0; i < (sizeof(BDT)/sizeof(BDT_ENTRY)); i++)
  1559  0015B8  0E00               	movlw	0
  1560  0015BA  0100               	movlb	0	; () banked
  1561  0015BC  6FE1               	movwf	USBDeviceInit@i& (0+255),b
  1562  0015BE                     l5951:
  1563                           
  1564                           ; BSR set to: 0
  1565                           ;usb/usb_device.c: 312:     {;usb/usb_device.c: 313:         BDT[i].Val = 0x00;
  1566  0015BE  51E1               	movf	USBDeviceInit@i& (0+255),w,b
  1567  0015C0  0D04               	mullw	4
  1568  0015C2  0E00               	movlw	0
  1569  0015C4  24F3               	addwf	prodl,w,c
  1570  0015C6  6ED9               	movwf	fsr2l,c
  1571  0015C8  0E04               	movlw	4
  1572  0015CA  20F4               	addwfc	prodh,w,c
  1573  0015CC  6EDA               	movwf	fsr2h,c
  1574  0015CE  6ADE               	clrf	postinc2,c
  1575  0015D0  6ADE               	clrf	postinc2,c
  1576  0015D2  6ADE               	clrf	postinc2,c
  1577  0015D4  6ADD               	clrf	postdec2,c
  1578                           
  1579                           ; BSR set to: 0
  1580                           ;usb/usb_device.c: 314:     }
  1581  0015D6  2BE1               	incf	USBDeviceInit@i& (0+255),f,b
  1582                           
  1583                           ; BSR set to: 0
  1584  0015D8  0E0B               	movlw	11
  1585  0015DA  65E1               	cpfsgt	USBDeviceInit@i& (0+255),b
  1586  0015DC  D7F0               	goto	l5951
  1587                           
  1588                           ; BSR set to: 0
  1589                           ;usb/usb_device.c: 317:     UCONbits.PPBRST = 1;
  1590  0015DE  8C60               	bsf	3936,6,c	;volatile
  1591                           
  1592                           ; BSR set to: 0
  1593                           ;usb/usb_device.c: 320:     UADDR = 0x00;
  1594  0015E0  0E00               	movlw	0
  1595  0015E2  6E63               	movwf	3939,c	;volatile
  1596                           
  1597                           ; BSR set to: 0
  1598                           ;usb/usb_device.c: 323:     UCONbits.PKTDIS = 0;
  1599  0015E4  9860               	bcf	3936,4,c	;volatile
  1600                           
  1601                           ; BSR set to: 0
  1602                           ;usb/usb_device.c: 326:     UCONbits.PPBRST = 0;
  1603  0015E6  9C60               	bcf	3936,6,c	;volatile
  1604  0015E8                     l5963:
  1605                           
  1606                           ; BSR set to: 0
  1607                           ;usb/usb_device.c: 330:     {;usb/usb_device.c: 331:         (UIR &= 0xF7);
  1608  0015E8  9665               	bcf	3941,3,c	;volatile
  1609                           
  1610                           ; BSR set to: 0
  1611                           ;usb/usb_device.c: 333:         inPipes[0].info.Val = 0;
  1612  0015EA  0E00               	movlw	0
  1613  0015EC  6FAB               	movwf	(_inPipes+3)& (0+255),b	;volatile
  1614                           
  1615                           ; BSR set to: 0
  1616                           ;usb/usb_device.c: 334:         outPipes[0].info.Val = 0;
  1617  0015EE  0E00               	movlw	0
  1618  0015F0  6FA3               	movwf	(_outPipes+3)& (0+255),b	;volatile
  1619                           
  1620                           ; BSR set to: 0
  1621                           ;usb/usb_device.c: 335:         outPipes[0].wCount.Val = 0;
  1622  0015F2  0E00               	movlw	0
  1623  0015F4  6FA5               	movwf	(_outPipes+5)& (0+255),b	;volatile
  1624  0015F6  0E00               	movlw	0
  1625  0015F8  6FA4               	movwf	(_outPipes+4)& (0+255),b	;volatile
  1626                           
  1627                           ; BSR set to: 0
  1628                           ;usb/usb_device.c: 336:     }while(UIRbits.TRNIF == 1);
  1629  0015FA  B665               	btfsc	3941,3,c	;volatile
  1630  0015FC  D7F5               	goto	l5963
  1631                           
  1632                           ; BSR set to: 0
  1633                           ;usb/usb_device.c: 340:     USBStatusStageEnabledFlag1 = 1;
  1634  0015FE  0E01               	movlw	1
  1635  001600  6E1C               	movwf	_USBStatusStageEnabledFlag1,c	;volatile
  1636                           
  1637                           ;usb/usb_device.c: 341:     USBStatusStageEnabledFlag2 = 1;
  1638  001602  0E01               	movlw	1
  1639  001604  6E1B               	movwf	_USBStatusStageEnabledFlag2,c	;volatile
  1640                           
  1641                           ;usb/usb_device.c: 343:     USBDeferINDataStagePackets = 0;
  1642  001606  0E00               	movlw	0
  1643  001608  6E1A               	movwf	_USBDeferINDataStagePackets,c	;volatile
  1644                           
  1645                           ;usb/usb_device.c: 344:     USBDeferOUTDataStagePackets = 0;
  1646  00160A  0E00               	movlw	0
  1647  00160C  6E19               	movwf	_USBDeferOUTDataStagePackets,c	;volatile
  1648                           
  1649                           ;usb/usb_device.c: 345:     USBBusIsSuspended = 0;
  1650  00160E  0E00               	movlw	0
  1651  001610  6E21               	movwf	_USBBusIsSuspended,c	;volatile
  1652                           
  1653                           ;usb/usb_device.c: 349:     for(i = 0; i < (uint8_t)(2 +1u); i++)
  1654  001612  0E00               	movlw	0
  1655  001614  6FE1               	movwf	USBDeviceInit@i& (0+255),b
  1656  001616                     l5979:
  1657                           
  1658                           ; BSR set to: 0
  1659                           ;usb/usb_device.c: 350:     {;usb/usb_device.c: 351:         pBDTEntryIn[i] = 0u;
  1660  001616  51E1               	movf	USBDeviceInit@i& (0+255),w,b
  1661  001618  0D02               	mullw	2
  1662  00161A  0EAE               	movlw	low _pBDTEntryIn
  1663  00161C  24F3               	addwf	prodl,w,c
  1664  00161E  6ED9               	movwf	fsr2l,c
  1665  001620  0E00               	movlw	high _pBDTEntryIn
  1666  001622  20F4               	addwfc	prodh,w,c
  1667  001624  6EDA               	movwf	fsr2h,c
  1668  001626  0E00               	movlw	0
  1669  001628  6EDE               	movwf	postinc2,c
  1670  00162A  0E00               	movlw	0
  1671  00162C  6EDD               	movwf	postdec2,c
  1672                           
  1673                           ;usb/usb_device.c: 352:         pBDTEntryOut[i] = 0u;
  1674  00162E  51E1               	movf	USBDeviceInit@i& (0+255),w,b
  1675  001630  0D02               	mullw	2
  1676  001632  0EB4               	movlw	low _pBDTEntryOut
  1677  001634  24F3               	addwf	prodl,w,c
  1678  001636  6ED9               	movwf	fsr2l,c
  1679  001638  0E00               	movlw	high _pBDTEntryOut
  1680  00163A  20F4               	addwfc	prodh,w,c
  1681  00163C  6EDA               	movwf	fsr2h,c
  1682  00163E  0E00               	movlw	0
  1683  001640  6EDE               	movwf	postinc2,c
  1684  001642  0E00               	movlw	0
  1685  001644  6EDD               	movwf	postdec2,c
  1686                           
  1687                           ; BSR set to: 0
  1688                           ;usb/usb_device.c: 353:         ep_data_in[i].Val = 0u;
  1689  001646  0ECA               	movlw	low _ep_data_in
  1690  001648  25E1               	addwf	USBDeviceInit@i& (0+255),w,b
  1691  00164A  6ED9               	movwf	fsr2l,c
  1692  00164C  6ADA               	clrf	fsr2h,c
  1693  00164E  0E00               	movlw	high _ep_data_in
  1694  001650  22DA               	addwfc	fsr2h,f,c
  1695  001652  0E00               	movlw	0
  1696  001654  6EDF               	movwf	indf2,c
  1697                           
  1698                           ; BSR set to: 0
  1699                           ;usb/usb_device.c: 354:         ep_data_out[i].Val = 0u;
  1700  001656  0EC7               	movlw	low _ep_data_out
  1701  001658  25E1               	addwf	USBDeviceInit@i& (0+255),w,b
  1702  00165A  6ED9               	movwf	fsr2l,c
  1703  00165C  6ADA               	clrf	fsr2h,c
  1704  00165E  0E00               	movlw	high _ep_data_out
  1705  001660  22DA               	addwfc	fsr2h,f,c
  1706  001662  0E00               	movlw	0
  1707  001664  6EDF               	movwf	indf2,c
  1708                           
  1709                           ; BSR set to: 0
  1710                           ;usb/usb_device.c: 355:     }
  1711  001666  2BE1               	incf	USBDeviceInit@i& (0+255),f,b
  1712                           
  1713                           ; BSR set to: 0
  1714  001668  0E02               	movlw	2
  1715  00166A  65E1               	cpfsgt	USBDeviceInit@i& (0+255),b
  1716  00166C  D7D4               	goto	l5979
  1717                           
  1718                           ; BSR set to: 0
  1719                           ;usb/usb_device.c: 358:     pBDTEntryIn[0] = (volatile BDT_ENTRY*)&BDT[2];
  1720  00166E  0E08               	movlw	8
  1721  001670  6FAE               	movwf	_pBDTEntryIn& (0+255),b
  1722  001672  0E04               	movlw	4
  1723  001674  6FAF               	movwf	(_pBDTEntryIn+1)& (0+255),b
  1724                           
  1725                           ; BSR set to: 0
  1726                           ;usb/usb_device.c: 360:     UEP0 = 0x06|0x10;
  1727  001676  0E16               	movlw	22
  1728  001678  6E6A               	movwf	3946,c	;volatile
  1729                           
  1730                           ; BSR set to: 0
  1731                           ;usb/usb_device.c: 362:     BDT[0].ADR = ((uint16_t)(&SetupPkt));
  1732  00167A  0E04               	movlw	4
  1733  00167C  0104               	movlb	4	; () banked
  1734  00167E  6F03               	movwf	3,b	;volatile
  1735  001680  0E30               	movlw	48
  1736  001682  6F02               	movwf	2,b	;volatile
  1737                           
  1738                           ; BSR set to: 4
  1739                           ;usb/usb_device.c: 363:     BDT[0].CNT = 8;
  1740  001684  0E08               	movlw	8
  1741  001686  6F01               	movwf	1,b	;volatile
  1742                           
  1743                           ; BSR set to: 4
  1744                           ;usb/usb_device.c: 364:     BDT[0].STAT.Val = 0x00|0x04;
  1745  001688  0E04               	movlw	4
  1746  00168A  6F00               	movwf	0,b	;volatile
  1747                           
  1748                           ; BSR set to: 4
  1749                           ;usb/usb_device.c: 365:     BDT[0].STAT.Val |= 0x80;
  1750  00168C  8F00               	bsf	0,7,b	;volatile
  1751                           
  1752                           ; BSR set to: 4
  1753                           ;usb/usb_device.c: 368:     USBActiveConfiguration = 0;
  1754  00168E  0E00               	movlw	0
  1755  001690  6E2B               	movwf	_USBActiveConfiguration,c	;volatile
  1756                           
  1757                           ; BSR set to: 4
  1758                           ;usb/usb_device.c: 370:     USB1msTickCount = 0;
  1759  001692  0E00               	movlw	0
  1760  001694  6E01               	movwf	_USB1msTickCount,c	;volatile
  1761  001696  0E00               	movlw	0
  1762  001698  6E02               	movwf	_USB1msTickCount+1,c	;volatile
  1763  00169A  0E00               	movlw	0
  1764  00169C  6E03               	movwf	_USB1msTickCount+2,c	;volatile
  1765  00169E  0E00               	movlw	0
  1766  0016A0  6E04               	movwf	_USB1msTickCount+3,c	;volatile
  1767                           
  1768                           ; BSR set to: 4
  1769                           ;usb/usb_device.c: 371:     USBTicksSinceSuspendEnd = 0;
  1770  0016A2  0E00               	movlw	0
  1771  0016A4  6E18               	movwf	_USBTicksSinceSuspendEnd,c	;volatile
  1772                           
  1773                           ; BSR set to: 4
  1774                           ;usb/usb_device.c: 374:     USBDeviceState = DETACHED_STATE;
  1775  0016A6  0E00               	movlw	0
  1776  0016A8  6E25               	movwf	_USBDeviceState,c	;volatile
  1777                           
  1778                           ; BSR set to: 4
  1779  0016AA  0012               	return		;funcret
  1780  0016AC                     __end_of_USBDeviceInit:
  1781                           	opt callstack 0
  1782                           
  1783 ;; *************** function _USBDeviceAttach *****************
  1784 ;; Defined at:
  1785 ;;		line 1356 in file "usb/usb_device.c"
  1786 ;; Parameters:    Size  Location     Type
  1787 ;;		None
  1788 ;; Auto vars:     Size  Location     Type
  1789 ;;		None
  1790 ;; Return value:  Size  Location     Type
  1791 ;;                  1    wreg      void 
  1792 ;; Registers used:
  1793 ;;		wreg, status,2
  1794 ;; Tracked objects:
  1795 ;;		On entry : 0/0
  1796 ;;		On exit  : 0/0
  1797 ;;		Unchanged: 0/0
  1798 ;; Data sizes:     COMRAM   BANK0   BANK1   BANK2   BANK3   BANK4  BANK5h  BANK5l   BANK6   BANK7
  1799 ;;      Params:         0       0       0       0       0       0       0       0       0       0
  1800 ;;      Locals:         0       0       0       0       0       0       0       0       0       0
  1801 ;;      Temps:          0       0       0       0       0       0       0       0       0       0
  1802 ;;      Totals:         0       0       0       0       0       0       0       0       0       0
  1803 ;;Total ram usage:        0 bytes
  1804 ;; Hardware stack levels used:    1
  1805 ;; Hardware stack levels required when called:   10
  1806 ;; This function calls:
  1807 ;;		Nothing
  1808 ;; This function is called by:
  1809 ;;		_main
  1810 ;; This function uses a non-reentrant model
  1811 ;;
  1812                           
  1813                           	psect	text2
  1814  002C36                     __ptext2:
  1815                           	opt callstack 0
  1816  002C36                     _USBDeviceAttach:
  1817                           	opt callstack 20
  1818                           
  1819                           ;usb/usb_device.c: 1360:     {;usb/usb_device.c: 1361:         if(1 == 1)
  1820                           
  1821                           ; BSR set to: 4
  1822                           ;incstack = 0
  1823  002C36  5025               	movf	_USBDeviceState,w,c	;volatile
  1824  002C38  A4D8               	btfss	status,2,c
  1825  002C3A  0012               	return	
  1826                           
  1827                           ;usb/usb_device.c: 1362:         {;usb/usb_device.c: 1364:             UCON = 0;
  1828  002C3C  0E00               	movlw	0
  1829  002C3E  6E60               	movwf	3936,c	;volatile
  1830                           
  1831                           ;usb/usb_device.c: 1367:             UIE = 0;
  1832  002C40  0E00               	movlw	0
  1833  002C42  6E64               	movwf	3940,c	;volatile
  1834                           
  1835                           ;usb/usb_device.c: 1371:             { UCFG = 0x10 | 0x00 | 0x00 | 0x02; UEIE = 0x9F; UI
      +                          E = 0x39 | 0x40 | 0x02; };
  1836  002C44  0E12               	movlw	18
  1837  002C46  6E62               	movwf	3938,c	;volatile
  1838  002C48  0E9F               	movlw	159
  1839  002C4A  6E66               	movwf	3942,c	;volatile
  1840  002C4C  0E7B               	movlw	123
  1841  002C4E  6E64               	movwf	3940,c	;volatile
  1842                           
  1843                           ;usb/usb_device.c: 1373:             {RCONbits.IPEN = 1;IPR3bits.USBIP = 1;PIE3bits.USBI
      +                          E = 1;INTCONbits.GIEH = 1;};
  1844  002C50  8ED0               	bsf	4048,7,c	;volatile
  1845  002C52  84A5               	bsf	4005,2,c	;volatile
  1846  002C54  84A3               	bsf	4003,2,c	;volatile
  1847  002C56  8EF2               	bsf	4082,7,c	;volatile
  1848                           
  1849                           ;usb/usb_device.c: 1376:             while(!UCONbits.USBEN){UCONbits.USBEN = 1;}
  1850  002C58  D001               	goto	l230
  1851  002C5A                     l231:
  1852  002C5A  8660               	bsf	3936,3,c	;volatile
  1853  002C5C                     l230:
  1854  002C5C  A660               	btfss	3936,3,c	;volatile
  1855  002C5E  D7FD               	goto	l231
  1856                           
  1857                           ;usb/usb_device.c: 1379:             USBDeviceState = ATTACHED_STATE;
  1858  002C60  0E01               	movlw	1
  1859  002C62  6E25               	movwf	_USBDeviceState,c	;volatile
  1860  002C64  0012               	return		;funcret
  1861  002C66                     __end_of_USBDeviceAttach:
  1862                           	opt callstack 0
  1863                           
  1864 ;; *************** function _SYSTEM_Initialize *****************
  1865 ;; Defined at:
  1866 ;;		line 80 in file "system.c"
  1867 ;; Parameters:    Size  Location     Type
  1868 ;;  state           1    wreg     enum E5059
  1869 ;; Auto vars:     Size  Location     Type
  1870 ;;  state           1    5[BANK0 ] enum E5059
  1871 ;; Return value:  Size  Location     Type
  1872 ;;                  1    wreg      void 
  1873 ;; Registers used:
  1874 ;;		wreg, status,2, status,0, cstack
  1875 ;; Tracked objects:
  1876 ;;		On entry : 0/0
  1877 ;;		On exit  : 0/0
  1878 ;;		Unchanged: 0/0
  1879 ;; Data sizes:     COMRAM   BANK0   BANK1   BANK2   BANK3   BANK4  BANK5h  BANK5l   BANK6   BANK7
  1880 ;;      Params:         0       0       0       0       0       0       0       0       0       0
  1881 ;;      Locals:         0       1       0       0       0       0       0       0       0       0
  1882 ;;      Temps:          0       2       0       0       0       0       0       0       0       0
  1883 ;;      Totals:         0       3       0       0       0       0       0       0       0       0
  1884 ;;Total ram usage:        3 bytes
  1885 ;; Hardware stack levels used:    1
  1886 ;; Hardware stack levels required when called:   11
  1887 ;; This function calls:
  1888 ;;		_BUTTON_Enable
  1889 ;;		_LED_Enable
  1890 ;; This function is called by:
  1891 ;;		_main
  1892 ;; This function uses a non-reentrant model
  1893 ;;
  1894                           
  1895                           	psect	text3
  1896  0028A6                     __ptext3:
  1897                           	opt callstack 0
  1898  0028A6                     _SYSTEM_Initialize:
  1899                           	opt callstack 19
  1900                           
  1901                           ;incstack = 0
  1902                           ;SYSTEM_Initialize@state stored from wreg
  1903  0028A6  0100               	movlb	0	; () banked
  1904  0028A8  6FDA               	movwf	SYSTEM_Initialize@state& (0+255),b
  1905                           
  1906                           ;system.c: 80: void SYSTEM_Initialize( SYSTEM_STATE state );system.c: 81: {;system.c: 82
      +                          :     switch(state)
  1907  0028AA  D016               	goto	l5925
  1908  0028AC                     l5911:
  1909                           
  1910                           ; BSR set to: 0
  1911                           ;system.c: 89:                 OSCTUNE = 0x80;
  1912  0028AC  0E80               	movlw	128
  1913  0028AE  6E9B               	movwf	3995,c	;volatile
  1914                           
  1915                           ;system.c: 90:                 OSCCON = 0x60;
  1916  0028B0  0E60               	movlw	96
  1917  0028B2  6ED3               	movwf	4051,c	;volatile
  1918                           
  1919                           ;system.c: 91:                 OSCCON2 = 0x10;
  1920  0028B4  0E10               	movlw	16
  1921  0028B6  6ED2               	movwf	4050,c	;volatile
  1922  0028B8                     l516:
  1923  0028B8  AED2               	btfss	4050,7,c	;volatile
  1924  0028BA  D7FE               	goto	l516
  1925                           
  1926                           ;system.c: 93:                 ACTCON = 0x90;
  1927  0028BC  0E90               	movlw	144
  1928  0028BE  6EB5               	movwf	4021,c	;volatile
  1929                           
  1930                           ;system.c: 97:             LED_Enable(LED_E1);
  1931  0028C0  0E01               	movlw	1
  1932  0028C2  ECA5  F014         	call	_LED_Enable
  1933                           
  1934                           ;system.c: 98:             LED_Enable(LED_E2);
  1935  0028C6  0E02               	movlw	2
  1936  0028C8  ECA5  F014         	call	_LED_Enable
  1937                           
  1938                           ;system.c: 99:             LED_Enable(LED_E3);
  1939  0028CC  0E03               	movlw	3
  1940  0028CE  ECA5  F014         	call	_LED_Enable
  1941                           
  1942                           ;system.c: 101:             BUTTON_Enable();
  1943  0028D2  EC33  F016         	call	_BUTTON_Enable	;wreg free
  1944                           
  1945                           ;system.c: 102:             break;
  1946  0028D6  0012               	return	
  1947  0028D8                     l5925:
  1948  0028D8  0100               	movlb	0	; () banked
  1949  0028DA  51DA               	movf	SYSTEM_Initialize@state& (0+255),w,b
  1950  0028DC  6FD8               	movwf	??_SYSTEM_Initialize& (0+255),b
  1951  0028DE  6BD9               	clrf	(??_SYSTEM_Initialize+1)& (0+255),b
  1952                           
  1953                           ; Switch on 2 bytes has been partitioned into a top level switch of size 1, and 1 sub-sw
      +                          itches
  1954                           ; Switch size 1, requested type "simple"
  1955                           ; Number of cases is 1, Range of values is 0 to 0
  1956                           ; switch strategies available:
  1957                           ; Name         Instructions Cycles
  1958                           ; simple_byte            4     3 (average)
  1959                           ;	Chosen strategy is simple_byte
  1960  0028E0  51D9               	movf	(??_SYSTEM_Initialize+1)& (0+255),w,b
  1961  0028E2  0A00               	xorlw	0	; case 0
  1962  0028E4  A4D8               	btfss	status,2,c
  1963  0028E6  0012               	return	
  1964                           
  1965                           ; BSR set to: 0
  1966                           ; Switch size 1, requested type "simple"
  1967                           ; Number of cases is 3, Range of values is 0 to 2
  1968                           ; switch strategies available:
  1969                           ; Name         Instructions Cycles
  1970                           ; simple_byte           10     6 (average)
  1971                           ;	Chosen strategy is simple_byte
  1972  0028E8  51D8               	movf	??_SYSTEM_Initialize& (0+255),w,b
  1973  0028EA  0A00               	xorlw	0	; case 0
  1974  0028EC  B4D8               	btfsc	status,2,c
  1975  0028EE  D7DE               	goto	l5911
  1976  0028F0  0A01               	xorlw	1	; case 1
  1977  0028F2  B4D8               	btfsc	status,2,c
  1978  0028F4  0012               	return	
  1979  0028F6  0A03               	xorlw	3	; case 2
  1980  0028F8  0012               	return	
  1981  0028FA                     __end_of_SYSTEM_Initialize:
  1982                           	opt callstack 0
  1983                           
  1984 ;; *************** function _LED_Enable *****************
  1985 ;; Defined at:
  1986 ;;		line 216 in file "leds.c"
  1987 ;; Parameters:    Size  Location     Type
  1988 ;;  led             1    wreg     enum E2
  1989 ;; Auto vars:     Size  Location     Type
  1990 ;;  led             1    2[BANK0 ] enum E2
  1991 ;; Return value:  Size  Location     Type
  1992 ;;                  1    wreg      void 
  1993 ;; Registers used:
  1994 ;;		wreg, status,2, status,0
  1995 ;; Tracked objects:
  1996 ;;		On entry : 0/0
  1997 ;;		On exit  : 0/0
  1998 ;;		Unchanged: 0/0
  1999 ;; Data sizes:     COMRAM   BANK0   BANK1   BANK2   BANK3   BANK4  BANK5h  BANK5l   BANK6   BANK7
  2000 ;;      Params:         0       0       0       0       0       0       0       0       0       0
  2001 ;;      Locals:         0       1       0       0       0       0       0       0       0       0
  2002 ;;      Temps:          0       2       0       0       0       0       0       0       0       0
  2003 ;;      Totals:         0       3       0       0       0       0       0       0       0       0
  2004 ;;Total ram usage:        3 bytes
  2005 ;; Hardware stack levels used:    1
  2006 ;; Hardware stack levels required when called:   10
  2007 ;; This function calls:
  2008 ;;		Nothing
  2009 ;; This function is called by:
  2010 ;;		_SYSTEM_Initialize
  2011 ;; This function uses a non-reentrant model
  2012 ;;
  2013                           
  2014                           	psect	text4
  2015  00294A                     __ptext4:
  2016                           	opt callstack 0
  2017  00294A                     _LED_Enable:
  2018                           	opt callstack 19
  2019                           
  2020                           ;incstack = 0
  2021                           ;LED_Enable@led stored from wreg
  2022  00294A  0100               	movlb	0	; () banked
  2023  00294C  6FD7               	movwf	LED_Enable@led& (0+255),b
  2024                           
  2025                           ;leds.c: 216: void LED_Enable(LED led);leds.c: 217: {;leds.c: 218:     switch(led)
  2026  00294E  D00C               	goto	l5827
  2027  002950                     l830:
  2028                           
  2029                           ; BSR set to: 0
  2030                           ;leds.c: 221:             TRISEbits.TRISE0 = 0;
  2031  002950  9096               	bcf	3990,0,c	;volatile
  2032                           
  2033                           ;leds.c: 222:             ANSELEbits.ANSE0 = 0;
  2034  002952  010F               	movlb	15	; () banked
  2035  002954  915F               	bcf	95,0,b	;volatile
  2036                           
  2037                           ;leds.c: 223:             break;
  2038  002956  0012               	return	
  2039  002958                     l832:
  2040                           
  2041                           ; BSR set to: 0
  2042                           ;leds.c: 226:             TRISEbits.TRISE1 = 0;
  2043  002958  9296               	bcf	3990,1,c	;volatile
  2044                           
  2045                           ;leds.c: 227:             ANSELEbits.ANSE0 = 0;
  2046  00295A  010F               	movlb	15	; () banked
  2047  00295C  915F               	bcf	95,0,b	;volatile
  2048                           
  2049                           ;leds.c: 228:             break;
  2050  00295E  0012               	return	
  2051  002960                     l833:
  2052                           
  2053                           ; BSR set to: 0
  2054                           ;leds.c: 231:             TRISEbits.TRISE2 = 0;
  2055  002960  9496               	bcf	3990,2,c	;volatile
  2056                           
  2057                           ;leds.c: 232:             ANSELEbits.ANSE0 = 0;
  2058  002962  010F               	movlb	15	; () banked
  2059  002964  915F               	bcf	95,0,b	;volatile
  2060                           
  2061                           ;leds.c: 233:             break;
  2062  002966  0012               	return	
  2063  002968                     l5827:
  2064  002968  0100               	movlb	0	; () banked
  2065  00296A  51D7               	movf	LED_Enable@led& (0+255),w,b
  2066  00296C  6FD5               	movwf	??_LED_Enable& (0+255),b
  2067  00296E  6BD6               	clrf	(??_LED_Enable+1)& (0+255),b
  2068                           
  2069                           ; Switch on 2 bytes has been partitioned into a top level switch of size 1, and 1 sub-sw
      +                          itches
  2070                           ; Switch size 1, requested type "simple"
  2071                           ; Number of cases is 1, Range of values is 0 to 0
  2072                           ; switch strategies available:
  2073                           ; Name         Instructions Cycles
  2074                           ; simple_byte            4     3 (average)
  2075                           ;	Chosen strategy is simple_byte
  2076  002970  51D6               	movf	(??_LED_Enable+1)& (0+255),w,b
  2077  002972  0A00               	xorlw	0	; case 0
  2078  002974  A4D8               	btfss	status,2,c
  2079  002976  0012               	return	
  2080                           
  2081                           ; BSR set to: 0
  2082                           ; Switch size 1, requested type "simple"
  2083                           ; Number of cases is 4, Range of values is 0 to 3
  2084                           ; switch strategies available:
  2085                           ; Name         Instructions Cycles
  2086                           ; simple_byte           13     7 (average)
  2087                           ;	Chosen strategy is simple_byte
  2088  002978  51D5               	movf	??_LED_Enable& (0+255),w,b
  2089  00297A  0A00               	xorlw	0	; case 0
  2090  00297C  B4D8               	btfsc	status,2,c
  2091  00297E  0012               	return	
  2092  002980  0A01               	xorlw	1	; case 1
  2093  002982  B4D8               	btfsc	status,2,c
  2094  002984  D7E5               	goto	l830
  2095  002986  0A03               	xorlw	3	; case 2
  2096  002988  B4D8               	btfsc	status,2,c
  2097  00298A  D7E6               	goto	l832
  2098  00298C  0A01               	xorlw	1	; case 3
  2099  00298E  A4D8               	btfss	status,2,c
  2100  002990  0012               	return	
  2101  002992  D7E6               	goto	l833
  2102  002994                     __end_of_LED_Enable:
  2103                           	opt callstack 0
  2104                           
  2105 ;; *************** function _BUTTON_Enable *****************
  2106 ;; Defined at:
  2107 ;;		line 96 in file "buttons.c"
  2108 ;; Parameters:    Size  Location     Type
  2109 ;;		None
  2110 ;; Auto vars:     Size  Location     Type
  2111 ;;		None
  2112 ;; Return value:  Size  Location     Type
  2113 ;;                  2  509[None  ] int 
  2114 ;; Registers used:
  2115 ;;		wreg, status,2
  2116 ;; Tracked objects:
  2117 ;;		On entry : 0/0
  2118 ;;		On exit  : 0/0
  2119 ;;		Unchanged: 0/0
  2120 ;; Data sizes:     COMRAM   BANK0   BANK1   BANK2   BANK3   BANK4  BANK5h  BANK5l   BANK6   BANK7
  2121 ;;      Params:         0       0       0       0       0       0       0       0       0       0
  2122 ;;      Locals:         0       0       0       0       0       0       0       0       0       0
  2123 ;;      Temps:          0       0       0       0       0       0       0       0       0       0
  2124 ;;      Totals:         0       0       0       0       0       0       0       0       0       0
  2125 ;;Total ram usage:        0 bytes
  2126 ;; Hardware stack levels used:    1
  2127 ;; Hardware stack levels required when called:   10
  2128 ;; This function calls:
  2129 ;;		Nothing
  2130 ;; This function is called by:
  2131 ;;		_SYSTEM_Initialize
  2132 ;; This function uses a non-reentrant model
  2133 ;;
  2134                           
  2135                           	psect	text5
  2136  002C66                     __ptext5:
  2137                           	opt callstack 0
  2138  002C66                     _BUTTON_Enable:
  2139                           	opt callstack 19
  2140                           
  2141                           ;buttons.c: 99:     ANSELB = 0b00000000;
  2142                           
  2143                           ;incstack = 0
  2144  002C66  0E00               	movlw	0
  2145  002C68  010F               	movlb	15	; () banked
  2146  002C6A  6F5C               	movwf	92,b	;volatile
  2147                           
  2148                           ;buttons.c: 100:     ANSELC = 0b00000000;
  2149  002C6C  0E00               	movlw	0
  2150  002C6E  6F5D               	movwf	93,b	;volatile
  2151                           
  2152                           ;buttons.c: 101:     ANSELD = 0b00000000;
  2153  002C70  0E00               	movlw	0
  2154  002C72  6F5E               	movwf	94,b	;volatile
  2155                           
  2156                           ;buttons.c: 102:     ANSELA = 0b00000000;
  2157  002C74  0E00               	movlw	0
  2158  002C76  6F5B               	movwf	91,b	;volatile
  2159                           
  2160                           ;buttons.c: 104:     TRISB = 0b00000000;
  2161  002C78  0E00               	movlw	0
  2162  002C7A  6E93               	movwf	3987,c	;volatile
  2163                           
  2164                           ;buttons.c: 105:     TRISC = 0b00000000;
  2165  002C7C  0E00               	movlw	0
  2166  002C7E  6E94               	movwf	3988,c	;volatile
  2167                           
  2168                           ;buttons.c: 106:     TRISD = 0b00000000;
  2169  002C80  0E00               	movlw	0
  2170  002C82  6E95               	movwf	3989,c	;volatile
  2171                           
  2172                           ; BSR set to: 15
  2173                           ;buttons.c: 108:     TRISA = 0b11111111;
  2174  002C84  6892               	setf	3986,c	;volatile
  2175                           
  2176                           ;buttons.c: 110:     LATB = 0b00000000;
  2177  002C86  0E00               	movlw	0
  2178  002C88  6E8A               	movwf	3978,c	;volatile
  2179                           
  2180                           ;buttons.c: 111:     LATC = 0b00000000;
  2181  002C8A  0E00               	movlw	0
  2182  002C8C  6E8B               	movwf	3979,c	;volatile
  2183                           
  2184                           ;buttons.c: 112:     LATD = 0b00000000;
  2185  002C8E  0E00               	movlw	0
  2186  002C90  6E8C               	movwf	3980,c	;volatile
  2187                           
  2188                           ; BSR set to: 15
  2189  002C92  0012               	return		;funcret
  2190  002C94                     __end_of_BUTTON_Enable:
  2191                           	opt callstack 0
  2192                           
  2193 ;; *************** function _APP_KeyboardTasks *****************
  2194 ;; Defined at:
  2195 ;;		line 498 in file "device_keyboard.c"
  2196 ;; Parameters:    Size  Location     Type
  2197 ;;		None
  2198 ;; Auto vars:     Size  Location     Type
  2199 ;;  j               1   37[BANK0 ] unsigned char 
  2200 ;;  j               1   41[BANK0 ] unsigned char 
  2201 ;;  j               1   31[BANK0 ] unsigned char 
  2202 ;;  j               1   40[BANK0 ] unsigned char 
  2203 ;;  j               1   36[BANK0 ] unsigned char 
  2204 ;;  j               1   38[BANK0 ] unsigned char 
  2205 ;;  shd_send        1   29[BANK0 ] unsigned char 
  2206 ;;  j               1   35[BANK0 ] unsigned char 
  2207 ;;  j               1   34[BANK0 ] unsigned char 
  2208 ;;  5644            3   26[BANK0 ] struct keyStruct
  2209 ;;  5642            3   23[BANK0 ] struct keyStruct
  2210 ;;  5640            3   20[BANK0 ] struct keyStruct
  2211 ;;  TimeDeltaMil    2   32[BANK0 ] int 
  2212 ;;  i               1   39[BANK0 ] unsigned char 
  2213 ;;  needToSendNe    1   30[BANK0 ] _Bool 
  2214 ;; Return value:  Size  Location     Type
  2215 ;;                  1    wreg      void 
  2216 ;; Registers used:
  2217 ;;		wreg, fsr1l, fsr1h, fsr2l, fsr2h, status,2, status,0, prodl, prodh, cstack
  2218 ;; Tracked objects:
  2219 ;;		On entry : 0/0
  2220 ;;		On exit  : 0/0
  2221 ;;		Unchanged: 0/0
  2222 ;; Data sizes:     COMRAM   BANK0   BANK1   BANK2   BANK3   BANK4  BANK5h  BANK5l   BANK6   BANK7
  2223 ;;      Params:         0       0       0       0       0       0       0       0       0       0
  2224 ;;      Locals:         0      22       0       0       0       0       0       0       0       0
  2225 ;;      Temps:          0       2       0       0       0       0       0       0       0       0
  2226 ;;      Totals:         0      24       0       0       0       0       0       0       0       0
  2227 ;;Total ram usage:       24 bytes
  2228 ;; Hardware stack levels used:    1
  2229 ;; Hardware stack levels required when called:   13
  2230 ;; This function calls:
  2231 ;;		_KeyboardProcessOutputReport
  2232 ;;		_ProcessKeyboard
  2233 ;;		_USBTransferOnePacket
  2234 ;;		_memset
  2235 ;; This function is called by:
  2236 ;;		_main
  2237 ;; This function uses a non-reentrant model
  2238 ;;
  2239                           
  2240                           	psect	text6
  2241  0008F0                     __ptext6:
  2242                           	opt callstack 0
  2243  0008F0                     _APP_KeyboardTasks:
  2244                           	opt callstack 17
  2245                           
  2246                           ;device_keyboard.c: 631:     for(uint8_t j = 0;j < 8;j++){ ModKeyList[j] = (KeyStruct){.
      +                          keyCode = 0,.modifier = 0,.type = 0}; };device_keyboard.c: 632:     for(uint8_t j = 0;j 
      +                          < 8;j++){ CharKeyList[j] = (KeyStruct){.keyCode = 0,.modifier = 0,.type = 0}; };device_k
      +                          eyboard.c: 674:     for(uint8_t j = 0;j < sizeof(EP2KeyList);j++){ EP2KeyList[j] = (KeyS
      +                          truct){.keyCode = 0,.modifier = 0,.type = 0}; };device_keyboard.c: 500:     signed int T
      +                          imeDeltaMilliseconds;;device_keyboard.c: 501:     unsigned char i;;device_keyboard.c: 50
      +                          2:     _Bool needToSendNewReportPacket;
  2247                           
  2248                           ; BSR set to: 15
  2249                           ;incstack = 0
  2250  0008F0  0E20               	movlw	32
  2251  0008F2  6025               	cpfslt	_USBDeviceState,c	;volatile
  2252  0008F4  D001               	goto	l656
  2253  0008F6  0012               	return	
  2254  0008F8                     l656:
  2255                           
  2256                           ;device_keyboard.c: 516:     if( UCONbits.SUSPND== 1 )
  2257  0008F8  B260               	btfsc	3936,1,c	;volatile
  2258  0008FA  0012               	return	
  2259  0008FC  D004               	goto	l6029
  2260  0008FE                     l660:
  2261                           
  2262                           ; BSR set to: 0
  2263                           ;device_keyboard.c: 535:     {;device_keyboard.c: 536:         LocalSOFCount = SOFCounte
      +                          r;
  2264  0008FE  C00C  F0D1         	movff	_SOFCounter,_LocalSOFCount	;volatile
  2265  000902  C00D  F0D2         	movff	_SOFCounter+1,_LocalSOFCount+1	;volatile
  2266  000906                     l6029:
  2267                           
  2268                           ;device_keyboard.c: 534:     while(LocalSOFCount != SOFCounter)
  2269  000906  500C               	movf	_SOFCounter,w,c	;volatile
  2270  000908  0100               	movlb	0	; () banked
  2271  00090A  19D1               	xorwf	_LocalSOFCount& (0+255),w,b
  2272  00090C  E1F8               	bnz	l660
  2273  00090E  500D               	movf	_SOFCounter+1,w,c	;volatile
  2274  000910  19D2               	xorwf	(_LocalSOFCount+1)& (0+255),w,b
  2275  000912  A4D8               	btfss	status,2,c
  2276  000914  D7F4               	goto	l660
  2277                           
  2278                           ; BSR set to: 0
  2279                           ;device_keyboard.c: 540:     TimeDeltaMilliseconds = LocalSOFCount - OldSOFCount;
  2280  000916  500A               	movf	_OldSOFCount,w,c
  2281  000918  5DD1               	subwf	_LocalSOFCount& (0+255),w,b
  2282  00091A  6FF5               	movwf	APP_KeyboardTasks@TimeDeltaMilliseconds& (0+255),b
  2283  00091C  500B               	movf	_OldSOFCount+1,w,c
  2284  00091E  59D2               	subwfb	(_LocalSOFCount+1)& (0+255),w,b
  2285  000920  6FF6               	movwf	(APP_KeyboardTasks@TimeDeltaMilliseconds+1)& (0+255),b
  2286                           
  2287                           ;device_keyboard.c: 541:     if(TimeDeltaMilliseconds < 0)
  2288  000922  AFF6               	btfss	(APP_KeyboardTasks@TimeDeltaMilliseconds+1)& (0+255),7,b
  2289  000924  D00C               	goto	l662
  2290                           
  2291                           ; BSR set to: 0
  2292                           ;device_keyboard.c: 542:     {;device_keyboard.c: 543:         TimeDeltaMilliseconds = (
      +                          32767 - OldSOFCount) + LocalSOFCount;
  2293  000926  500A               	movf	_OldSOFCount,w,c
  2294  000928  5DD1               	subwf	_LocalSOFCount& (0+255),w,b
  2295  00092A  6FE7               	movwf	??_APP_KeyboardTasks& (0+255),b
  2296  00092C  500B               	movf	_OldSOFCount+1,w,c
  2297  00092E  59D2               	subwfb	(_LocalSOFCount+1)& (0+255),w,b
  2298  000930  6FE8               	movwf	(??_APP_KeyboardTasks+1)& (0+255),b
  2299  000932  0EFF               	movlw	255
  2300  000934  25E7               	addwf	??_APP_KeyboardTasks& (0+255),w,b
  2301  000936  6FF5               	movwf	APP_KeyboardTasks@TimeDeltaMilliseconds& (0+255),b
  2302  000938  0E7F               	movlw	127
  2303  00093A  21E8               	addwfc	(??_APP_KeyboardTasks+1)& (0+255),w,b
  2304  00093C  6FF6               	movwf	(APP_KeyboardTasks@TimeDeltaMilliseconds+1)& (0+255),b
  2305  00093E                     l662:
  2306                           
  2307                           ; BSR set to: 0
  2308                           ;device_keyboard.c: 546:     if(TimeDeltaMilliseconds > 5000)
  2309  00093E  BFF6               	btfsc	(APP_KeyboardTasks@TimeDeltaMilliseconds+1)& (0+255),7,b
  2310  000940  D00C               	goto	l6037
  2311  000942  0E89               	movlw	137
  2312  000944  5DF5               	subwf	APP_KeyboardTasks@TimeDeltaMilliseconds& (0+255),w,b
  2313  000946  0E13               	movlw	19
  2314  000948  59F6               	subwfb	(APP_KeyboardTasks@TimeDeltaMilliseconds+1)& (0+255),w,b
  2315  00094A  A0D8               	btfss	status,0,c
  2316  00094C  D006               	goto	l6037
  2317                           
  2318                           ; BSR set to: 0
  2319                           ;device_keyboard.c: 547:     {;device_keyboard.c: 548:         OldSOFCount = LocalSOFCou
      +                          nt - 5000;
  2320  00094E  0E78               	movlw	120
  2321  000950  25D1               	addwf	_LocalSOFCount& (0+255),w,b
  2322  000952  6E0A               	movwf	_OldSOFCount,c
  2323  000954  0EEC               	movlw	236
  2324  000956  21D2               	addwfc	(_LocalSOFCount+1)& (0+255),w,b
  2325  000958  6E0B               	movwf	_OldSOFCount+1,c
  2326  00095A                     l6037:
  2327                           
  2328                           ; BSR set to: 0
  2329                           ;device_keyboard.c: 553:     ProcessKeyboard();
  2330  00095A  EC40  F013         	call	_ProcessKeyboard	;wreg free
  2331                           
  2332                           ;device_keyboard.c: 561:     if(((keyboard.lastINTransmission != 0x0000) && ((*(volatile
      +                           uint8_t*)keyboard.lastINTransmission & 0x80) != 0x00)) == 0)
  2333  00095E  0100               	movlb	0	; () banked
  2334  000960  51BA               	movf	_keyboard& (0+255),w,b
  2335  000962  11BB               	iorwf	(_keyboard+1)& (0+255),w,b
  2336  000964  B4D8               	btfsc	status,2,c
  2337  000966  D006               	goto	u4350
  2338                           
  2339                           ; BSR set to: 0
  2340  000968  C0BA  FFD9         	movff	_keyboard,fsr2l
  2341  00096C  C0BB  FFDA         	movff	_keyboard+1,fsr2h
  2342  000970  BEDF               	btfsc	indf2,7,c
  2343  000972  D09E               	goto	l6097
  2344  000974                     u4350:
  2345                           
  2346                           ; BSR set to: 0
  2347                           ;device_keyboard.c: 562:     {;device_keyboard.c: 564:         memset(&inputReport, 0, s
      +                          izeof(inputReport));
  2348  000974  0E00               	movlw	0
  2349  000976  6FD5               	movwf	memset@dest& (0+255),b
  2350  000978  0E05               	movlw	5
  2351  00097A  6FD6               	movwf	(memset@dest+1)& (0+255),b
  2352  00097C  0E00               	movlw	0
  2353  00097E  6FD8               	movwf	(memset@c+1)& (0+255),b
  2354  000980  0E00               	movlw	0
  2355  000982  6FD7               	movwf	memset@c& (0+255),b
  2356  000984  0E00               	movlw	0
  2357  000986  6FDA               	movwf	(memset@n+1)& (0+255),b
  2358  000988  0E08               	movlw	8
  2359  00098A  6FD9               	movwf	memset@n& (0+255),b
  2360  00098C  ECF5  F008         	call	_memset	;wreg free
  2361                           
  2362                           ;device_keyboard.c: 569:         if(ModListCount > 0){
  2363  000990  5015               	movf	_ModListCount,w,c
  2364  000992  B4D8               	btfsc	status,2,c
  2365  000994  D016               	goto	u4370
  2366                           
  2367                           ;device_keyboard.c: 570:             for(uint8_t j = 0;j < ModListCount;j++){
  2368  000996  0E00               	movlw	0
  2369  000998  0100               	movlb	0	; () banked
  2370  00099A  6FF4               	movwf	APP_KeyboardTasks@j& (0+255),b
  2371  00099C  D00E               	goto	l6053
  2372  00099E                     l6049:
  2373                           
  2374                           ; BSR set to: 0
  2375                           ;device_keyboard.c: 572:                 inputReport.modifiers.value = ModKeyList[j].mod
      +                          ifier | inputReport.modifiers.value;
  2376  00099E  51F4               	movf	APP_KeyboardTasks@j& (0+255),w,b
  2377  0009A0  0D03               	mullw	3
  2378  0009A2  0E19               	movlw	low (_ModKeyList+1)
  2379  0009A4  24F3               	addwf	prodl,w,c
  2380  0009A6  6ED9               	movwf	fsr2l,c
  2381  0009A8  0E01               	movlw	high (_ModKeyList+1)
  2382  0009AA  20F4               	addwfc	prodh,w,c
  2383  0009AC  6EDA               	movwf	fsr2h,c
  2384  0009AE  50DF               	movf	indf2,w,c
  2385  0009B0  0105               	movlb	5	; () banked
  2386  0009B2  1100               	iorwf	0,w,b
  2387  0009B4  6F00               	movwf	0,b
  2388                           
  2389                           ; BSR set to: 5
  2390                           ;device_keyboard.c: 575:             }
  2391  0009B6  0100               	movlb	0	; () banked
  2392  0009B8  2BF4               	incf	APP_KeyboardTasks@j& (0+255),f,b
  2393  0009BA                     l6053:
  2394                           
  2395                           ; BSR set to: 0
  2396  0009BA  5015               	movf	_ModListCount,w,c
  2397  0009BC  5DF4               	subwf	APP_KeyboardTasks@j& (0+255),w,b
  2398  0009BE  A0D8               	btfss	status,0,c
  2399  0009C0  D7EE               	goto	l6049
  2400  0009C2                     u4370:
  2401                           
  2402                           ;device_keyboard.c: 579:         if(CharListCount > 0){
  2403  0009C2  5016               	movf	_CharListCount,w,c
  2404  0009C4  B4D8               	btfsc	status,2,c
  2405  0009C6  D029               	goto	u4400
  2406                           
  2407                           ;device_keyboard.c: 580:             for(uint8_t j = 0; j < CharListCount; j++){
  2408  0009C8  0E00               	movlw	0
  2409  0009CA  0100               	movlb	0	; () banked
  2410  0009CC  6FFE               	movwf	APP_KeyboardTasks@j_2403& (0+255),b
  2411  0009CE  D021               	goto	l6067
  2412  0009D0                     l6059:
  2413                           
  2414                           ; BSR set to: 0
  2415                           ;device_keyboard.c: 581:                 if(j < 6){
  2416  0009D0  0E06               	movlw	6
  2417  0009D2  61FE               	cpfslt	APP_KeyboardTasks@j_2403& (0+255),b
  2418  0009D4  D01D               	goto	l6065
  2419                           
  2420                           ; BSR set to: 0
  2421                           ;device_keyboard.c: 582:                     inputReport.modifiers.value = CharKeyList[j
      +                          ].modifier | inputReport.modifiers.value;
  2422  0009D6  51FE               	movf	APP_KeyboardTasks@j_2403& (0+255),w,b
  2423  0009D8  0D03               	mullw	3
  2424  0009DA  0E61               	movlw	low (_CharKeyList+1)
  2425  0009DC  24F3               	addwf	prodl,w,c
  2426  0009DE  6ED9               	movwf	fsr2l,c
  2427  0009E0  0E00               	movlw	high (_CharKeyList+1)
  2428  0009E2  20F4               	addwfc	prodh,w,c
  2429  0009E4  6EDA               	movwf	fsr2h,c
  2430  0009E6  50DF               	movf	indf2,w,c
  2431  0009E8  0105               	movlb	5	; () banked
  2432  0009EA  1100               	iorwf	0,w,b
  2433  0009EC  6F00               	movwf	0,b
  2434                           
  2435                           ; BSR set to: 5
  2436                           ;device_keyboard.c: 583:                     inputReport.keys[j] = CharKeyList[j].keyCod
      +                          e;
  2437  0009EE  0100               	movlb	0	; () banked
  2438  0009F0  51FE               	movf	APP_KeyboardTasks@j_2403& (0+255),w,b
  2439  0009F2  0D03               	mullw	3
  2440  0009F4  0E60               	movlw	low _CharKeyList
  2441  0009F6  24F3               	addwf	prodl,w,c
  2442  0009F8  6ED9               	movwf	fsr2l,c
  2443  0009FA  0E00               	movlw	high _CharKeyList
  2444  0009FC  20F4               	addwfc	prodh,w,c
  2445  0009FE  6EDA               	movwf	fsr2h,c
  2446  000A00  0E02               	movlw	2
  2447  000A02  25FE               	addwf	APP_KeyboardTasks@j_2403& (0+255),w,b
  2448  000A04  6EE1               	movwf	fsr1l,c
  2449  000A06  6AE2               	clrf	fsr1h,c
  2450  000A08  0E05               	movlw	5
  2451  000A0A  22E2               	addwfc	fsr1h,f,c
  2452  000A0C  CFDF FFE7          	movff	indf2,indf1
  2453  000A10                     l6065:
  2454                           
  2455                           ; BSR set to: 0
  2456                           ;device_keyboard.c: 585:             }
  2457  000A10  2BFE               	incf	APP_KeyboardTasks@j_2403& (0+255),f,b
  2458  000A12                     l6067:
  2459                           
  2460                           ; BSR set to: 0
  2461  000A12  5016               	movf	_CharListCount,w,c
  2462  000A14  5DFE               	subwf	APP_KeyboardTasks@j_2403& (0+255),w,b
  2463  000A16  A0D8               	btfss	status,0,c
  2464  000A18  D7DB               	goto	l6059
  2465  000A1A                     u4400:
  2466                           
  2467                           ;device_keyboard.c: 592:         needToSendNewReportPacket = 0;
  2468  000A1A  0E00               	movlw	0
  2469  000A1C  0100               	movlb	0	; () banked
  2470  000A1E  6FF3               	movwf	APP_KeyboardTasks@needToSendNewReportPacket& (0+255),b
  2471                           
  2472                           ;device_keyboard.c: 593:         for(i = 0; i < sizeof(inputReport); i++)
  2473  000A20  0E00               	movlw	0
  2474  000A22  6FFC               	movwf	APP_KeyboardTasks@i& (0+255),b
  2475  000A24                     l6075:
  2476                           
  2477                           ; BSR set to: 0
  2478                           ;device_keyboard.c: 594:         {;device_keyboard.c: 595:             if(*((uint8_t*)&o
      +                          ldInputReport + i) != *((uint8_t*)&inputReport + i))
  2479  000A24  0E00               	movlw	0
  2480  000A26  25FC               	addwf	APP_KeyboardTasks@i& (0+255),w,b
  2481  000A28  6ED9               	movwf	fsr2l,c
  2482  000A2A  6ADA               	clrf	fsr2h,c
  2483  000A2C  0E05               	movlw	5
  2484  000A2E  22DA               	addwfc	fsr2h,f,c
  2485  000A30  0E98               	movlw	low _oldInputReport
  2486  000A32  25FC               	addwf	APP_KeyboardTasks@i& (0+255),w,b
  2487  000A34  6EE1               	movwf	fsr1l,c
  2488  000A36  6AE2               	clrf	fsr1h,c
  2489  000A38  0E00               	movlw	high _oldInputReport
  2490  000A3A  22E2               	addwfc	fsr1h,f,c
  2491  000A3C  50DE               	movf	postinc2,w,c
  2492  000A3E  18E6               	xorwf	postinc1,w,c
  2493  000A40  B4D8               	btfsc	status,2,c
  2494  000A42  D003               	goto	l6079
  2495                           
  2496                           ; BSR set to: 0
  2497                           ;device_keyboard.c: 596:             {;device_keyboard.c: 597:                 needToSen
      +                          dNewReportPacket = 1;
  2498  000A44  0E01               	movlw	1
  2499  000A46  6FF3               	movwf	APP_KeyboardTasks@needToSendNewReportPacket& (0+255),b
  2500                           
  2501                           ;device_keyboard.c: 598:                 break;
  2502  000A48  D004               	goto	u4420
  2503  000A4A                     l6079:
  2504                           
  2505                           ; BSR set to: 0
  2506                           ;device_keyboard.c: 600:         }
  2507  000A4A  2BFC               	incf	APP_KeyboardTasks@i& (0+255),f,b
  2508                           
  2509                           ; BSR set to: 0
  2510  000A4C  0E07               	movlw	7
  2511  000A4E  65FC               	cpfsgt	APP_KeyboardTasks@i& (0+255),b
  2512  000A50  D7E9               	goto	l6075
  2513  000A52                     u4420:
  2514                           
  2515                           ; BSR set to: 0
  2516                           ;device_keyboard.c: 605:         if(keyboardIdleRate != 0)
  2517  000A52  51D3               	movf	_keyboardIdleRate& (0+255),w,b
  2518  000A54  11D4               	iorwf	(_keyboardIdleRate+1)& (0+255),w,b
  2519  000A56  B4D8               	btfsc	status,2,c
  2520  000A58  D00C               	goto	l6089
  2521                           
  2522                           ; BSR set to: 0
  2523                           ;device_keyboard.c: 606:         {;device_keyboard.c: 607:             if(TimeDeltaMilli
      +                          seconds >= keyboardIdleRate)
  2524  000A5A  51D3               	movf	_keyboardIdleRate& (0+255),w,b
  2525  000A5C  5DF5               	subwf	APP_KeyboardTasks@TimeDeltaMilliseconds& (0+255),w,b
  2526  000A5E  51F6               	movf	(APP_KeyboardTasks@TimeDeltaMilliseconds+1)& (0+255),w,b
  2527  000A60  0A80               	xorlw	128
  2528  000A62  6FE7               	movwf	??_APP_KeyboardTasks& (0+255),b
  2529  000A64  51D4               	movf	(_keyboardIdleRate+1)& (0+255),w,b
  2530  000A66  0A80               	xorlw	128
  2531  000A68  59E7               	subwfb	??_APP_KeyboardTasks& (0+255),w,b
  2532  000A6A  A0D8               	btfss	status,0,c
  2533  000A6C  D002               	goto	l6089
  2534                           
  2535                           ; BSR set to: 0
  2536                           ;device_keyboard.c: 608:             {;device_keyboard.c: 609:                 needToSen
      +                          dNewReportPacket = 1;
  2537  000A6E  0E01               	movlw	1
  2538  000A70  6FF3               	movwf	APP_KeyboardTasks@needToSendNewReportPacket& (0+255),b
  2539  000A72                     l6089:
  2540                           
  2541                           ; BSR set to: 0
  2542                           ;device_keyboard.c: 617:         if(needToSendNewReportPacket == 1)
  2543  000A72  05F3               	decf	APP_KeyboardTasks@needToSendNewReportPacket& (0+255),w,b
  2544  000A74  A4D8               	btfss	status,2,c
  2545  000A76  D01C               	goto	l6097
  2546                           
  2547                           ; BSR set to: 0
  2548                           ;device_keyboard.c: 618:         {;device_keyboard.c: 622:             oldInputReport = 
      +                          inputReport;
  2549  000A78  EE25 F000          	lfsr	2,1280
  2550  000A7C  EE10  F098         	lfsr	1,_oldInputReport
  2551  000A80  0E07               	movlw	7
  2552  000A82                     u4461:
  2553  000A82  CFDB FFE3          	movff	plusw2,plusw1
  2554  000A86  06E8               	decf	wreg,f,c
  2555  000A88  E2FC               	bc	u4461
  2556                           
  2557                           ; BSR set to: 0
  2558                           ;device_keyboard.c: 625:             keyboard.lastINTransmission = USBTransferOnePacket(
      +                          1,1,(uint8_t*)&inputReport,sizeof(inputReport));
  2559  000A8A  0E01               	movlw	1
  2560  000A8C  6FD5               	movwf	USBTransferOnePacket@dir& (0+255),b
  2561  000A8E  0E00               	movlw	0
  2562  000A90  6FD6               	movwf	USBTransferOnePacket@data& (0+255),b
  2563  000A92  0E05               	movlw	5
  2564  000A94  6FD7               	movwf	(USBTransferOnePacket@data+1)& (0+255),b
  2565  000A96  0E08               	movlw	8
  2566  000A98  6FD8               	movwf	USBTransferOnePacket@len& (0+255),b
  2567  000A9A  0E01               	movlw	1
  2568  000A9C  EC91  F00D         	call	_USBTransferOnePacket
  2569  000AA0  C0D5  F0BA         	movff	?_USBTransferOnePacket,_keyboard
  2570  000AA4  C0D6  F0BB         	movff	?_USBTransferOnePacket+1,_keyboard+1
  2571                           
  2572                           ;device_keyboard.c: 626:             OldSOFCount = LocalSOFCount;
  2573  000AA8  C0D1  F00A         	movff	_LocalSOFCount,_OldSOFCount
  2574  000AAC  C0D2  F00B         	movff	_LocalSOFCount+1,_OldSOFCount+1
  2575  000AB0                     l6097:
  2576                           
  2577                           ;device_keyboard.c: 631:     for(uint8_t j = 0;j < 8;j++){ ModKeyList[j] = (KeyStruct){.
      +                          keyCode = 0,.modifier = 0,.type = 0}; }
  2578  000AB0  0E00               	movlw	0
  2579  000AB2  0100               	movlb	0	; () banked
  2580  000AB4  6FF7               	movwf	APP_KeyboardTasks@j_2415& (0+255),b
  2581  000AB6                     l682:
  2582                           
  2583                           ; BSR set to: 0
  2584  000AB6  C0C4  F0E9         	movff	APP_KeyboardTasks@F5639,APP_KeyboardTasks@5640
  2585  000ABA  C0C5  F0EA         	movff	APP_KeyboardTasks@F5639+1,APP_KeyboardTasks@5640+1
  2586  000ABE  C0C6  F0EB         	movff	APP_KeyboardTasks@F5639+2,APP_KeyboardTasks@5640+2
  2587                           
  2588                           ; BSR set to: 0
  2589  000AC2  51F7               	movf	APP_KeyboardTasks@j_2415& (0+255),w,b
  2590  000AC4  0D03               	mullw	3
  2591  000AC6  0E18               	movlw	low _ModKeyList
  2592  000AC8  24F3               	addwf	prodl,w,c
  2593  000ACA  6ED9               	movwf	fsr2l,c
  2594  000ACC  0E01               	movlw	high _ModKeyList
  2595  000ACE  20F4               	addwfc	prodh,w,c
  2596  000AD0  6EDA               	movwf	fsr2h,c
  2597  000AD2  C0E9  FFDE         	movff	APP_KeyboardTasks@5640,postinc2
  2598  000AD6  C0EA  FFDE         	movff	APP_KeyboardTasks@5640+1,postinc2
  2599  000ADA  C0EB  FFDE         	movff	APP_KeyboardTasks@5640+2,postinc2
  2600                           
  2601                           ; BSR set to: 0
  2602  000ADE  2BF7               	incf	APP_KeyboardTasks@j_2415& (0+255),f,b
  2603                           
  2604                           ; BSR set to: 0
  2605  000AE0  0E07               	movlw	7
  2606  000AE2  65F7               	cpfsgt	APP_KeyboardTasks@j_2415& (0+255),b
  2607  000AE4  D7E8               	goto	l682
  2608                           
  2609                           ; BSR set to: 0
  2610                           ;device_keyboard.c: 632:     for(uint8_t j = 0;j < 8;j++){ CharKeyList[j] = (KeyStruct){
      +                          .keyCode = 0,.modifier = 0,.type = 0}; }
  2611  000AE6  0E00               	movlw	0
  2612  000AE8  6FF8               	movwf	APP_KeyboardTasks@j_2416& (0+255),b
  2613  000AEA                     l6111:
  2614                           
  2615                           ; BSR set to: 0
  2616  000AEA  0E07               	movlw	7
  2617  000AEC  65F8               	cpfsgt	APP_KeyboardTasks@j_2416& (0+255),b
  2618  000AEE  D001               	goto	l684
  2619  000AF0  D016               	goto	l6121
  2620  000AF2                     l684:
  2621                           
  2622                           ; BSR set to: 0
  2623  000AF2  C0C1  F0EC         	movff	APP_KeyboardTasks@F5641,APP_KeyboardTasks@5642
  2624  000AF6  C0C2  F0ED         	movff	APP_KeyboardTasks@F5641+1,APP_KeyboardTasks@5642+1
  2625  000AFA  C0C3  F0EE         	movff	APP_KeyboardTasks@F5641+2,APP_KeyboardTasks@5642+2
  2626                           
  2627                           ; BSR set to: 0
  2628  000AFE  51F8               	movf	APP_KeyboardTasks@j_2416& (0+255),w,b
  2629  000B00  0D03               	mullw	3
  2630  000B02  0E60               	movlw	low _CharKeyList
  2631  000B04  24F3               	addwf	prodl,w,c
  2632  000B06  6ED9               	movwf	fsr2l,c
  2633  000B08  0E00               	movlw	high _CharKeyList
  2634  000B0A  20F4               	addwfc	prodh,w,c
  2635  000B0C  6EDA               	movwf	fsr2h,c
  2636  000B0E  C0EC  FFDE         	movff	APP_KeyboardTasks@5642,postinc2
  2637  000B12  C0ED  FFDE         	movff	APP_KeyboardTasks@5642+1,postinc2
  2638  000B16  C0EE  FFDE         	movff	APP_KeyboardTasks@5642+2,postinc2
  2639                           
  2640                           ; BSR set to: 0
  2641  000B1A  2BF8               	incf	APP_KeyboardTasks@j_2416& (0+255),f,b
  2642  000B1C  D7E6               	goto	l6111
  2643  000B1E                     l6121:
  2644                           
  2645                           ; BSR set to: 0
  2646                           ;device_keyboard.c: 633:     ModListCount = 0;
  2647  000B1E  0E00               	movlw	0
  2648  000B20  6E15               	movwf	_ModListCount,c
  2649                           
  2650                           ;device_keyboard.c: 634:     CharListCount = 0;
  2651  000B22  0E00               	movlw	0
  2652  000B24  6E16               	movwf	_CharListCount,c
  2653                           
  2654                           ; BSR set to: 0
  2655                           ;device_keyboard.c: 638:     if(((ep2_handle != 0x0000) && ((*(volatile uint8_t*)ep2_han
      +                          dle & 0x80) != 0x00)) == 0){
  2656  000B26  51CF               	movf	_ep2_handle& (0+255),w,b
  2657  000B28  11D0               	iorwf	(_ep2_handle+1)& (0+255),w,b
  2658  000B2A  B4D8               	btfsc	status,2,c
  2659  000B2C  D006               	goto	u4500
  2660                           
  2661                           ; BSR set to: 0
  2662  000B2E  C0CF  FFD9         	movff	_ep2_handle,fsr2l
  2663  000B32  C0D0  FFDA         	movff	_ep2_handle+1,fsr2h
  2664  000B36  BEDF               	btfsc	indf2,7,c
  2665  000B38  D063               	goto	l6169
  2666  000B3A                     u4500:
  2667                           
  2668                           ; BSR set to: 0
  2669                           ;device_keyboard.c: 642:             for(uint8_t j = 0; j < 4; j++){e2Report.data[j] = 0
      +                          ;}
  2670  000B3A  0E00               	movlw	0
  2671  000B3C  6FF9               	movwf	APP_KeyboardTasks@j_2417& (0+255),b
  2672  000B3E                     l6129:
  2673                           
  2674                           ; BSR set to: 0
  2675  000B3E  0E03               	movlw	3
  2676  000B40  65F9               	cpfsgt	APP_KeyboardTasks@j_2417& (0+255),b
  2677  000B42  D001               	goto	l6133
  2678  000B44  D00A               	goto	l6139
  2679  000B46                     l6133:
  2680                           
  2681                           ; BSR set to: 0
  2682  000B46  0E10               	movlw	16
  2683  000B48  25F9               	addwf	APP_KeyboardTasks@j_2417& (0+255),w,b
  2684  000B4A  6ED9               	movwf	fsr2l,c
  2685  000B4C  6ADA               	clrf	fsr2h,c
  2686  000B4E  0E05               	movlw	5
  2687  000B50  22DA               	addwfc	fsr2h,f,c
  2688  000B52  0E00               	movlw	0
  2689  000B54  6EDF               	movwf	indf2,c
  2690                           
  2691                           ; BSR set to: 0
  2692  000B56  2BF9               	incf	APP_KeyboardTasks@j_2417& (0+255),f,b
  2693  000B58  D7F2               	goto	l6129
  2694  000B5A                     l6139:
  2695                           
  2696                           ; BSR set to: 0
  2697                           ;device_keyboard.c: 645:             if(EP2ListCount > 0){
  2698  000B5A  5014               	movf	_EP2ListCount,w,c
  2699  000B5C  B4D8               	btfsc	status,2,c
  2700  000B5E  D018               	goto	u4530
  2701                           
  2702                           ; BSR set to: 0
  2703                           ;device_keyboard.c: 647:                 for(uint8_t j = 0; j < EP2ListCount; j++){
  2704  000B60  0E00               	movlw	0
  2705  000B62  6FFA               	movwf	APP_KeyboardTasks@j_2418& (0+255),b
  2706  000B64  D011               	goto	l6147
  2707  000B66                     l6143:
  2708                           
  2709                           ; BSR set to: 0
  2710                           ;device_keyboard.c: 648:                     e2Report.data[j] = EP2KeyList[j].keyCode;
  2711  000B66  51FA               	movf	APP_KeyboardTasks@j_2418& (0+255),w,b
  2712  000B68  0D03               	mullw	3
  2713  000B6A  0E00               	movlw	low _EP2KeyList
  2714  000B6C  24F3               	addwf	prodl,w,c
  2715  000B6E  6ED9               	movwf	fsr2l,c
  2716  000B70  0E01               	movlw	high _EP2KeyList
  2717  000B72  20F4               	addwfc	prodh,w,c
  2718  000B74  6EDA               	movwf	fsr2h,c
  2719  000B76  0E10               	movlw	16
  2720  000B78  25FA               	addwf	APP_KeyboardTasks@j_2418& (0+255),w,b
  2721  000B7A  6EE1               	movwf	fsr1l,c
  2722  000B7C  6AE2               	clrf	fsr1h,c
  2723  000B7E  0E05               	movlw	5
  2724  000B80  22E2               	addwfc	fsr1h,f,c
  2725  000B82  CFDF FFE7          	movff	indf2,indf1
  2726                           
  2727                           ; BSR set to: 0
  2728                           ;device_keyboard.c: 649:                 }
  2729  000B86  2BFA               	incf	APP_KeyboardTasks@j_2418& (0+255),f,b
  2730  000B88                     l6147:
  2731                           
  2732                           ; BSR set to: 0
  2733  000B88  5014               	movf	_EP2ListCount,w,c
  2734  000B8A  5DFA               	subwf	APP_KeyboardTasks@j_2418& (0+255),w,b
  2735  000B8C  A0D8               	btfss	status,0,c
  2736  000B8E  D7EB               	goto	l6143
  2737  000B90                     u4530:
  2738                           
  2739                           ; BSR set to: 0
  2740                           ;device_keyboard.c: 652:             uint8_t shd_send = 0;
  2741  000B90  0E00               	movlw	0
  2742  000B92  6FF2               	movwf	APP_KeyboardTasks@shd_send& (0+255),b
  2743                           
  2744                           ;device_keyboard.c: 655:             for(uint8_t j = 0; j < sizeof(e2Report.data);j++){
  2745  000B94  0E00               	movlw	0
  2746  000B96  6FFD               	movwf	APP_KeyboardTasks@j_2423& (0+255),b
  2747  000B98                     l6151:
  2748                           
  2749                           ; BSR set to: 0
  2750  000B98  0E07               	movlw	7
  2751  000B9A  65FD               	cpfsgt	APP_KeyboardTasks@j_2423& (0+255),b
  2752  000B9C  D001               	goto	l6155
  2753  000B9E  D015               	goto	l6163
  2754  000BA0                     l6155:
  2755                           
  2756                           ; BSR set to: 0
  2757                           ;device_keyboard.c: 657:                 if(old_ep2report.data[j] != e2Report.data[j]){
  2758  000BA0  0E10               	movlw	16
  2759  000BA2  25FD               	addwf	APP_KeyboardTasks@j_2423& (0+255),w,b
  2760  000BA4  6ED9               	movwf	fsr2l,c
  2761  000BA6  6ADA               	clrf	fsr2h,c
  2762  000BA8  0E05               	movlw	5
  2763  000BAA  22DA               	addwfc	fsr2h,f,c
  2764  000BAC  0E90               	movlw	low _old_ep2report
  2765  000BAE  25FD               	addwf	APP_KeyboardTasks@j_2423& (0+255),w,b
  2766  000BB0  6EE1               	movwf	fsr1l,c
  2767  000BB2  6AE2               	clrf	fsr1h,c
  2768  000BB4  0E00               	movlw	high _old_ep2report
  2769  000BB6  22E2               	addwfc	fsr1h,f,c
  2770  000BB8  50DE               	movf	postinc2,w,c
  2771  000BBA  18E6               	xorwf	postinc1,w,c
  2772  000BBC  B4D8               	btfsc	status,2,c
  2773  000BBE  D003               	goto	l6159
  2774                           
  2775                           ; BSR set to: 0
  2776                           ;device_keyboard.c: 658:                    shd_send = 1;
  2777  000BC0  0E01               	movlw	1
  2778  000BC2  6FF2               	movwf	APP_KeyboardTasks@shd_send& (0+255),b
  2779                           
  2780                           ;device_keyboard.c: 659:                    break;
  2781  000BC4  D002               	goto	l6163
  2782  000BC6                     l6159:
  2783                           
  2784                           ; BSR set to: 0
  2785                           ;device_keyboard.c: 661:             }
  2786  000BC6  2BFD               	incf	APP_KeyboardTasks@j_2423& (0+255),f,b
  2787  000BC8  D7E7               	goto	l6151
  2788  000BCA                     l6163:
  2789                           
  2790                           ; BSR set to: 0
  2791                           ;device_keyboard.c: 664:             if(shd_send == 1){
  2792  000BCA  05F2               	decf	APP_KeyboardTasks@shd_send& (0+255),w,b
  2793  000BCC  A4D8               	btfss	status,2,c
  2794  000BCE  D018               	goto	l6169
  2795                           
  2796                           ; BSR set to: 0
  2797                           ;device_keyboard.c: 666:                 ep2_handle = USBTransferOnePacket(2,1,(uint8_t*
      +                          )&e2Report,sizeof(e2Report));
  2798  000BD0  0E01               	movlw	1
  2799  000BD2  6FD5               	movwf	USBTransferOnePacket@dir& (0+255),b
  2800  000BD4  0E10               	movlw	16
  2801  000BD6  6FD6               	movwf	USBTransferOnePacket@data& (0+255),b
  2802  000BD8  0E05               	movlw	5
  2803  000BDA  6FD7               	movwf	(USBTransferOnePacket@data+1)& (0+255),b
  2804  000BDC  0E08               	movlw	8
  2805  000BDE  6FD8               	movwf	USBTransferOnePacket@len& (0+255),b
  2806  000BE0  0E02               	movlw	2
  2807  000BE2  EC91  F00D         	call	_USBTransferOnePacket
  2808  000BE6  C0D5  F0CF         	movff	?_USBTransferOnePacket,_ep2_handle
  2809  000BEA  C0D6  F0D0         	movff	?_USBTransferOnePacket+1,_ep2_handle+1
  2810                           
  2811                           ;device_keyboard.c: 668:                 old_ep2report = e2Report;
  2812  000BEE  EE25 F010          	lfsr	2,1296
  2813  000BF2  EE10  F090         	lfsr	1,_old_ep2report
  2814  000BF6  0E07               	movlw	7
  2815  000BF8                     u4571:
  2816  000BF8  CFDB FFE3          	movff	plusw2,plusw1
  2817  000BFC  06E8               	decf	wreg,f,c
  2818  000BFE  E2FC               	bc	u4571
  2819  000C00                     l6169:
  2820                           
  2821                           ;device_keyboard.c: 674:     for(uint8_t j = 0;j < sizeof(EP2KeyList);j++){ EP2KeyList[j
      +                          ] = (KeyStruct){.keyCode = 0,.modifier = 0,.type = 0}; }
  2822  000C00  0E00               	movlw	0
  2823  000C02  0100               	movlb	0	; () banked
  2824  000C04  6FFB               	movwf	APP_KeyboardTasks@j_2424& (0+255),b
  2825  000C06                     l6171:
  2826                           
  2827                           ; BSR set to: 0
  2828  000C06  0E17               	movlw	23
  2829  000C08  65FB               	cpfsgt	APP_KeyboardTasks@j_2424& (0+255),b
  2830  000C0A  D001               	goto	l699
  2831  000C0C  D016               	goto	l6181
  2832  000C0E                     l699:
  2833                           
  2834                           ; BSR set to: 0
  2835  000C0E  C0BE  F0EF         	movff	APP_KeyboardTasks@F5643,APP_KeyboardTasks@5644
  2836  000C12  C0BF  F0F0         	movff	APP_KeyboardTasks@F5643+1,APP_KeyboardTasks@5644+1
  2837  000C16  C0C0  F0F1         	movff	APP_KeyboardTasks@F5643+2,APP_KeyboardTasks@5644+2
  2838                           
  2839                           ; BSR set to: 0
  2840  000C1A  51FB               	movf	APP_KeyboardTasks@j_2424& (0+255),w,b
  2841  000C1C  0D03               	mullw	3
  2842  000C1E  0E00               	movlw	low _EP2KeyList
  2843  000C20  24F3               	addwf	prodl,w,c
  2844  000C22  6ED9               	movwf	fsr2l,c
  2845  000C24  0E01               	movlw	high _EP2KeyList
  2846  000C26  20F4               	addwfc	prodh,w,c
  2847  000C28  6EDA               	movwf	fsr2h,c
  2848  000C2A  C0EF  FFDE         	movff	APP_KeyboardTasks@5644,postinc2
  2849  000C2E  C0F0  FFDE         	movff	APP_KeyboardTasks@5644+1,postinc2
  2850  000C32  C0F1  FFDE         	movff	APP_KeyboardTasks@5644+2,postinc2
  2851                           
  2852                           ; BSR set to: 0
  2853  000C36  2BFB               	incf	APP_KeyboardTasks@j_2424& (0+255),f,b
  2854  000C38  D7E6               	goto	l6171
  2855  000C3A                     l6181:
  2856                           
  2857                           ; BSR set to: 0
  2858                           ;device_keyboard.c: 675:     EP2ListCount = 0;
  2859  000C3A  0E00               	movlw	0
  2860  000C3C  6E14               	movwf	_EP2ListCount,c
  2861                           
  2862                           ; BSR set to: 0
  2863                           ;device_keyboard.c: 686:     if(((keyboard.lastOUTTransmission != 0x0000) && ((*(volatil
      +                          e uint8_t*)keyboard.lastOUTTransmission & 0x80) != 0x00)) == 0)
  2864  000C3E  51BC               	movf	(_keyboard+2)& (0+255),w,b
  2865  000C40  11BD               	iorwf	(_keyboard+3)& (0+255),w,b
  2866  000C42  B4D8               	btfsc	status,2,c
  2867  000C44  D006               	goto	u4600
  2868                           
  2869                           ; BSR set to: 0
  2870  000C46  C0BC  FFD9         	movff	_keyboard+2,fsr2l
  2871  000C4A  C0BD  FFDA         	movff	_keyboard+3,fsr2h
  2872  000C4E  BEDF               	btfsc	indf2,7,c
  2873  000C50  D012               	goto	l6191
  2874  000C52                     u4600:
  2875                           
  2876                           ; BSR set to: 0
  2877                           ;device_keyboard.c: 687:     {;device_keyboard.c: 688:         KeyboardProcessOutputRepo
      +                          rt();
  2878  000C52  EC30  F015         	call	_KeyboardProcessOutputReport	;wreg free
  2879                           
  2880                           ;device_keyboard.c: 690:         keyboard.lastOUTTransmission = USBTransferOnePacket(1,0
      +                          ,(uint8_t*)&outputReport,sizeof(outputReport));
  2881  000C56  0E00               	movlw	0
  2882  000C58  0100               	movlb	0	; () banked
  2883  000C5A  6FD5               	movwf	USBTransferOnePacket@dir& (0+255),b
  2884  000C5C  0E08               	movlw	8
  2885  000C5E  6FD6               	movwf	USBTransferOnePacket@data& (0+255),b
  2886  000C60  0E05               	movlw	5
  2887  000C62  6FD7               	movwf	(USBTransferOnePacket@data+1)& (0+255),b
  2888  000C64  0E01               	movlw	1
  2889  000C66  6FD8               	movwf	USBTransferOnePacket@len& (0+255),b
  2890  000C68  0E01               	movlw	1
  2891  000C6A  EC91  F00D         	call	_USBTransferOnePacket
  2892  000C6E  C0D5  F0BC         	movff	?_USBTransferOnePacket,_keyboard+2
  2893  000C72  C0D6  F0BD         	movff	?_USBTransferOnePacket+1,_keyboard+3
  2894  000C76                     l6191:
  2895                           
  2896                           ;device_keyboard.c: 693:     if(((ep2_out_handle != 0x0000) && ((*(volatile uint8_t*)ep2
      +                          _out_handle & 0x80) != 0x00)) == 0){
  2897  000C76  0100               	movlb	0	; () banked
  2898  000C78  51CD               	movf	_ep2_out_handle& (0+255),w,b
  2899  000C7A  11CE               	iorwf	(_ep2_out_handle+1)& (0+255),w,b
  2900  000C7C  B4D8               	btfsc	status,2,c
  2901  000C7E  D006               	goto	u4620
  2902                           
  2903                           ; BSR set to: 0
  2904  000C80  C0CD  FFD9         	movff	_ep2_out_handle,fsr2l
  2905  000C84  C0CE  FFDA         	movff	_ep2_out_handle+1,fsr2h
  2906  000C88  BEDF               	btfsc	indf2,7,c
  2907  000C8A  0012               	return	
  2908  000C8C                     u4620:
  2909                           
  2910                           ; BSR set to: 0
  2911                           ;device_keyboard.c: 694:         ep2_out_handle = USBTransferOnePacket(2,0,(uint8_t*)&e2
      +                          outReport,sizeof(e2outReport));
  2912  000C8C  0E00               	movlw	0
  2913  000C8E  6FD5               	movwf	USBTransferOnePacket@dir& (0+255),b
  2914  000C90  0E18               	movlw	24
  2915  000C92  6FD6               	movwf	USBTransferOnePacket@data& (0+255),b
  2916  000C94  0E05               	movlw	5
  2917  000C96  6FD7               	movwf	(USBTransferOnePacket@data+1)& (0+255),b
  2918  000C98  0E08               	movlw	8
  2919  000C9A  6FD8               	movwf	USBTransferOnePacket@len& (0+255),b
  2920  000C9C  0E02               	movlw	2
  2921  000C9E  EC91  F00D         	call	_USBTransferOnePacket
  2922  000CA2  C0D5  F0CD         	movff	?_USBTransferOnePacket,_ep2_out_handle
  2923  000CA6  C0D6  F0CE         	movff	?_USBTransferOnePacket+1,_ep2_out_handle+1
  2924  000CAA  0012               	return		;funcret
  2925  000CAC                     __end_of_APP_KeyboardTasks:
  2926                           	opt callstack 0
  2927                           
  2928 ;; *************** function _memset *****************
  2929 ;; Defined at:
  2930 ;;		line 4 in file "/opt/microchip/xc8/v2.05/pic/sources/c99/common/memset.c"
  2931 ;; Parameters:    Size  Location     Type
  2932 ;;  dest            2    0[BANK0 ] PTR void 
  2933 ;;		 -> inputReport(8), USBAlternateInterface(2), BDT(48), UEP1(1), 
  2934 ;;  c               2    2[BANK0 ] int 
  2935 ;;  n               2    4[BANK0 ] unsigned int 
  2936 ;; Auto vars:     Size  Location     Type
  2937 ;;  s               2   10[BANK0 ] PTR unsigned char 
  2938 ;;		 -> inputReport(8), USBAlternateInterface(2), BDT(48), UEP1(1), 
  2939 ;;  k               2    8[BANK0 ] unsigned int 
  2940 ;; Return value:  Size  Location     Type
  2941 ;;                  2    0[BANK0 ] PTR void 
  2942 ;; Registers used:
  2943 ;;		wreg, fsr2l, fsr2h, status,2, status,0
  2944 ;; Tracked objects:
  2945 ;;		On entry : 0/0
  2946 ;;		On exit  : 0/0
  2947 ;;		Unchanged: 0/0
  2948 ;; Data sizes:     COMRAM   BANK0   BANK1   BANK2   BANK3   BANK4  BANK5h  BANK5l   BANK6   BANK7
  2949 ;;      Params:         0       6       0       0       0       0       0       0       0       0
  2950 ;;      Locals:         0       4       0       0       0       0       0       0       0       0
  2951 ;;      Temps:          0       2       0       0       0       0       0       0       0       0
  2952 ;;      Totals:         0      12       0       0       0       0       0       0       0       0
  2953 ;;Total ram usage:       12 bytes
  2954 ;; Hardware stack levels used:    1
  2955 ;; Hardware stack levels required when called:   10
  2956 ;; This function calls:
  2957 ;;		Nothing
  2958 ;; This function is called by:
  2959 ;;		_USBDeviceInit
  2960 ;;		_APP_KeyboardTasks
  2961 ;; This function uses a non-reentrant model
  2962 ;;
  2963                           
  2964                           	psect	text7
  2965  0011EA                     __ptext7:
  2966                           	opt callstack 0
  2967  0011EA                     _memset:
  2968                           	opt callstack 19
  2969                           
  2970                           ;incstack = 0
  2971  0011EA  C0D5  F0DF         	movff	memset@dest,memset@s
  2972  0011EE  C0D6  F0E0         	movff	memset@dest+1,memset@s+1
  2973  0011F2  0100               	movlb	0	; () banked
  2974  0011F4  51D9               	movf	memset@n& (0+255),w,b
  2975  0011F6  11DA               	iorwf	(memset@n+1)& (0+255),w,b
  2976  0011F8  B4D8               	btfsc	status,2,c
  2977  0011FA  0012               	return	
  2978                           
  2979                           ; BSR set to: 0
  2980  0011FC  C0DF  FFD9         	movff	memset@s,fsr2l
  2981  001200  C0E0  FFDA         	movff	memset@s+1,fsr2h
  2982  001204  C0D7  FFDF         	movff	memset@c,indf2
  2983                           
  2984                           ; BSR set to: 0
  2985  001208  51D9               	movf	memset@n& (0+255),w,b
  2986  00120A  25DF               	addwf	memset@s& (0+255),w,b
  2987  00120C  6FDB               	movwf	??_memset& (0+255),b
  2988  00120E  51DA               	movf	(memset@n+1)& (0+255),w,b
  2989  001210  21E0               	addwfc	(memset@s+1)& (0+255),w,b
  2990  001212  6FDC               	movwf	(??_memset+1)& (0+255),b
  2991  001214  0EFF               	movlw	255
  2992  001216  25DB               	addwf	??_memset& (0+255),w,b
  2993  001218  6ED9               	movwf	fsr2l,c
  2994  00121A  0EFF               	movlw	255
  2995  00121C  21DC               	addwfc	(??_memset+1)& (0+255),w,b
  2996  00121E  6EDA               	movwf	fsr2h,c
  2997  001220  C0D7  FFDF         	movff	memset@c,indf2
  2998  001224  51DA               	movf	(memset@n+1)& (0+255),w,b
  2999  001226  E104               	bnz	l5771
  3000  001228  0E03               	movlw	3
  3001  00122A  5DD9               	subwf	memset@n& (0+255),w,b
  3002  00122C  A0D8               	btfss	status,0,c
  3003  00122E  0012               	return	
  3004  001230                     l5771:
  3005                           
  3006                           ; BSR set to: 0
  3007  001230  EE20 F001          	lfsr	2,1
  3008  001234  51DF               	movf	memset@s& (0+255),w,b
  3009  001236  26D9               	addwf	fsr2l,f,c
  3010  001238  51E0               	movf	(memset@s+1)& (0+255),w,b
  3011  00123A  22DA               	addwfc	fsr2h,f,c
  3012  00123C  C0D7  FFDF         	movff	memset@c,indf2
  3013  001240  EE20 F002          	lfsr	2,2
  3014  001244  51DF               	movf	memset@s& (0+255),w,b
  3015  001246  26D9               	addwf	fsr2l,f,c
  3016  001248  51E0               	movf	(memset@s+1)& (0+255),w,b
  3017  00124A  22DA               	addwfc	fsr2h,f,c
  3018  00124C  C0D7  FFDF         	movff	memset@c,indf2
  3019  001250  51D9               	movf	memset@n& (0+255),w,b
  3020  001252  25DF               	addwf	memset@s& (0+255),w,b
  3021  001254  6FDB               	movwf	??_memset& (0+255),b
  3022  001256  51DA               	movf	(memset@n+1)& (0+255),w,b
  3023  001258  21E0               	addwfc	(memset@s+1)& (0+255),w,b
  3024  00125A  6FDC               	movwf	(??_memset+1)& (0+255),b
  3025  00125C  0EFE               	movlw	254
  3026  00125E  25DB               	addwf	??_memset& (0+255),w,b
  3027  001260  6ED9               	movwf	fsr2l,c
  3028  001262  0EFF               	movlw	255
  3029  001264  21DC               	addwfc	(??_memset+1)& (0+255),w,b
  3030  001266  6EDA               	movwf	fsr2h,c
  3031  001268  C0D7  FFDF         	movff	memset@c,indf2
  3032  00126C  51D9               	movf	memset@n& (0+255),w,b
  3033  00126E  25DF               	addwf	memset@s& (0+255),w,b
  3034  001270  6FDB               	movwf	??_memset& (0+255),b
  3035  001272  51DA               	movf	(memset@n+1)& (0+255),w,b
  3036  001274  21E0               	addwfc	(memset@s+1)& (0+255),w,b
  3037  001276  6FDC               	movwf	(??_memset+1)& (0+255),b
  3038  001278  0EFD               	movlw	253
  3039  00127A  25DB               	addwf	??_memset& (0+255),w,b
  3040  00127C  6ED9               	movwf	fsr2l,c
  3041  00127E  0EFF               	movlw	255
  3042  001280  21DC               	addwfc	(??_memset+1)& (0+255),w,b
  3043  001282  6EDA               	movwf	fsr2h,c
  3044  001284  C0D7  FFDF         	movff	memset@c,indf2
  3045                           
  3046                           ; BSR set to: 0
  3047  001288  51DA               	movf	(memset@n+1)& (0+255),w,b
  3048  00128A  E104               	bnz	l5777
  3049  00128C  0E07               	movlw	7
  3050  00128E  5DD9               	subwf	memset@n& (0+255),w,b
  3051  001290  A0D8               	btfss	status,0,c
  3052  001292  0012               	return	
  3053  001294                     l5777:
  3054                           
  3055                           ; BSR set to: 0
  3056  001294  EE20 F003          	lfsr	2,3
  3057  001298  51DF               	movf	memset@s& (0+255),w,b
  3058  00129A  26D9               	addwf	fsr2l,f,c
  3059  00129C  51E0               	movf	(memset@s+1)& (0+255),w,b
  3060  00129E  22DA               	addwfc	fsr2h,f,c
  3061  0012A0  C0D7  FFDF         	movff	memset@c,indf2
  3062  0012A4  51D9               	movf	memset@n& (0+255),w,b
  3063  0012A6  25DF               	addwf	memset@s& (0+255),w,b
  3064  0012A8  6FDB               	movwf	??_memset& (0+255),b
  3065  0012AA  51DA               	movf	(memset@n+1)& (0+255),w,b
  3066  0012AC  21E0               	addwfc	(memset@s+1)& (0+255),w,b
  3067  0012AE  6FDC               	movwf	(??_memset+1)& (0+255),b
  3068  0012B0  0EFC               	movlw	252
  3069  0012B2  25DB               	addwf	??_memset& (0+255),w,b
  3070  0012B4  6ED9               	movwf	fsr2l,c
  3071  0012B6  0EFF               	movlw	255
  3072  0012B8  21DC               	addwfc	(??_memset+1)& (0+255),w,b
  3073  0012BA  6EDA               	movwf	fsr2h,c
  3074  0012BC  C0D7  FFDF         	movff	memset@c,indf2
  3075                           
  3076                           ; BSR set to: 0
  3077  0012C0  51DA               	movf	(memset@n+1)& (0+255),w,b
  3078  0012C2  E104               	bnz	l5783
  3079  0012C4  0E09               	movlw	9
  3080  0012C6  5DD9               	subwf	memset@n& (0+255),w,b
  3081  0012C8  A0D8               	btfss	status,0,c
  3082  0012CA  0012               	return	
  3083  0012CC                     l5783:
  3084                           
  3085                           ; BSR set to: 0
  3086  0012CC  C0DF  F0DB         	movff	memset@s,??_memset
  3087  0012D0  C0E0  F0DC         	movff	memset@s+1,??_memset+1
  3088  0012D4  1FDB               	comf	??_memset& (0+255),f,b
  3089  0012D6  1FDC               	comf	(??_memset+1)& (0+255),f,b
  3090  0012D8  4BDB               	infsnz	??_memset& (0+255),f,b
  3091  0012DA  2BDC               	incf	(??_memset+1)& (0+255),f,b
  3092  0012DC  0E03               	movlw	3
  3093  0012DE  15DB               	andwf	??_memset& (0+255),w,b
  3094  0012E0  6FDD               	movwf	memset@k& (0+255),b
  3095  0012E2  6BDE               	clrf	(memset@k+1)& (0+255),b
  3096  0012E4  51DD               	movf	memset@k& (0+255),w,b
  3097  0012E6  27DF               	addwf	memset@s& (0+255),f,b
  3098  0012E8  51DE               	movf	(memset@k+1)& (0+255),w,b
  3099  0012EA  23E0               	addwfc	(memset@s+1)& (0+255),f,b
  3100  0012EC  51DD               	movf	memset@k& (0+255),w,b
  3101  0012EE  5FD9               	subwf	memset@n& (0+255),f,b
  3102  0012F0  51DE               	movf	(memset@k+1)& (0+255),w,b
  3103  0012F2  5BDA               	subwfb	(memset@n+1)& (0+255),f,b
  3104  0012F4  0EFC               	movlw	252
  3105  0012F6  17D9               	andwf	memset@n& (0+255),f,b
  3106  0012F8  0EFF               	movlw	255
  3107  0012FA  17DA               	andwf	(memset@n+1)& (0+255),f,b
  3108  0012FC  D00B               	goto	l5791
  3109  0012FE                     l5785:
  3110                           
  3111                           ; BSR set to: 0
  3112  0012FE  C0DF  FFD9         	movff	memset@s,fsr2l
  3113  001302  C0E0  FFDA         	movff	memset@s+1,fsr2h
  3114  001306  C0D7  FFDF         	movff	memset@c,indf2
  3115                           
  3116                           ; BSR set to: 0
  3117  00130A  07D9               	decf	memset@n& (0+255),f,b
  3118  00130C  A0D8               	btfss	status,0,c
  3119  00130E  07DA               	decf	(memset@n+1)& (0+255),f,b
  3120                           
  3121                           ; BSR set to: 0
  3122  001310  4BDF               	infsnz	memset@s& (0+255),f,b
  3123  001312  2BE0               	incf	(memset@s+1)& (0+255),f,b
  3124  001314                     l5791:
  3125                           
  3126                           ; BSR set to: 0
  3127  001314  51D9               	movf	memset@n& (0+255),w,b
  3128  001316  11DA               	iorwf	(memset@n+1)& (0+255),w,b
  3129  001318  B4D8               	btfsc	status,2,c
  3130  00131A  0012               	return	
  3131  00131C  D7F0               	goto	l5785
  3132  00131E                     __end_of_memset:
  3133                           	opt callstack 0
  3134                           
  3135 ;; *************** function _USBTransferOnePacket *****************
  3136 ;; Defined at:
  3137 ;;		line 999 in file "usb/usb_device.c"
  3138 ;; Parameters:    Size  Location     Type
  3139 ;;  ep              1    wreg     unsigned char 
  3140 ;;  dir             1    0[BANK0 ] unsigned char 
  3141 ;;  data            2    1[BANK0 ] PTR unsigned char 
  3142 ;;		 -> e2Report(8), inputReport(8), e2outReport(8), outputReport(1), 
  3143 ;;  len             1    3[BANK0 ] unsigned char 
  3144 ;; Auto vars:     Size  Location     Type
  3145 ;;  ep              1    8[BANK0 ] unsigned char 
  3146 ;;  handle          2    9[BANK0 ] PTR volatile struct __BD
  3147 ;;		 -> RAM(2047), NULL(0), BDT(48), 
  3148 ;; Return value:  Size  Location     Type
  3149 ;;                  2    0[BANK0 ] PTR void 
  3150 ;; Registers used:
  3151 ;;		wreg, fsr2l, fsr2h, status,2, status,0, prodl, prodh
  3152 ;; Tracked objects:
  3153 ;;		On entry : 0/0
  3154 ;;		On exit  : 0/0
  3155 ;;		Unchanged: 0/0
  3156 ;; Data sizes:     COMRAM   BANK0   BANK1   BANK2   BANK3   BANK4  BANK5h  BANK5l   BANK6   BANK7
  3157 ;;      Params:         0       4       0       0       0       0       0       0       0       0
  3158 ;;      Locals:         0       3       0       0       0       0       0       0       0       0
  3159 ;;      Temps:          0       4       0       0       0       0       0       0       0       0
  3160 ;;      Totals:         0      11       0       0       0       0       0       0       0       0
  3161 ;;Total ram usage:       11 bytes
  3162 ;; Hardware stack levels used:    1
  3163 ;; Hardware stack levels required when called:   10
  3164 ;; This function calls:
  3165 ;;		Nothing
  3166 ;; This function is called by:
  3167 ;;		_APP_KeyboardTasks
  3168 ;; This function uses a non-reentrant model
  3169 ;;
  3170                           
  3171                           	psect	text8
  3172  001B22                     __ptext8:
  3173                           	opt callstack 0
  3174  001B22                     _USBTransferOnePacket:
  3175                           	opt callstack 19
  3176                           
  3177                           ; BSR set to: 0
  3178                           ;incstack = 0
  3179                           ;USBTransferOnePacket@ep stored from wreg
  3180  001B22  0100               	movlb	0	; () banked
  3181  001B24  6FDD               	movwf	USBTransferOnePacket@ep& (0+255),b
  3182                           
  3183                           ;usb/usb_device.c: 999: void* USBTransferOnePacket(uint8_t ep,uint8_t dir,uint8_t* data,
      +                          uint8_t len);usb/usb_device.c: 1000: {;usb/usb_device.c: 1001:     volatile BDT_ENTRY* h
      +                          andle;;usb/usb_device.c: 1004:     if(dir != 0)
  3184  001B26  0100               	movlb	0	; () banked
  3185  001B28  51D5               	movf	USBTransferOnePacket@dir& (0+255),w,b
  3186  001B2A  B4D8               	btfsc	status,2,c
  3187  001B2C  D007               	goto	l5797
  3188                           
  3189                           ; BSR set to: 0
  3190                           ;usb/usb_device.c: 1005:     {;usb/usb_device.c: 1007:         handle = pBDTEntryIn[ep];
  3191  001B2E  51DD               	movf	USBTransferOnePacket@ep& (0+255),w,b
  3192  001B30  0D02               	mullw	2
  3193  001B32  0EAE               	movlw	low _pBDTEntryIn
  3194  001B34  24F3               	addwf	prodl,w,c
  3195  001B36  6ED9               	movwf	fsr2l,c
  3196  001B38  0E00               	movlw	high _pBDTEntryIn
  3197  001B3A  D006               	goto	L1
  3198  001B3C                     l5797:
  3199                           
  3200                           ; BSR set to: 0
  3201                           ;usb/usb_device.c: 1010:     {;usb/usb_device.c: 1012:         handle = pBDTEntryOut[ep]
      +                          ;
  3202  001B3C  51DD               	movf	USBTransferOnePacket@ep& (0+255),w,b
  3203  001B3E  0D02               	mullw	2
  3204  001B40  0EB4               	movlw	low _pBDTEntryOut
  3205  001B42  24F3               	addwf	prodl,w,c
  3206  001B44  6ED9               	movwf	fsr2l,c
  3207  001B46  0E00               	movlw	high _pBDTEntryOut
  3208  001B48                     L1:
  3209  001B48  20F4               	addwfc	prodh,w,c
  3210  001B4A  6EDA               	movwf	fsr2h,c
  3211  001B4C  CFDE F0DE          	movff	postinc2,USBTransferOnePacket@handle
  3212  001B50  CFDD F0DF          	movff	postdec2,USBTransferOnePacket@handle+1
  3213                           
  3214                           ; BSR set to: 0
  3215                           ;usb/usb_device.c: 1017:     if(handle == 0)
  3216  001B54  51DE               	movf	USBTransferOnePacket@handle& (0+255),w,b
  3217  001B56  11DF               	iorwf	(USBTransferOnePacket@handle+1)& (0+255),w,b
  3218  001B58  A4D8               	btfss	status,2,c
  3219  001B5A  D005               	goto	l5805
  3220                           
  3221                           ; BSR set to: 0
  3222                           ;usb/usb_device.c: 1018:     {;usb/usb_device.c: 1019:         return 0;
  3223  001B5C  0E00               	movlw	0
  3224  001B5E  6FD5               	movwf	?_USBTransferOnePacket& (0+255),b
  3225  001B60  0E00               	movlw	0
  3226  001B62  6FD6               	movwf	(?_USBTransferOnePacket+1)& (0+255),b
  3227  001B64  0012               	return	
  3228  001B66                     l5805:
  3229                           
  3230                           ; BSR set to: 0
  3231                           ;usb/usb_device.c: 1033:     handle->ADR = ((uint16_t)(data));
  3232  001B66  EE20 F002          	lfsr	2,2
  3233  001B6A  51DE               	movf	USBTransferOnePacket@handle& (0+255),w,b
  3234  001B6C  26D9               	addwf	fsr2l,f,c
  3235  001B6E  51DF               	movf	(USBTransferOnePacket@handle+1)& (0+255),w,b
  3236  001B70  22DA               	addwfc	fsr2h,f,c
  3237  001B72  C0D6  FFDE         	movff	USBTransferOnePacket@data,postinc2
  3238  001B76  C0D7  FFDD         	movff	USBTransferOnePacket@data+1,postdec2
  3239                           
  3240                           ;usb/usb_device.c: 1034:     handle->CNT = len;
  3241  001B7A  EE20 F001          	lfsr	2,1
  3242  001B7E  51DE               	movf	USBTransferOnePacket@handle& (0+255),w,b
  3243  001B80  26D9               	addwf	fsr2l,f,c
  3244  001B82  51DF               	movf	(USBTransferOnePacket@handle+1)& (0+255),w,b
  3245  001B84  22DA               	addwfc	fsr2h,f,c
  3246  001B86  C0D8  FFDF         	movff	USBTransferOnePacket@len,indf2
  3247                           
  3248                           ; BSR set to: 0
  3249                           ;usb/usb_device.c: 1035:     handle->STAT.Val &= 0x40;
  3250  001B8A  C0DE  FFD9         	movff	USBTransferOnePacket@handle,fsr2l
  3251  001B8E  C0DF  FFDA         	movff	USBTransferOnePacket@handle+1,fsr2h
  3252  001B92  0E40               	movlw	64
  3253  001B94  16DF               	andwf	indf2,f,c
  3254                           
  3255                           ; BSR set to: 0
  3256                           ;usb/usb_device.c: 1036:     handle->STAT.Val |= (0x08 & 0x08);
  3257  001B96  C0DE  FFD9         	movff	USBTransferOnePacket@handle,fsr2l
  3258  001B9A  C0DF  FFDA         	movff	USBTransferOnePacket@handle+1,fsr2h
  3259  001B9E  0E00               	movlw	0
  3260  001BA0  86DB               	bsf	plusw2,3,c
  3261                           
  3262                           ; BSR set to: 0
  3263                           ;usb/usb_device.c: 1037:     handle->STAT.Val |= 0x80;
  3264  001BA2  C0DE  FFD9         	movff	USBTransferOnePacket@handle,fsr2l
  3265  001BA6  C0DF  FFDA         	movff	USBTransferOnePacket@handle+1,fsr2h
  3266  001BAA  0E00               	movlw	0
  3267  001BAC  8EDB               	bsf	plusw2,7,c
  3268                           
  3269                           ; BSR set to: 0
  3270                           ;usb/usb_device.c: 1040:     if(dir != 0)
  3271  001BAE  51D5               	movf	USBTransferOnePacket@dir& (0+255),w,b
  3272  001BB0  B4D8               	btfsc	status,2,c
  3273  001BB2  D018               	goto	l5817
  3274                           
  3275                           ; BSR set to: 0
  3276                           ;usb/usb_device.c: 1041:     {;usb/usb_device.c: 1043:         pBDTEntryIn[ep] = (BDT_EN
      +                          TRY*)(((uint16_t)pBDTEntryIn[ep]) ^ 0x0004);
  3277  001BB4  51DD               	movf	USBTransferOnePacket@ep& (0+255),w,b
  3278  001BB6  0D02               	mullw	2
  3279  001BB8  0EAE               	movlw	low _pBDTEntryIn
  3280  001BBA  24F3               	addwf	prodl,w,c
  3281  001BBC  6ED9               	movwf	fsr2l,c
  3282  001BBE  0E00               	movlw	high _pBDTEntryIn
  3283  001BC0  20F4               	addwfc	prodh,w,c
  3284  001BC2  6EDA               	movwf	fsr2h,c
  3285  001BC4  CFDE F0D9          	movff	postinc2,??_USBTransferOnePacket
  3286  001BC8  CFDD F0DA          	movff	postdec2,??_USBTransferOnePacket+1
  3287  001BCC  0E04               	movlw	4
  3288  001BCE  19D9               	xorwf	??_USBTransferOnePacket& (0+255),w,b
  3289  001BD0  6FDB               	movwf	(??_USBTransferOnePacket+2)& (0+255),b
  3290  001BD2  51DA               	movf	(??_USBTransferOnePacket+1)& (0+255),w,b
  3291  001BD4  6FDC               	movwf	(??_USBTransferOnePacket+3)& (0+255),b
  3292  001BD6  51DD               	movf	USBTransferOnePacket@ep& (0+255),w,b
  3293  001BD8  0D02               	mullw	2
  3294  001BDA  0EAE               	movlw	low _pBDTEntryIn
  3295  001BDC  24F3               	addwf	prodl,w,c
  3296  001BDE  6ED9               	movwf	fsr2l,c
  3297  001BE0  0E00               	movlw	high _pBDTEntryIn
  3298  001BE2  D017               	goto	L2
  3299  001BE4                     l5817:
  3300                           
  3301                           ; BSR set to: 0
  3302                           ;usb/usb_device.c: 1046:     {;usb/usb_device.c: 1048:         pBDTEntryOut[ep] = (BDT_E
      +                          NTRY*)(((uint16_t)pBDTEntryOut[ep]) ^ 0x0004);
  3303  001BE4  51DD               	movf	USBTransferOnePacket@ep& (0+255),w,b
  3304  001BE6  0D02               	mullw	2
  3305  001BE8  0EB4               	movlw	low _pBDTEntryOut
  3306  001BEA  24F3               	addwf	prodl,w,c
  3307  001BEC  6ED9               	movwf	fsr2l,c
  3308  001BEE  0E00               	movlw	high _pBDTEntryOut
  3309  001BF0  20F4               	addwfc	prodh,w,c
  3310  001BF2  6EDA               	movwf	fsr2h,c
  3311  001BF4  CFDE F0D9          	movff	postinc2,??_USBTransferOnePacket
  3312  001BF8  CFDD F0DA          	movff	postdec2,??_USBTransferOnePacket+1
  3313  001BFC  0E04               	movlw	4
  3314  001BFE  19D9               	xorwf	??_USBTransferOnePacket& (0+255),w,b
  3315  001C00  6FDB               	movwf	(??_USBTransferOnePacket+2)& (0+255),b
  3316  001C02  51DA               	movf	(??_USBTransferOnePacket+1)& (0+255),w,b
  3317  001C04  6FDC               	movwf	(??_USBTransferOnePacket+3)& (0+255),b
  3318  001C06  51DD               	movf	USBTransferOnePacket@ep& (0+255),w,b
  3319  001C08  0D02               	mullw	2
  3320  001C0A  0EB4               	movlw	low _pBDTEntryOut
  3321  001C0C  24F3               	addwf	prodl,w,c
  3322  001C0E  6ED9               	movwf	fsr2l,c
  3323  001C10  0E00               	movlw	high _pBDTEntryOut
  3324  001C12                     L2:
  3325  001C12  20F4               	addwfc	prodh,w,c
  3326  001C14  6EDA               	movwf	fsr2h,c
  3327  001C16  C0DB  FFDE         	movff	??_USBTransferOnePacket+2,postinc2
  3328  001C1A  C0DC  FFDD         	movff	??_USBTransferOnePacket+3,postdec2
  3329                           
  3330                           ; BSR set to: 0
  3331                           ;usb/usb_device.c: 1050:     return (void*)handle;
  3332  001C1E  C0DE  F0D5         	movff	USBTransferOnePacket@handle,?_USBTransferOnePacket
  3333  001C22  C0DF  F0D6         	movff	USBTransferOnePacket@handle+1,?_USBTransferOnePacket+1
  3334                           
  3335                           ; BSR set to: 0
  3336  001C26  0012               	return		;funcret
  3337  001C28                     __end_of_USBTransferOnePacket:
  3338                           	opt callstack 0
  3339                           
  3340 ;; *************** function _ProcessKeyboard *****************
  3341 ;; Defined at:
  3342 ;;		line 452 in file "device_keyboard.c"
  3343 ;; Parameters:    Size  Location     Type
  3344 ;;		None
  3345 ;; Auto vars:     Size  Location     Type
  3346 ;;  n               1   15[BANK0 ] unsigned char 
  3347 ;;  n               1   14[BANK0 ] unsigned char 
  3348 ;;  n               1   13[BANK0 ] unsigned char 
  3349 ;;  latWriter       1   17[BANK0 ] unsigned char 
  3350 ;;  line            1   16[BANK0 ] unsigned char 
  3351 ;; Return value:  Size  Location     Type
  3352 ;;                  1    wreg      void 
  3353 ;; Registers used:
  3354 ;;		wreg, fsr1l, fsr1h, fsr2l, fsr2h, status,2, status,0, prodl, prodh, cstack
  3355 ;; Tracked objects:
  3356 ;;		On entry : 0/0
  3357 ;;		On exit  : 0/0
  3358 ;;		Unchanged: 0/0
  3359 ;; Data sizes:     COMRAM   BANK0   BANK1   BANK2   BANK3   BANK4  BANK5h  BANK5l   BANK6   BANK7
  3360 ;;      Params:         0       0       0       0       0       0       0       0       0       0
  3361 ;;      Locals:         0       5       0       0       0       0       0       0       0       0
  3362 ;;      Temps:          0       0       0       0       0       0       0       0       0       0
  3363 ;;      Totals:         0       5       0       0       0       0       0       0       0       0
  3364 ;;Total ram usage:        5 bytes
  3365 ;; Hardware stack levels used:    1
  3366 ;; Hardware stack levels required when called:   12
  3367 ;; This function calls:
  3368 ;;		_ProcessLine
  3369 ;;		_SortSendList
  3370 ;; This function is called by:
  3371 ;;		_APP_KeyboardTasks
  3372 ;; This function uses a non-reentrant model
  3373 ;;
  3374                           
  3375                           	psect	text9
  3376  002680                     __ptext9:
  3377                           	opt callstack 0
  3378  002680                     _ProcessKeyboard:
  3379                           	opt callstack 17
  3380                           
  3381                           ;device_keyboard.c: 454:     uint8_t line = 0;
  3382                           
  3383                           ; BSR set to: 0
  3384                           ;incstack = 0
  3385  002680  0E00               	movlw	0
  3386  002682  0100               	movlb	0	; () banked
  3387  002684  6FE5               	movwf	ProcessKeyboard@line& (0+255),b
  3388                           
  3389                           ;device_keyboard.c: 455:     uint8_t latWriter = 0b00000001;
  3390  002686  0E01               	movlw	1
  3391  002688  6FE6               	movwf	ProcessKeyboard@latWriter& (0+255),b
  3392                           
  3393                           ;device_keyboard.c: 457:     for(uint8_t n = 0; n < 8; n++){
  3394  00268A  0E00               	movlw	0
  3395  00268C  6FE2               	movwf	ProcessKeyboard@n& (0+255),b
  3396  00268E                     l641:
  3397                           
  3398                           ; BSR set to: 0
  3399                           ;device_keyboard.c: 459:         LATD = latWriter;
  3400  00268E  C0E6  FF8C         	movff	ProcessKeyboard@latWriter,3980	;volatile
  3401                           
  3402                           ; BSR set to: 0
  3403                           ;device_keyboard.c: 460:         latWriter = latWriter << 1;
  3404  002692  51E6               	movf	ProcessKeyboard@latWriter& (0+255),w,b
  3405  002694  25E6               	addwf	ProcessKeyboard@latWriter& (0+255),w,b
  3406  002696  6FE6               	movwf	ProcessKeyboard@latWriter& (0+255),b
  3407                           
  3408                           ; BSR set to: 0
  3409                           ;device_keyboard.c: 461:         ProcessLine(line);
  3410  002698  51E5               	movf	ProcessKeyboard@line& (0+255),w,b
  3411  00269A  EC64  F012         	call	_ProcessLine
  3412                           
  3413                           ;device_keyboard.c: 462:         line++;
  3414  00269E  0100               	movlb	0	; () banked
  3415  0026A0  2BE5               	incf	ProcessKeyboard@line& (0+255),f,b
  3416                           
  3417                           ; BSR set to: 0
  3418                           ;device_keyboard.c: 463:     }
  3419  0026A2  2BE2               	incf	ProcessKeyboard@n& (0+255),f,b
  3420                           
  3421                           ; BSR set to: 0
  3422  0026A4  0E07               	movlw	7
  3423  0026A6  65E2               	cpfsgt	ProcessKeyboard@n& (0+255),b
  3424  0026A8  D7F2               	goto	l641
  3425                           
  3426                           ; BSR set to: 0
  3427                           ;device_keyboard.c: 465:     LATD = 0b00000000;
  3428  0026AA  0E00               	movlw	0
  3429  0026AC  6E8C               	movwf	3980,c	;volatile
  3430                           
  3431                           ;device_keyboard.c: 466:     latWriter = 0b00000001;
  3432  0026AE  0E01               	movlw	1
  3433  0026B0  6FE6               	movwf	ProcessKeyboard@latWriter& (0+255),b
  3434                           
  3435                           ;device_keyboard.c: 468:     for(uint8_t n = 0; n < 6; n++){
  3436  0026B2  0E00               	movlw	0
  3437  0026B4  6FE3               	movwf	ProcessKeyboard@n_2367& (0+255),b
  3438  0026B6                     l643:
  3439                           
  3440                           ; BSR set to: 0
  3441                           ;device_keyboard.c: 470:         LATB = latWriter;
  3442  0026B6  C0E6  FF8A         	movff	ProcessKeyboard@latWriter,3978	;volatile
  3443                           
  3444                           ; BSR set to: 0
  3445                           ;device_keyboard.c: 471:         latWriter = latWriter << 1;
  3446  0026BA  51E6               	movf	ProcessKeyboard@latWriter& (0+255),w,b
  3447  0026BC  25E6               	addwf	ProcessKeyboard@latWriter& (0+255),w,b
  3448  0026BE  6FE6               	movwf	ProcessKeyboard@latWriter& (0+255),b
  3449                           
  3450                           ; BSR set to: 0
  3451                           ;device_keyboard.c: 472:         ProcessLine(line);
  3452  0026C0  51E5               	movf	ProcessKeyboard@line& (0+255),w,b
  3453  0026C2  EC64  F012         	call	_ProcessLine
  3454                           
  3455                           ;device_keyboard.c: 473:         line++;
  3456  0026C6  0100               	movlb	0	; () banked
  3457  0026C8  2BE5               	incf	ProcessKeyboard@line& (0+255),f,b
  3458                           
  3459                           ; BSR set to: 0
  3460                           ;device_keyboard.c: 475:     }
  3461  0026CA  2BE3               	incf	ProcessKeyboard@n_2367& (0+255),f,b
  3462                           
  3463                           ; BSR set to: 0
  3464  0026CC  0E05               	movlw	5
  3465  0026CE  65E3               	cpfsgt	ProcessKeyboard@n_2367& (0+255),b
  3466  0026D0  D7F2               	goto	l643
  3467                           
  3468                           ; BSR set to: 0
  3469                           ;device_keyboard.c: 477:     LATB = 0b00000000;
  3470  0026D2  0E00               	movlw	0
  3471  0026D4  6E8A               	movwf	3978,c	;volatile
  3472                           
  3473                           ;device_keyboard.c: 478:     latWriter = 0b00000001;
  3474  0026D6  0E01               	movlw	1
  3475  0026D8  6FE6               	movwf	ProcessKeyboard@latWriter& (0+255),b
  3476                           
  3477                           ;device_keyboard.c: 480:     for(uint8_t n = 0; n < 3; n++){
  3478  0026DA  0E00               	movlw	0
  3479  0026DC  6FE4               	movwf	ProcessKeyboard@n_2368& (0+255),b
  3480  0026DE                     l645:
  3481                           
  3482                           ; BSR set to: 0
  3483                           ;device_keyboard.c: 482:         LATC = latWriter;
  3484  0026DE  C0E6  FF8B         	movff	ProcessKeyboard@latWriter,3979	;volatile
  3485                           
  3486                           ; BSR set to: 0
  3487                           ;device_keyboard.c: 483:         latWriter = latWriter << 1;
  3488  0026E2  51E6               	movf	ProcessKeyboard@latWriter& (0+255),w,b
  3489  0026E4  25E6               	addwf	ProcessKeyboard@latWriter& (0+255),w,b
  3490  0026E6  6FE6               	movwf	ProcessKeyboard@latWriter& (0+255),b
  3491                           
  3492                           ; BSR set to: 0
  3493                           ;device_keyboard.c: 485:         ProcessLine(line);
  3494  0026E8  51E5               	movf	ProcessKeyboard@line& (0+255),w,b
  3495  0026EA  EC64  F012         	call	_ProcessLine
  3496                           
  3497                           ;device_keyboard.c: 486:         line++;
  3498  0026EE  0100               	movlb	0	; () banked
  3499  0026F0  2BE5               	incf	ProcessKeyboard@line& (0+255),f,b
  3500                           
  3501                           ; BSR set to: 0
  3502                           ;device_keyboard.c: 488:     }
  3503  0026F2  2BE4               	incf	ProcessKeyboard@n_2368& (0+255),f,b
  3504                           
  3505                           ; BSR set to: 0
  3506  0026F4  0E02               	movlw	2
  3507  0026F6  65E4               	cpfsgt	ProcessKeyboard@n_2368& (0+255),b
  3508  0026F8  D7F2               	goto	l645
  3509                           
  3510                           ; BSR set to: 0
  3511                           ;device_keyboard.c: 490:     LATC = 0b00000000;
  3512  0026FA  0E00               	movlw	0
  3513  0026FC  6E8B               	movwf	3979,c	;volatile
  3514                           
  3515                           ; BSR set to: 0
  3516                           ;device_keyboard.c: 492:     SortSendList();
  3517  0026FE  EC7E  F00C         	call	_SortSendList	;wreg free
  3518  002702  0012               	return		;funcret
  3519  002704                     __end_of_ProcessKeyboard:
  3520                           	opt callstack 0
  3521                           
  3522 ;; *************** function _SortSendList *****************
  3523 ;; Defined at:
  3524 ;;		line 388 in file "device_keyboard.c"
  3525 ;; Parameters:    Size  Location     Type
  3526 ;;		None
  3527 ;; Auto vars:     Size  Location     Type
  3528 ;;  j               1    5[BANK0 ] unsigned char 
  3529 ;;  i               1    6[BANK0 ] unsigned char 
  3530 ;;  5619            3    2[BANK0 ] struct keyStruct
  3531 ;; Return value:  Size  Location     Type
  3532 ;;                  1    wreg      void 
  3533 ;; Registers used:
  3534 ;;		wreg, fsr1l, fsr1h, fsr2l, fsr2h, status,2, status,0, prodl, prodh
  3535 ;; Tracked objects:
  3536 ;;		On entry : 0/0
  3537 ;;		On exit  : 0/0
  3538 ;;		Unchanged: 0/0
  3539 ;; Data sizes:     COMRAM   BANK0   BANK1   BANK2   BANK3   BANK4  BANK5h  BANK5l   BANK6   BANK7
  3540 ;;      Params:         0       0       0       0       0       0       0       0       0       0
  3541 ;;      Locals:         0       5       0       0       0       0       0       0       0       0
  3542 ;;      Temps:          0       2       0       0       0       0       0       0       0       0
  3543 ;;      Totals:         0       7       0       0       0       0       0       0       0       0
  3544 ;;Total ram usage:        7 bytes
  3545 ;; Hardware stack levels used:    1
  3546 ;; Hardware stack levels required when called:   10
  3547 ;; This function calls:
  3548 ;;		Nothing
  3549 ;; This function is called by:
  3550 ;;		_ProcessKeyboard
  3551 ;; This function uses a non-reentrant model
  3552 ;;
  3553                           
  3554                           	psect	text10
  3555  0018FC                     __ptext10:
  3556                           	opt callstack 0
  3557  0018FC                     _SortSendList:
  3558                           	opt callstack 18
  3559                           
  3560                           ;device_keyboard.c: 412:     for(uint8_t j = 0;j < 8;j++){ SendList[j] = (KeyStruct){.ke
      +                          yCode = 0,.modifier = 0,.type = 0};};device_keyboard.c: 390:     if(SendListCount == 0){
      +                          return;}
  3561                           
  3562                           ;incstack = 0
  3563  0018FC  5017               	movf	_SendListCount,w,c
  3564  0018FE  B4D8               	btfsc	status,2,c
  3565  001900  0012               	return	
  3566                           
  3567                           ;device_keyboard.c: 392:     for(uint8_t i = 0; i < SendListCount; i++){
  3568  001902  0E00               	movlw	0
  3569  001904  0100               	movlb	0	; () banked
  3570  001906  6FDB               	movwf	SortSendList@i& (0+255),b
  3571  001908  D065               	goto	l5683
  3572  00190A                     l5663:
  3573                           
  3574                           ; BSR set to: 0
  3575                           ;device_keyboard.c: 396:                 CharKeyList[CharListCount] = SendList[i];
  3576  00190A  51DB               	movf	SortSendList@i& (0+255),w,b
  3577  00190C  0D03               	mullw	3
  3578  00190E  0E78               	movlw	low _SendList
  3579  001910  24F3               	addwf	prodl,w,c
  3580  001912  6ED9               	movwf	fsr2l,c
  3581  001914  0E00               	movlw	high _SendList
  3582  001916  20F4               	addwfc	prodh,w,c
  3583  001918  6EDA               	movwf	fsr2h,c
  3584  00191A  5016               	movf	_CharListCount,w,c
  3585  00191C  0D03               	mullw	3
  3586  00191E  0E60               	movlw	low _CharKeyList
  3587  001920  24F3               	addwf	prodl,w,c
  3588  001922  6EE1               	movwf	fsr1l,c
  3589  001924  0E00               	movlw	high _CharKeyList
  3590  001926  20F4               	addwfc	prodh,w,c
  3591  001928  6EE2               	movwf	fsr1h,c
  3592  00192A  CFDE FFE6          	movff	postinc2,postinc1
  3593  00192E  CFDE FFE6          	movff	postinc2,postinc1
  3594  001932  CFDE FFE6          	movff	postinc2,postinc1
  3595                           
  3596                           ; BSR set to: 0
  3597                           ;device_keyboard.c: 397:                 CharListCount++;
  3598  001936  2A16               	incf	_CharListCount,f,c
  3599                           
  3600                           ;device_keyboard.c: 398:                 break;
  3601  001938  D04C               	goto	l5681
  3602  00193A                     l5667:
  3603                           
  3604                           ; BSR set to: 0
  3605                           ;device_keyboard.c: 400:                 ModKeyList[ModListCount] = SendList[i];
  3606  00193A  51DB               	movf	SortSendList@i& (0+255),w,b
  3607  00193C  0D03               	mullw	3
  3608  00193E  0E78               	movlw	low _SendList
  3609  001940  24F3               	addwf	prodl,w,c
  3610  001942  6ED9               	movwf	fsr2l,c
  3611  001944  0E00               	movlw	high _SendList
  3612  001946  20F4               	addwfc	prodh,w,c
  3613  001948  6EDA               	movwf	fsr2h,c
  3614  00194A  5015               	movf	_ModListCount,w,c
  3615  00194C  0D03               	mullw	3
  3616  00194E  0E18               	movlw	low _ModKeyList
  3617  001950  24F3               	addwf	prodl,w,c
  3618  001952  6EE1               	movwf	fsr1l,c
  3619  001954  0E01               	movlw	high _ModKeyList
  3620  001956  20F4               	addwfc	prodh,w,c
  3621  001958  6EE2               	movwf	fsr1h,c
  3622  00195A  CFDE FFE6          	movff	postinc2,postinc1
  3623  00195E  CFDE FFE6          	movff	postinc2,postinc1
  3624  001962  CFDE FFE6          	movff	postinc2,postinc1
  3625                           
  3626                           ; BSR set to: 0
  3627                           ;device_keyboard.c: 401:                 ModListCount++;
  3628  001966  2A15               	incf	_ModListCount,f,c
  3629                           
  3630                           ;device_keyboard.c: 402:                 break;
  3631  001968  D034               	goto	l5681
  3632  00196A                     l5671:
  3633                           
  3634                           ; BSR set to: 0
  3635                           ;device_keyboard.c: 404:                 if(EP2ListCount < 4){
  3636  00196A  0E04               	movlw	4
  3637  00196C  6014               	cpfslt	_EP2ListCount,c
  3638  00196E  D031               	goto	l5681
  3639                           
  3640                           ; BSR set to: 0
  3641                           ;device_keyboard.c: 405:                     EP2KeyList[EP2ListCount] = SendList[i];
  3642  001970  51DB               	movf	SortSendList@i& (0+255),w,b
  3643  001972  0D03               	mullw	3
  3644  001974  0E78               	movlw	low _SendList
  3645  001976  24F3               	addwf	prodl,w,c
  3646  001978  6ED9               	movwf	fsr2l,c
  3647  00197A  0E00               	movlw	high _SendList
  3648  00197C  20F4               	addwfc	prodh,w,c
  3649  00197E  6EDA               	movwf	fsr2h,c
  3650  001980  5014               	movf	_EP2ListCount,w,c
  3651  001982  0D03               	mullw	3
  3652  001984  0E00               	movlw	low _EP2KeyList
  3653  001986  24F3               	addwf	prodl,w,c
  3654  001988  6EE1               	movwf	fsr1l,c
  3655  00198A  0E01               	movlw	high _EP2KeyList
  3656  00198C  20F4               	addwfc	prodh,w,c
  3657  00198E  6EE2               	movwf	fsr1h,c
  3658  001990  CFDE FFE6          	movff	postinc2,postinc1
  3659  001994  CFDE FFE6          	movff	postinc2,postinc1
  3660  001998  CFDE FFE6          	movff	postinc2,postinc1
  3661                           
  3662                           ; BSR set to: 0
  3663                           ;device_keyboard.c: 406:                     EP2ListCount++;
  3664  00199C  2A14               	incf	_EP2ListCount,f,c
  3665  00199E  D019               	goto	l5681
  3666  0019A0                     l5679:
  3667                           
  3668                           ; BSR set to: 0
  3669  0019A0  51DB               	movf	SortSendList@i& (0+255),w,b
  3670  0019A2  0D03               	mullw	3
  3671  0019A4  0E7A               	movlw	low (_SendList+2)
  3672  0019A6  24F3               	addwf	prodl,w,c
  3673  0019A8  6ED9               	movwf	fsr2l,c
  3674  0019AA  0E00               	movlw	high (_SendList+2)
  3675  0019AC  20F4               	addwfc	prodh,w,c
  3676  0019AE  6EDA               	movwf	fsr2h,c
  3677  0019B0  50DF               	movf	indf2,w,c
  3678  0019B2  6FD5               	movwf	??_SortSendList& (0+255),b
  3679  0019B4  6BD6               	clrf	(??_SortSendList+1)& (0+255),b
  3680                           
  3681                           ; Switch on 2 bytes has been partitioned into a top level switch of size 1, and 1 sub-sw
      +                          itches
  3682                           ; Switch size 1, requested type "simple"
  3683                           ; Number of cases is 1, Range of values is 0 to 0
  3684                           ; switch strategies available:
  3685                           ; Name         Instructions Cycles
  3686                           ; simple_byte            4     3 (average)
  3687                           ;	Chosen strategy is simple_byte
  3688  0019B6  51D6               	movf	(??_SortSendList+1)& (0+255),w,b
  3689  0019B8  0A00               	xorlw	0	; case 0
  3690  0019BA  A4D8               	btfss	status,2,c
  3691  0019BC  D00A               	goto	l5681
  3692                           
  3693                           ; BSR set to: 0
  3694                           ; Switch size 1, requested type "simple"
  3695                           ; Number of cases is 3, Range of values is 1 to 3
  3696                           ; switch strategies available:
  3697                           ; Name         Instructions Cycles
  3698                           ; simple_byte           10     6 (average)
  3699                           ;	Chosen strategy is simple_byte
  3700  0019BE  51D5               	movf	??_SortSendList& (0+255),w,b
  3701  0019C0  0A01               	xorlw	1	; case 1
  3702  0019C2  B4D8               	btfsc	status,2,c
  3703  0019C4  D7A2               	goto	l5663
  3704  0019C6  0A03               	xorlw	3	; case 2
  3705  0019C8  B4D8               	btfsc	status,2,c
  3706  0019CA  D7B7               	goto	l5667
  3707  0019CC  0A01               	xorlw	1	; case 3
  3708  0019CE  B4D8               	btfsc	status,2,c
  3709  0019D0  D7CC               	goto	l5671
  3710  0019D2                     l5681:
  3711                           
  3712                           ; BSR set to: 0
  3713                           ;device_keyboard.c: 410:     }
  3714  0019D2  2BDB               	incf	SortSendList@i& (0+255),f,b
  3715  0019D4                     l5683:
  3716                           
  3717                           ; BSR set to: 0
  3718  0019D4  5017               	movf	_SendListCount,w,c
  3719  0019D6  5DDB               	subwf	SortSendList@i& (0+255),w,b
  3720  0019D8  A0D8               	btfss	status,0,c
  3721  0019DA  D7E2               	goto	l5679
  3722                           
  3723                           ; BSR set to: 0
  3724                           ;device_keyboard.c: 412:     for(uint8_t j = 0;j < 8;j++){ SendList[j] = (KeyStruct){.ke
      +                          yCode = 0,.modifier = 0,.type = 0};}
  3725  0019DC  0E00               	movlw	0
  3726  0019DE  6FDA               	movwf	SortSendList@j& (0+255),b
  3727  0019E0                     l625:
  3728                           
  3729                           ; BSR set to: 0
  3730  0019E0  C005  F0D7         	movff	SortSendList@F5618,SortSendList@5619
  3731  0019E4  C006  F0D8         	movff	SortSendList@F5618+1,SortSendList@5619+1
  3732  0019E8  C007  F0D9         	movff	SortSendList@F5618+2,SortSendList@5619+2
  3733                           
  3734                           ; BSR set to: 0
  3735  0019EC  51DA               	movf	SortSendList@j& (0+255),w,b
  3736  0019EE  0D03               	mullw	3
  3737  0019F0  0E78               	movlw	low _SendList
  3738  0019F2  24F3               	addwf	prodl,w,c
  3739  0019F4  6ED9               	movwf	fsr2l,c
  3740  0019F6  0E00               	movlw	high _SendList
  3741  0019F8  20F4               	addwfc	prodh,w,c
  3742  0019FA  6EDA               	movwf	fsr2h,c
  3743  0019FC  C0D7  FFDE         	movff	SortSendList@5619,postinc2
  3744  001A00  C0D8  FFDE         	movff	SortSendList@5619+1,postinc2
  3745  001A04  C0D9  FFDE         	movff	SortSendList@5619+2,postinc2
  3746                           
  3747                           ; BSR set to: 0
  3748  001A08  2BDA               	incf	SortSendList@j& (0+255),f,b
  3749                           
  3750                           ; BSR set to: 0
  3751  001A0A  0E07               	movlw	7
  3752  001A0C  65DA               	cpfsgt	SortSendList@j& (0+255),b
  3753  001A0E  D7E8               	goto	l625
  3754                           
  3755                           ; BSR set to: 0
  3756                           ;device_keyboard.c: 414:     SendListCount = 0;
  3757  001A10  0E00               	movlw	0
  3758  001A12  6E17               	movwf	_SendListCount,c
  3759  001A14  0012               	return		;funcret
  3760  001A16                     __end_of_SortSendList:
  3761                           	opt callstack 0
  3762                           
  3763 ;; *************** function _ProcessLine *****************
  3764 ;; Defined at:
  3765 ;;		line 426 in file "device_keyboard.c"
  3766 ;; Parameters:    Size  Location     Type
  3767 ;;  lineNo          1    wreg     unsigned char 
  3768 ;; Auto vars:     Size  Location     Type
  3769 ;;  lineNo          1    7[BANK0 ] unsigned char 
  3770 ;;  i               1   12[BANK0 ] unsigned char 
  3771 ;;  x               1   11[BANK0 ] unsigned char 
  3772 ;;  filt            1   10[BANK0 ] unsigned char 
  3773 ;;  readBuf         1    9[BANK0 ] unsigned char 
  3774 ;;  tempBuf         1    8[BANK0 ] unsigned char 
  3775 ;; Return value:  Size  Location     Type
  3776 ;;                  1    wreg      void 
  3777 ;; Registers used:
  3778 ;;		wreg, fsr2l, fsr2h, status,2, status,0, prodl, prodh, cstack
  3779 ;; Tracked objects:
  3780 ;;		On entry : 0/0
  3781 ;;		On exit  : 0/0
  3782 ;;		Unchanged: 0/0
  3783 ;; Data sizes:     COMRAM   BANK0   BANK1   BANK2   BANK3   BANK4  BANK5h  BANK5l   BANK6   BANK7
  3784 ;;      Params:         0       0       0       0       0       0       0       0       0       0
  3785 ;;      Locals:         0       6       0       0       0       0       0       0       0       0
  3786 ;;      Temps:          0       4       0       0       0       0       0       0       0       0
  3787 ;;      Totals:         0      10       0       0       0       0       0       0       0       0
  3788 ;;Total ram usage:       10 bytes
  3789 ;; Hardware stack levels used:    1
  3790 ;; Hardware stack levels required when called:   11
  3791 ;; This function calls:
  3792 ;;		_AddToSendList
  3793 ;; This function is called by:
  3794 ;;		_ProcessKeyboard
  3795 ;; This function uses a non-reentrant model
  3796 ;;
  3797                           
  3798                           	psect	text11
  3799  0024C8                     __ptext11:
  3800                           	opt callstack 0
  3801  0024C8                     _ProcessLine:
  3802                           	opt callstack 17
  3803                           
  3804                           ;incstack = 0
  3805                           ;ProcessLine@lineNo stored from wreg
  3806  0024C8  0100               	movlb	0	; () banked
  3807  0024CA  6FDC               	movwf	ProcessLine@lineNo& (0+255),b
  3808                           
  3809                           ;device_keyboard.c: 428:     uint8_t readBuf, tempBuf;;device_keyboard.c: 429:     uint8
      +                          _t filt = 0b00000001;
  3810  0024CC  0E01               	movlw	1
  3811  0024CE  0100               	movlb	0	; () banked
  3812  0024D0  6FDF               	movwf	ProcessLine@filt& (0+255),b
  3813                           
  3814                           ;device_keyboard.c: 433:     readBuf = 0;
  3815  0024D2  0E00               	movlw	0
  3816  0024D4  6FDE               	movwf	ProcessLine@readBuf& (0+255),b
  3817                           
  3818                           ; BSR set to: 0
  3819                           ;device_keyboard.c: 434:     _delay((unsigned long)((5)*(8000000/4000.0)));
  3820  0024D6  0E0D               	movlw	13
  3821  0024D8  0100               	movlb	0	; () banked
  3822  0024DA  6FD8               	movwf	??_ProcessLine& (0+255),b
  3823  0024DC  0EFB               	movlw	251
  3824  0024DE                     u4637:
  3825  0024DE  2EE8               	decfsz	wreg,f,c
  3826  0024E0  D7FE               	bra	u4637
  3827  0024E2  2FD8               	decfsz	??_ProcessLine& (0+255),f,b
  3828  0024E4  D7FC               	bra	u4637
  3829  0024E6  D000               	nop2	
  3830                           
  3831                           ;device_keyboard.c: 436:     for(uint8_t x = 0; x<5; x++){
  3832  0024E8  0E00               	movlw	0
  3833  0024EA  0100               	movlb	0	; () banked
  3834  0024EC  6FE0               	movwf	ProcessLine@x& (0+255),b
  3835  0024EE                     l633:
  3836                           
  3837                           ; BSR set to: 0
  3838                           ;device_keyboard.c: 437:         tempBuf = PORTA;
  3839  0024EE  CF80 F0DD          	movff	3968,ProcessLine@tempBuf	;volatile
  3840                           
  3841                           ; BSR set to: 0
  3842                           ;device_keyboard.c: 438:         readBuf = readBuf | tempBuf;
  3843  0024F2  51DE               	movf	ProcessLine@readBuf& (0+255),w,b
  3844  0024F4  11DD               	iorwf	ProcessLine@tempBuf& (0+255),w,b
  3845  0024F6  6FDE               	movwf	ProcessLine@readBuf& (0+255),b
  3846                           
  3847                           ; BSR set to: 0
  3848                           ;device_keyboard.c: 439:     }
  3849  0024F8  2BE0               	incf	ProcessLine@x& (0+255),f,b
  3850                           
  3851                           ; BSR set to: 0
  3852  0024FA  0E04               	movlw	4
  3853  0024FC  65E0               	cpfsgt	ProcessLine@x& (0+255),b
  3854  0024FE  D7F7               	goto	l633
  3855                           
  3856                           ; BSR set to: 0
  3857                           ;device_keyboard.c: 442:     for(uint8_t i = 0; i < 8; i++){
  3858  002500  0E00               	movlw	0
  3859  002502  6FE1               	movwf	ProcessLine@i& (0+255),b
  3860  002504                     l5727:
  3861                           
  3862                           ; BSR set to: 0
  3863                           ;device_keyboard.c: 443:         if((readBuf & filt) != 0){
  3864  002504  51DE               	movf	ProcessLine@readBuf& (0+255),w,b
  3865  002506  15DF               	andwf	ProcessLine@filt& (0+255),w,b
  3866  002508  0900               	iorlw	0
  3867  00250A  B4D8               	btfsc	status,2,c
  3868  00250C  D01E               	goto	l5731
  3869                           
  3870                           ; BSR set to: 0
  3871                           ;device_keyboard.c: 444:             AddToSendList(CodeChart[lineNo][i]);
  3872  00250E  51E1               	movf	ProcessLine@i& (0+255),w,b
  3873  002510  0D03               	mullw	3
  3874  002512  CFF3 F0D8          	movff	prodl,??_ProcessLine
  3875  002516  CFF4 F0D9          	movff	prodh,??_ProcessLine+1
  3876  00251A  51DC               	movf	ProcessLine@lineNo& (0+255),w,b
  3877  00251C  0D18               	mullw	24
  3878  00251E  0E20               	movlw	low _CodeChart
  3879  002520  6FDA               	movwf	(??_ProcessLine+2)& (0+255),b
  3880  002522  0E05               	movlw	high _CodeChart
  3881  002524  6FDB               	movwf	(??_ProcessLine+3)& (0+255),b
  3882  002526  50F3               	movf	prodl,w,c
  3883  002528  27DA               	addwf	(??_ProcessLine+2)& (0+255),f,b
  3884  00252A  50F4               	movf	prodh,w,c
  3885  00252C  23DB               	addwfc	(??_ProcessLine+3)& (0+255),f,b
  3886  00252E  51D8               	movf	??_ProcessLine& (0+255),w,b
  3887  002530  25DA               	addwf	(??_ProcessLine+2)& (0+255),w,b
  3888  002532  6ED9               	movwf	fsr2l,c
  3889  002534  51D9               	movf	(??_ProcessLine+1)& (0+255),w,b
  3890  002536  21DB               	addwfc	(??_ProcessLine+3)& (0+255),w,b
  3891  002538  6EDA               	movwf	fsr2h,c
  3892  00253A  CFDE F0D5          	movff	postinc2,AddToSendList@keyCode
  3893  00253E  CFDE F0D6          	movff	postinc2,AddToSendList@keyCode+1
  3894  002542  CFDD F0D7          	movff	postdec2,AddToSendList@keyCode+2
  3895  002546  EC77  F016         	call	_AddToSendList	;wreg free
  3896  00254A                     l5731:
  3897                           
  3898                           ;device_keyboard.c: 447:         filt = filt << 1;
  3899  00254A  0100               	movlb	0	; () banked
  3900  00254C  51DF               	movf	ProcessLine@filt& (0+255),w,b
  3901  00254E  25DF               	addwf	ProcessLine@filt& (0+255),w,b
  3902  002550  6FDF               	movwf	ProcessLine@filt& (0+255),b
  3903                           
  3904                           ; BSR set to: 0
  3905                           ;device_keyboard.c: 448:     }
  3906  002552  2BE1               	incf	ProcessLine@i& (0+255),f,b
  3907                           
  3908                           ; BSR set to: 0
  3909  002554  0E07               	movlw	7
  3910  002556  65E1               	cpfsgt	ProcessLine@i& (0+255),b
  3911  002558  D7D5               	goto	l5727
  3912  00255A  0012               	return	
  3913  00255C                     __end_of_ProcessLine:
  3914                           	opt callstack 0
  3915                           
  3916 ;; *************** function _AddToSendList *****************
  3917 ;; Defined at:
  3918 ;;		line 418 in file "device_keyboard.c"
  3919 ;; Parameters:    Size  Location     Type
  3920 ;;  keyCode         3    0[BANK0 ] struct keyStruct
  3921 ;; Auto vars:     Size  Location     Type
  3922 ;;		None
  3923 ;; Return value:  Size  Location     Type
  3924 ;;                  1    wreg      void 
  3925 ;; Registers used:
  3926 ;;		wreg, fsr2l, fsr2h, status,2, status,0, prodl, prodh
  3927 ;; Tracked objects:
  3928 ;;		On entry : 0/0
  3929 ;;		On exit  : 0/0
  3930 ;;		Unchanged: 0/0
  3931 ;; Data sizes:     COMRAM   BANK0   BANK1   BANK2   BANK3   BANK4  BANK5h  BANK5l   BANK6   BANK7
  3932 ;;      Params:         0       3       0       0       0       0       0       0       0       0
  3933 ;;      Locals:         0       0       0       0       0       0       0       0       0       0
  3934 ;;      Temps:          0       0       0       0       0       0       0       0       0       0
  3935 ;;      Totals:         0       3       0       0       0       0       0       0       0       0
  3936 ;;Total ram usage:        3 bytes
  3937 ;; Hardware stack levels used:    1
  3938 ;; Hardware stack levels required when called:   10
  3939 ;; This function calls:
  3940 ;;		Nothing
  3941 ;; This function is called by:
  3942 ;;		_ProcessLine
  3943 ;; This function uses a non-reentrant model
  3944 ;;
  3945                           
  3946                           	psect	text12
  3947  002CEE                     __ptext12:
  3948                           	opt callstack 0
  3949  002CEE                     _AddToSendList:
  3950                           	opt callstack 17
  3951                           
  3952                           ;device_keyboard.c: 420:     if(SendListCount < 8 ){
  3953                           
  3954                           ; BSR set to: 0
  3955                           ;incstack = 0
  3956  002CEE  0E08               	movlw	8
  3957  002CF0  6017               	cpfslt	_SendListCount,c
  3958  002CF2  0012               	return	
  3959                           
  3960                           ;device_keyboard.c: 421:         SendList[SendListCount] = keyCode;
  3961  002CF4  5017               	movf	_SendListCount,w,c
  3962  002CF6  0D03               	mullw	3
  3963  002CF8  0E78               	movlw	low _SendList
  3964  002CFA  24F3               	addwf	prodl,w,c
  3965  002CFC  6ED9               	movwf	fsr2l,c
  3966  002CFE  0E00               	movlw	high _SendList
  3967  002D00  20F4               	addwfc	prodh,w,c
  3968  002D02  6EDA               	movwf	fsr2h,c
  3969  002D04  C0D5  FFDE         	movff	AddToSendList@keyCode,postinc2
  3970  002D08  C0D6  FFDE         	movff	AddToSendList@keyCode+1,postinc2
  3971  002D0C  C0D7  FFDE         	movff	AddToSendList@keyCode+2,postinc2
  3972                           
  3973                           ;device_keyboard.c: 422:         SendListCount++;
  3974  002D10  2A17               	incf	_SendListCount,f,c
  3975  002D12  0012               	return		;funcret
  3976  002D14                     __end_of_AddToSendList:
  3977                           	opt callstack 0
  3978                           
  3979 ;; *************** function _KeyboardProcessOutputReport *****************
  3980 ;; Defined at:
  3981 ;;		line 700 in file "device_keyboard.c"
  3982 ;; Parameters:    Size  Location     Type
  3983 ;;		None
  3984 ;; Auto vars:     Size  Location     Type
  3985 ;;		None
  3986 ;; Return value:  Size  Location     Type
  3987 ;;                  1    wreg      void 
  3988 ;; Registers used:
  3989 ;;		wreg, status,2, status,0, cstack
  3990 ;; Tracked objects:
  3991 ;;		On entry : 0/0
  3992 ;;		On exit  : 0/0
  3993 ;;		Unchanged: 0/0
  3994 ;; Data sizes:     COMRAM   BANK0   BANK1   BANK2   BANK3   BANK4  BANK5h  BANK5l   BANK6   BANK7
  3995 ;;      Params:         0       0       0       0       0       0       0       0       0       0
  3996 ;;      Locals:         0       0       0       0       0       0       0       0       0       0
  3997 ;;      Temps:          0       0       0       0       0       0       0       0       0       0
  3998 ;;      Totals:         0       0       0       0       0       0       0       0       0       0
  3999 ;;Total ram usage:        0 bytes
  4000 ;; Hardware stack levels used:    1
  4001 ;; Hardware stack levels required when called:   11
  4002 ;; This function calls:
  4003 ;;		_LED_Off
  4004 ;;		_LED_On
  4005 ;; This function is called by:
  4006 ;;		_APP_KeyboardTasks
  4007 ;; This function uses a non-reentrant model
  4008 ;;
  4009                           
  4010                           	psect	text13
  4011  002A60                     __ptext13:
  4012                           	opt callstack 0
  4013  002A60                     _KeyboardProcessOutputReport:
  4014                           	opt callstack 18
  4015                           
  4016                           ;device_keyboard.c: 702:     if(outputReport.leds.capsLock)
  4017                           
  4018                           ;incstack = 0
  4019  002A60  0105               	movlb	5	; () banked
  4020  002A62  A308               	btfss	8,1,b	;volatile
  4021  002A64  D004               	goto	l5895
  4022                           
  4023                           ; BSR set to: 5
  4024                           ;device_keyboard.c: 703:     {;device_keyboard.c: 704:         LED_On(LED_E1);
  4025  002A66  0E01               	movlw	1
  4026  002A68  EC4F  F015         	call	_LED_On
  4027                           
  4028                           ;device_keyboard.c: 705:     }
  4029  002A6C  D003               	goto	l5897
  4030  002A6E                     l5895:
  4031                           
  4032                           ; BSR set to: 5
  4033                           ;device_keyboard.c: 707:     {;device_keyboard.c: 708:         LED_Off(LED_E1);
  4034  002A6E  0E01               	movlw	1
  4035  002A70  EC6E  F015         	call	_LED_Off
  4036  002A74                     l5897:
  4037                           
  4038                           ;device_keyboard.c: 711:     if(outputReport.leds.numLock)
  4039  002A74  0105               	movlb	5	; () banked
  4040  002A76  A108               	btfss	8,0,b	;volatile
  4041  002A78  D004               	goto	l5901
  4042                           
  4043                           ; BSR set to: 5
  4044                           ;device_keyboard.c: 712:     {;device_keyboard.c: 713:         LED_On(LED_E2);
  4045  002A7A  0E02               	movlw	2
  4046  002A7C  EC4F  F015         	call	_LED_On
  4047                           
  4048                           ;device_keyboard.c: 714:     }
  4049  002A80  D003               	goto	l5903
  4050  002A82                     l5901:
  4051                           
  4052                           ; BSR set to: 5
  4053                           ;device_keyboard.c: 716:     {;device_keyboard.c: 717:         LED_Off(LED_E2);
  4054  002A82  0E02               	movlw	2
  4055  002A84  EC6E  F015         	call	_LED_Off
  4056  002A88                     l5903:
  4057                           
  4058                           ;device_keyboard.c: 720:     if(outputReport.leds.scrollLock)
  4059  002A88  0105               	movlb	5	; () banked
  4060  002A8A  A508               	btfss	8,2,b	;volatile
  4061  002A8C  D004               	goto	l5907
  4062                           
  4063                           ; BSR set to: 5
  4064                           ;device_keyboard.c: 721:     {;device_keyboard.c: 722:         LED_On(LED_E3);
  4065  002A8E  0E03               	movlw	3
  4066  002A90  EC4F  F015         	call	_LED_On
  4067                           
  4068                           ;device_keyboard.c: 723:     }
  4069  002A94  0012               	return	
  4070  002A96                     l5907:
  4071                           
  4072                           ; BSR set to: 5
  4073                           ;device_keyboard.c: 725:     {;device_keyboard.c: 726:         LED_Off(LED_E3);
  4074  002A96  0E03               	movlw	3
  4075  002A98  EC6E  F015         	call	_LED_Off
  4076  002A9C  0012               	return		;funcret
  4077  002A9E                     __end_of_KeyboardProcessOutputReport:
  4078                           	opt callstack 0
  4079                           
  4080 ;; *************** function _LED_On *****************
  4081 ;; Defined at:
  4082 ;;		line 67 in file "leds.c"
  4083 ;; Parameters:    Size  Location     Type
  4084 ;;  led             1    wreg     enum E2
  4085 ;; Auto vars:     Size  Location     Type
  4086 ;;  led             1    2[BANK0 ] enum E2
  4087 ;; Return value:  Size  Location     Type
  4088 ;;                  1    wreg      void 
  4089 ;; Registers used:
  4090 ;;		wreg, status,2, status,0
  4091 ;; Tracked objects:
  4092 ;;		On entry : 0/0
  4093 ;;		On exit  : 0/0
  4094 ;;		Unchanged: 0/0
  4095 ;; Data sizes:     COMRAM   BANK0   BANK1   BANK2   BANK3   BANK4  BANK5h  BANK5l   BANK6   BANK7
  4096 ;;      Params:         0       0       0       0       0       0       0       0       0       0
  4097 ;;      Locals:         0       1       0       0       0       0       0       0       0       0
  4098 ;;      Temps:          0       2       0       0       0       0       0       0       0       0
  4099 ;;      Totals:         0       3       0       0       0       0       0       0       0       0
  4100 ;;Total ram usage:        3 bytes
  4101 ;; Hardware stack levels used:    1
  4102 ;; Hardware stack levels required when called:   10
  4103 ;; This function calls:
  4104 ;;		Nothing
  4105 ;; This function is called by:
  4106 ;;		_KeyboardProcessOutputReport
  4107 ;; This function uses a non-reentrant model
  4108 ;;
  4109                           
  4110                           	psect	text14
  4111  002A9E                     __ptext14:
  4112                           	opt callstack 0
  4113  002A9E                     _LED_On:
  4114                           	opt callstack 18
  4115                           
  4116                           ;incstack = 0
  4117                           ;LED_On@led stored from wreg
  4118  002A9E  0100               	movlb	0	; () banked
  4119  002AA0  6FD7               	movwf	LED_On@led& (0+255),b
  4120                           
  4121                           ;leds.c: 67: void LED_On(LED led);leds.c: 68: {;leds.c: 69:     switch(led)
  4122  002AA2  D006               	goto	l5741
  4123  002AA4                     l794:
  4124                           
  4125                           ; BSR set to: 0
  4126                           ;leds.c: 72:             LATEbits.LATE0 = 1;
  4127  002AA4  808D               	bsf	3981,0,c	;volatile
  4128                           
  4129                           ;leds.c: 73:             break;
  4130  002AA6  0012               	return	
  4131  002AA8                     l796:
  4132                           
  4133                           ; BSR set to: 0
  4134                           ;leds.c: 76:             LATEbits.LATE1 = 1;
  4135  002AA8  828D               	bsf	3981,1,c	;volatile
  4136                           
  4137                           ;leds.c: 77:             break;
  4138  002AAA  0012               	return	
  4139  002AAC                     l797:
  4140                           
  4141                           ; BSR set to: 0
  4142                           ;leds.c: 80:             LATEbits.LATE2 = 1;
  4143  002AAC  848D               	bsf	3981,2,c	;volatile
  4144                           
  4145                           ;leds.c: 81:             break;
  4146  002AAE  0012               	return	
  4147  002AB0                     l5741:
  4148  002AB0  0100               	movlb	0	; () banked
  4149  002AB2  51D7               	movf	LED_On@led& (0+255),w,b
  4150  002AB4  6FD5               	movwf	??_LED_On& (0+255),b
  4151  002AB6  6BD6               	clrf	(??_LED_On+1)& (0+255),b
  4152                           
  4153                           ; Switch on 2 bytes has been partitioned into a top level switch of size 1, and 1 sub-sw
      +                          itches
  4154                           ; Switch size 1, requested type "simple"
  4155                           ; Number of cases is 1, Range of values is 0 to 0
  4156                           ; switch strategies available:
  4157                           ; Name         Instructions Cycles
  4158                           ; simple_byte            4     3 (average)
  4159                           ;	Chosen strategy is simple_byte
  4160  002AB8  51D6               	movf	(??_LED_On+1)& (0+255),w,b
  4161  002ABA  0A00               	xorlw	0	; case 0
  4162  002ABC  A4D8               	btfss	status,2,c
  4163  002ABE  0012               	return	
  4164                           
  4165                           ; BSR set to: 0
  4166                           ; Switch size 1, requested type "simple"
  4167                           ; Number of cases is 4, Range of values is 0 to 3
  4168                           ; switch strategies available:
  4169                           ; Name         Instructions Cycles
  4170                           ; simple_byte           13     7 (average)
  4171                           ;	Chosen strategy is simple_byte
  4172  002AC0  51D5               	movf	??_LED_On& (0+255),w,b
  4173  002AC2  0A00               	xorlw	0	; case 0
  4174  002AC4  B4D8               	btfsc	status,2,c
  4175  002AC6  0012               	return	
  4176  002AC8  0A01               	xorlw	1	; case 1
  4177  002ACA  B4D8               	btfsc	status,2,c
  4178  002ACC  D7EB               	goto	l794
  4179  002ACE  0A03               	xorlw	3	; case 2
  4180  002AD0  B4D8               	btfsc	status,2,c
  4181  002AD2  D7EA               	goto	l796
  4182  002AD4  0A01               	xorlw	1	; case 3
  4183  002AD6  A4D8               	btfss	status,2,c
  4184  002AD8  0012               	return	
  4185  002ADA  D7E8               	goto	l797
  4186  002ADC                     __end_of_LED_On:
  4187                           	opt callstack 0
  4188                           
  4189 ;; *************** function _LED_Off *****************
  4190 ;; Defined at:
  4191 ;;		line 104 in file "leds.c"
  4192 ;; Parameters:    Size  Location     Type
  4193 ;;  led             1    wreg     enum E2
  4194 ;; Auto vars:     Size  Location     Type
  4195 ;;  led             1    2[BANK0 ] enum E2
  4196 ;; Return value:  Size  Location     Type
  4197 ;;                  1    wreg      void 
  4198 ;; Registers used:
  4199 ;;		wreg, status,2, status,0
  4200 ;; Tracked objects:
  4201 ;;		On entry : 0/0
  4202 ;;		On exit  : 0/0
  4203 ;;		Unchanged: 0/0
  4204 ;; Data sizes:     COMRAM   BANK0   BANK1   BANK2   BANK3   BANK4  BANK5h  BANK5l   BANK6   BANK7
  4205 ;;      Params:         0       0       0       0       0       0       0       0       0       0
  4206 ;;      Locals:         0       1       0       0       0       0       0       0       0       0
  4207 ;;      Temps:          0       2       0       0       0       0       0       0       0       0
  4208 ;;      Totals:         0       3       0       0       0       0       0       0       0       0
  4209 ;;Total ram usage:        3 bytes
  4210 ;; Hardware stack levels used:    1
  4211 ;; Hardware stack levels required when called:   10
  4212 ;; This function calls:
  4213 ;;		Nothing
  4214 ;; This function is called by:
  4215 ;;		_KeyboardProcessOutputReport
  4216 ;; This function uses a non-reentrant model
  4217 ;;
  4218                           
  4219                           	psect	text15
  4220  002ADC                     __ptext15:
  4221                           	opt callstack 0
  4222  002ADC                     _LED_Off:
  4223                           	opt callstack 18
  4224                           
  4225                           ; BSR set to: 0
  4226                           ;incstack = 0
  4227                           ;LED_Off@led stored from wreg
  4228  002ADC  0100               	movlb	0	; () banked
  4229  002ADE  6FD7               	movwf	LED_Off@led& (0+255),b
  4230                           
  4231                           ;leds.c: 104: void LED_Off(LED led);leds.c: 105: {;leds.c: 106:     switch(led)
  4232  002AE0  D006               	goto	l5753
  4233  002AE2                     l803:
  4234                           
  4235                           ; BSR set to: 0
  4236                           ;leds.c: 109:             LATEbits.LATE0 = 0;
  4237  002AE2  908D               	bcf	3981,0,c	;volatile
  4238                           
  4239                           ;leds.c: 110:             break;
  4240  002AE4  0012               	return	
  4241  002AE6                     l805:
  4242                           
  4243                           ; BSR set to: 0
  4244                           ;leds.c: 113:             LATEbits.LATE1 = 0;
  4245  002AE6  928D               	bcf	3981,1,c	;volatile
  4246                           
  4247                           ;leds.c: 114:             break;
  4248  002AE8  0012               	return	
  4249  002AEA                     l806:
  4250                           
  4251                           ; BSR set to: 0
  4252                           ;leds.c: 117:             LATEbits.LATE2 = 0;
  4253  002AEA  948D               	bcf	3981,2,c	;volatile
  4254                           
  4255                           ;leds.c: 118:             break;
  4256  002AEC  0012               	return	
  4257  002AEE                     l5753:
  4258  002AEE  0100               	movlb	0	; () banked
  4259  002AF0  51D7               	movf	LED_Off@led& (0+255),w,b
  4260  002AF2  6FD5               	movwf	??_LED_Off& (0+255),b
  4261  002AF4  6BD6               	clrf	(??_LED_Off+1)& (0+255),b
  4262                           
  4263                           ; Switch on 2 bytes has been partitioned into a top level switch of size 1, and 1 sub-sw
      +                          itches
  4264                           ; Switch size 1, requested type "simple"
  4265                           ; Number of cases is 1, Range of values is 0 to 0
  4266                           ; switch strategies available:
  4267                           ; Name         Instructions Cycles
  4268                           ; simple_byte            4     3 (average)
  4269                           ;	Chosen strategy is simple_byte
  4270  002AF6  51D6               	movf	(??_LED_Off+1)& (0+255),w,b
  4271  002AF8  0A00               	xorlw	0	; case 0
  4272  002AFA  A4D8               	btfss	status,2,c
  4273  002AFC  0012               	return	
  4274                           
  4275                           ; BSR set to: 0
  4276                           ; Switch size 1, requested type "simple"
  4277                           ; Number of cases is 4, Range of values is 0 to 3
  4278                           ; switch strategies available:
  4279                           ; Name         Instructions Cycles
  4280                           ; simple_byte           13     7 (average)
  4281                           ;	Chosen strategy is simple_byte
  4282  002AFE  51D5               	movf	??_LED_Off& (0+255),w,b
  4283  002B00  0A00               	xorlw	0	; case 0
  4284  002B02  B4D8               	btfsc	status,2,c
  4285  002B04  0012               	return	
  4286  002B06  0A01               	xorlw	1	; case 1
  4287  002B08  B4D8               	btfsc	status,2,c
  4288  002B0A  D7EB               	goto	l803
  4289  002B0C  0A03               	xorlw	3	; case 2
  4290  002B0E  B4D8               	btfsc	status,2,c
  4291  002B10  D7EA               	goto	l805
  4292  002B12  0A01               	xorlw	1	; case 3
  4293  002B14  A4D8               	btfss	status,2,c
  4294  002B16  0012               	return	
  4295  002B18  D7E8               	goto	l806
  4296  002B1A                     __end_of_LED_Off:
  4297                           	opt callstack 0
  4298                           
  4299 ;; *************** function _SYS_InterruptHigh *****************
  4300 ;; Defined at:
  4301 ;;		line 119 in file "system.c"
  4302 ;; Parameters:    Size  Location     Type
  4303 ;;		None
  4304 ;; Auto vars:     Size  Location     Type
  4305 ;;		None
  4306 ;; Return value:  Size  Location     Type
  4307 ;;                  1    wreg      void 
  4308 ;; Registers used:
  4309 ;;		wreg, fsr1l, fsr1h, fsr2l, fsr2h, status,2, status,0, pclath, tosl, tblptrl, tblptrh, tblptru, prodl, prodh, cstack
  4310 ;; Tracked objects:
  4311 ;;		On entry : 0/0
  4312 ;;		On exit  : 0/0
  4313 ;;		Unchanged: 0/0
  4314 ;; Data sizes:     COMRAM   BANK0   BANK1   BANK2   BANK3   BANK4  BANK5h  BANK5l   BANK6   BANK7
  4315 ;;      Params:         0       0       0       0       0       0       0       0       0       0
  4316 ;;      Locals:         0       0       0       0       0       0       0       0       0       0
  4317 ;;      Temps:         12       0       0       0       0       0       0       0       0       0
  4318 ;;      Totals:        12       0       0       0       0       0       0       0       0       0
  4319 ;;Total ram usage:       12 bytes
  4320 ;; Hardware stack levels used:    1
  4321 ;; Hardware stack levels required when called:    9
  4322 ;; This function calls:
  4323 ;;		_USBDeviceTasks
  4324 ;; This function is called by:
  4325 ;;		Interrupt level 2
  4326 ;; This function uses a non-reentrant model
  4327 ;;
  4328                           
  4329                           	psect	intcode
  4330  000008                     __pintcode:
  4331                           	opt callstack 0
  4332  000008                     _SYS_InterruptHigh:
  4333                           	opt callstack 17
  4334                           
  4335                           ; BSR set to: 0
  4336                           ;incstack = 0
  4337  000008  8257               	bsf	btemp,1,c	;set compiler interrupt flag (level 2)
  4338  00000A  CFFA F04B          	movff	pclath,??_SYS_InterruptHigh
  4339  00000E  CFFB F04C          	movff	pclatu,??_SYS_InterruptHigh+1
  4340  000012  CFE1 F04D          	movff	fsr1l,??_SYS_InterruptHigh+2
  4341  000016  CFE2 F04E          	movff	fsr1h,??_SYS_InterruptHigh+3
  4342  00001A  CFD9 F04F          	movff	fsr2l,??_SYS_InterruptHigh+4
  4343  00001E  CFDA F050          	movff	fsr2h,??_SYS_InterruptHigh+5
  4344  000022  CFF3 F051          	movff	prodl,??_SYS_InterruptHigh+6
  4345  000026  CFF4 F052          	movff	prodh,??_SYS_InterruptHigh+7
  4346  00002A  CFF6 F053          	movff	tblptrl,??_SYS_InterruptHigh+8
  4347  00002E  CFF7 F054          	movff	tblptrh,??_SYS_InterruptHigh+9
  4348  000032  CFF8 F055          	movff	tblptru,??_SYS_InterruptHigh+10
  4349  000036  CFF5 F056          	movff	tablat,??_SYS_InterruptHigh+11
  4350                           
  4351                           ;system.c: 122:         USBDeviceTasks();
  4352  00003A  ECEC  F00B         	call	_USBDeviceTasks	;wreg free
  4353  00003E  C056  FFF5         	movff	??_SYS_InterruptHigh+11,tablat
  4354  000042  C055  FFF8         	movff	??_SYS_InterruptHigh+10,tblptru
  4355  000046  C054  FFF7         	movff	??_SYS_InterruptHigh+9,tblptrh
  4356  00004A  C053  FFF6         	movff	??_SYS_InterruptHigh+8,tblptrl
  4357  00004E  C052  FFF4         	movff	??_SYS_InterruptHigh+7,prodh
  4358  000052  C051  FFF3         	movff	??_SYS_InterruptHigh+6,prodl
  4359  000056  C050  FFDA         	movff	??_SYS_InterruptHigh+5,fsr2h
  4360  00005A  C04F  FFD9         	movff	??_SYS_InterruptHigh+4,fsr2l
  4361  00005E  C04E  FFE2         	movff	??_SYS_InterruptHigh+3,fsr1h
  4362  000062  C04D  FFE1         	movff	??_SYS_InterruptHigh+2,fsr1l
  4363  000066  C04C  FFFB         	movff	??_SYS_InterruptHigh+1,pclatu
  4364  00006A  C04B  FFFA         	movff	??_SYS_InterruptHigh,pclath
  4365  00006E  9257               	bcf	btemp,1,c	;clear compiler interrupt flag (level 2)
  4366  000070  0011               	retfie		f
  4367  000072                     __end_of_SYS_InterruptHigh:
  4368                           	opt callstack 0
  4369                           
  4370 ;; *************** function _USBDeviceTasks *****************
  4371 ;; Defined at:
  4372 ;;		line 481 in file "usb/usb_device.c"
  4373 ;; Parameters:    Size  Location     Type
  4374 ;;		None
  4375 ;; Auto vars:     Size  Location     Type
  4376 ;;  i               1   30[COMRAM] unsigned char 
  4377 ;; Return value:  Size  Location     Type
  4378 ;;                  1    wreg      void 
  4379 ;; Registers used:
  4380 ;;		wreg, fsr1l, fsr1h, fsr2l, fsr2h, status,2, status,0, pclath, tosl, tblptrl, tblptrh, tblptru, prodl, prodh, cstack
  4381 ;; Tracked objects:
  4382 ;;		On entry : 0/0
  4383 ;;		On exit  : 0/0
  4384 ;;		Unchanged: 0/0
  4385 ;; Data sizes:     COMRAM   BANK0   BANK1   BANK2   BANK3   BANK4  BANK5h  BANK5l   BANK6   BANK7
  4386 ;;      Params:         0       0       0       0       0       0       0       0       0       0
  4387 ;;      Locals:         1       0       0       0       0       0       0       0       0       0
  4388 ;;      Temps:          0       0       0       0       0       0       0       0       0       0
  4389 ;;      Totals:         1       0       0       0       0       0       0       0       0       0
  4390 ;;Total ram usage:        1 bytes
  4391 ;; Hardware stack levels used:    1
  4392 ;; Hardware stack levels required when called:    8
  4393 ;; This function calls:
  4394 ;;		_USBCtrlEPAllowStatusStage
  4395 ;;		_USBCtrlEPService
  4396 ;;		_USBIncrement1msInternalTimers
  4397 ;;		_USBStallHandler
  4398 ;;		_USBSuspend
  4399 ;;		_USBWakeFromSuspend
  4400 ;;		_USER_USB_CALLBACK_EVENT_HANDLER
  4401 ;;		i2_USBDeviceInit
  4402 ;; This function is called by:
  4403 ;;		_SYS_InterruptHigh
  4404 ;; This function uses a non-reentrant model
  4405 ;;
  4406                           
  4407                           	psect	text17
  4408  0017D8                     __ptext17:
  4409                           	opt callstack 0
  4410  0017D8                     _USBDeviceTasks:
  4411                           	opt callstack 17
  4412                           
  4413                           ;usb/usb_device.c: 483:     uint8_t i;;usb/usb_device.c: 594:     if(USBDeviceState == A
      +                          TTACHED_STATE)
  4414                           
  4415                           ;incstack = 0
  4416  0017D8  0425               	decf	_USBDeviceState,w,c	;volatile
  4417  0017DA  B4D8               	btfsc	status,2,c
  4418                           
  4419                           ;usb/usb_device.c: 595:     {;usb/usb_device.c: 605:         if(!UCONbits.SE0)
  4420  0017DC  BA60               	btfsc	3936,5,c	;volatile
  4421  0017DE  D006               	goto	i2l5153
  4422                           
  4423                           ;usb/usb_device.c: 606:         {;usb/usb_device.c: 612:                 {UIR = 0;};
  4424  0017E0  0E00               	movlw	0
  4425  0017E2  6E65               	movwf	3941,c	;volatile
  4426                           
  4427                           ;usb/usb_device.c: 618:             UIEbits.URSTIE = 1;
  4428  0017E4  8064               	bsf	3940,0,c	;volatile
  4429                           
  4430                           ;usb/usb_device.c: 619:             UIEbits.IDLEIE = 1;
  4431  0017E6  8864               	bsf	3940,4,c	;volatile
  4432                           
  4433                           ;usb/usb_device.c: 620:             USBDeviceState = POWERED_STATE;
  4434  0017E8  0E02               	movlw	2
  4435  0017EA  6E25               	movwf	_USBDeviceState,c	;volatile
  4436  0017EC                     i2l5153:
  4437                           
  4438                           ;usb/usb_device.c: 638:     if(UIRbits.ACTVIF && UIEbits.ACTVIE)
  4439  0017EC  B465               	btfsc	3941,2,c	;volatile
  4440  0017EE  A464               	btfss	3940,2,c	;volatile
  4441  0017F0  D003               	goto	i2l5161
  4442                           
  4443                           ;usb/usb_device.c: 639:     {;usb/usb_device.c: 640:         (UIR &= 0xFB);
  4444  0017F2  9465               	bcf	3941,2,c	;volatile
  4445                           
  4446                           ;usb/usb_device.c: 644:             USBWakeFromSuspend();
  4447  0017F4  EC02  F016         	call	_USBWakeFromSuspend	;wreg free
  4448  0017F8                     i2l5161:
  4449                           
  4450                           ;usb/usb_device.c: 651:     if(UCONbits.SUSPND==1)
  4451  0017F8  A260               	btfss	3936,1,c	;volatile
  4452  0017FA  D002               	goto	i2l181
  4453                           
  4454                           ;usb/usb_device.c: 652:     {;usb/usb_device.c: 653:         PIR3bits.USBIF = 0;;
  4455  0017FC  94A4               	bcf	4004,2,c	;volatile
  4456                           
  4457                           ;usb/usb_device.c: 654:         return;
  4458  0017FE  0012               	return	
  4459  001800                     i2l181:
  4460                           
  4461                           ;usb/usb_device.c: 667:     if(UIRbits.URSTIF && UIEbits.URSTIE)
  4462  001800  B065               	btfsc	3941,0,c	;volatile
  4463  001802  A064               	btfss	3940,0,c	;volatile
  4464  001804  D006               	goto	i2l5175
  4465                           
  4466                           ;usb/usb_device.c: 668:     {;usb/usb_device.c: 669:         USBDeviceInit();
  4467  001806  EC56  F00B         	call	i2_USBDeviceInit	;wreg free
  4468                           
  4469                           ;usb/usb_device.c: 673:         {PIE3bits.USBIE = 1;};
  4470  00180A  84A3               	bsf	4003,2,c	;volatile
  4471                           
  4472                           ;usb/usb_device.c: 675:         USBDeviceState = DEFAULT_STATE;
  4473  00180C  0E04               	movlw	4
  4474  00180E  6E25               	movwf	_USBDeviceState,c	;volatile
  4475                           
  4476                           ;usb/usb_device.c: 685:         (UIR &= 0xFE);
  4477  001810  9065               	bcf	3941,0,c	;volatile
  4478  001812                     i2l5175:
  4479                           
  4480                           ;usb/usb_device.c: 691:     if(UIRbits.IDLEIF && UIEbits.IDLEIE)
  4481  001812  B865               	btfsc	3941,4,c	;volatile
  4482  001814  A864               	btfss	3940,4,c	;volatile
  4483  001816  D002               	goto	i2l5181
  4484                           
  4485                           ;usb/usb_device.c: 692:     {;usb/usb_device.c: 698:             USBSuspend();
  4486  001818  EC61  F016         	call	_USBSuspend	;wreg free
  4487  00181C                     i2l5181:
  4488                           
  4489                           ;usb/usb_device.c: 712:     if(UIRbits.SOFIF)
  4490  00181C  AC65               	btfss	3941,6,c	;volatile
  4491  00181E  D01A               	goto	i2l5199
  4492                           
  4493                           ;usb/usb_device.c: 713:     {;usb/usb_device.c: 715:         if(UIEbits.SOFIE)
  4494  001820  AC64               	btfss	3940,6,c	;volatile
  4495  001822  D00E               	goto	i2l5187
  4496                           
  4497                           ;usb/usb_device.c: 716:         {;usb/usb_device.c: 717:             USER_USB_CALLBACK_E
      +                          VENT_HANDLER((USB_EVENT)EVENT_SOF,0,1);
  4498  001824  0E00               	movlw	0
  4499  001826  6E39               	movwf	USER_USB_CALLBACK_EVENT_HANDLER@event+1,c
  4500  001828  0E73               	movlw	115
  4501  00182A  6E38               	movwf	USER_USB_CALLBACK_EVENT_HANDLER@event,c
  4502  00182C  0E00               	movlw	0
  4503  00182E  6E3A               	movwf	USER_USB_CALLBACK_EVENT_HANDLER@pdata,c
  4504  001830  0E00               	movlw	0
  4505  001832  6E3B               	movwf	USER_USB_CALLBACK_EVENT_HANDLER@pdata+1,c
  4506  001834  0E00               	movlw	0
  4507  001836  6E3D               	movwf	USER_USB_CALLBACK_EVENT_HANDLER@size+1,c
  4508  001838  0E01               	movlw	1
  4509  00183A  6E3C               	movwf	USER_USB_CALLBACK_EVENT_HANDLER@size,c
  4510  00183C  ECCD  F011         	call	_USER_USB_CALLBACK_EVENT_HANDLER	;wreg free
  4511  001840                     i2l5187:
  4512                           
  4513                           ;usb/usb_device.c: 719:         (UIR &= 0xBF);
  4514  001840  9C65               	bcf	3941,6,c	;volatile
  4515                           
  4516                           ;usb/usb_device.c: 722:             USBIncrement1msInternalTimers();
  4517  001842  EC8A  F016         	call	_USBIncrement1msInternalTimers	;wreg free
  4518                           
  4519                           ;usb/usb_device.c: 739:             if(USBStatusStageTimeoutCounter != 0u)
  4520  001846  501E               	movf	_USBStatusStageTimeoutCounter,w,c	;volatile
  4521  001848  A4D8               	btfss	status,2,c
  4522                           
  4523                           ;usb/usb_device.c: 740:             {;usb/usb_device.c: 741:                 USBStatusSt
      +                          ageTimeoutCounter--;
  4524  00184A  061E               	decf	_USBStatusStageTimeoutCounter,f,c	;volatile
  4525                           
  4526                           ;usb/usb_device.c: 748:             if(USBStatusStageTimeoutCounter == 0)
  4527  00184C  501E               	movf	_USBStatusStageTimeoutCounter,w,c	;volatile
  4528  00184E  B4D8               	btfsc	status,2,c
  4529                           
  4530                           ;usb/usb_device.c: 749:             {;usb/usb_device.c: 750:                 USBCtrlEPAl
      +                          lowStatusStage();
  4531  001850  ECBC  F010         	call	_USBCtrlEPAllowStatusStage	;wreg free
  4532  001854                     i2l5199:
  4533                           
  4534                           ;usb/usb_device.c: 755:     if(UIRbits.STALLIF && UIEbits.STALLIE)
  4535  001854  BA65               	btfsc	3941,5,c	;volatile
  4536  001856  AA64               	btfss	3940,5,c	;volatile
  4537  001858  D002               	goto	i2l5205
  4538                           
  4539                           ;usb/usb_device.c: 756:     {;usb/usb_device.c: 757:         USBStallHandler();
  4540  00185A  EC0F  F015         	call	_USBStallHandler	;wreg free
  4541  00185E                     i2l5205:
  4542                           
  4543                           ;usb/usb_device.c: 760:     if(UIRbits.UERRIF && UIEbits.UERRIE)
  4544  00185E  B265               	btfsc	3941,1,c	;volatile
  4545  001860  A264               	btfss	3940,1,c	;volatile
  4546  001862  D00F               	goto	i2l5213
  4547                           
  4548                           ;usb/usb_device.c: 761:     {;usb/usb_device.c: 762:         USER_USB_CALLBACK_EVENT_HAN
      +                          DLER((USB_EVENT)EVENT_BUS_ERROR,0,1);
  4549  001864  0E7F               	movlw	127
  4550  001866  6E39               	movwf	USER_USB_CALLBACK_EVENT_HANDLER@event+1,c
  4551  001868  6838               	setf	USER_USB_CALLBACK_EVENT_HANDLER@event,c
  4552  00186A  0E00               	movlw	0
  4553  00186C  6E3A               	movwf	USER_USB_CALLBACK_EVENT_HANDLER@pdata,c
  4554  00186E  0E00               	movlw	0
  4555  001870  6E3B               	movwf	USER_USB_CALLBACK_EVENT_HANDLER@pdata+1,c
  4556  001872  0E00               	movlw	0
  4557  001874  6E3D               	movwf	USER_USB_CALLBACK_EVENT_HANDLER@size+1,c
  4558  001876  0E01               	movlw	1
  4559  001878  6E3C               	movwf	USER_USB_CALLBACK_EVENT_HANDLER@size,c
  4560  00187A  ECCD  F011         	call	_USER_USB_CALLBACK_EVENT_HANDLER	;wreg free
  4561                           
  4562                           ;usb/usb_device.c: 763:         {UEIR = 0;};
  4563  00187E  0E00               	movlw	0
  4564  001880  6E67               	movwf	3943,c	;volatile
  4565  001882                     i2l5213:
  4566                           
  4567                           ;usb/usb_device.c: 778:     if(USBDeviceState < DEFAULT_STATE)
  4568  001882  0E04               	movlw	4
  4569  001884  6025               	cpfslt	_USBDeviceState,c	;volatile
  4570  001886  D002               	goto	i2l191
  4571                           
  4572                           ;usb/usb_device.c: 779:     {;usb/usb_device.c: 780:         PIR3bits.USBIF = 0;;
  4573  001888  94A4               	bcf	4004,2,c	;volatile
  4574                           
  4575                           ;usb/usb_device.c: 781:         return;
  4576  00188A  0012               	return	
  4577  00188C                     i2l191:
  4578                           
  4579                           ;usb/usb_device.c: 787:     if(UIEbits.TRNIE)
  4580  00188C  A664               	btfss	3940,3,c	;volatile
  4581  00188E  D034               	goto	i2u398_40
  4582                           
  4583                           ;usb/usb_device.c: 788:     {;usb/usb_device.c: 789:         for(i = 0; i < 4u; i++)
  4584  001890  0E00               	movlw	0
  4585  001892  6E4A               	movwf	USBDeviceTasks@i,c
  4586  001894                     i2l193:
  4587                           
  4588                           ;usb/usb_device.c: 790:         {;usb/usb_device.c: 791:             if(UIRbits.TRNIF)
  4589  001894  A665               	btfss	3941,3,c	;volatile
  4590  001896  D030               	goto	i2u398_40
  4591                           
  4592                           ;usb/usb_device.c: 792:             {;usb/usb_device.c: 794:                 USTATcopy.V
      +                          al = USTAT;
  4593  001898  CF61 F02A          	movff	3937,_USTATcopy	;volatile
  4594                           
  4595                           ;usb/usb_device.c: 795:                 endpoint_number = USTATcopy.endpoint_number;
  4596  00189C  302A               	rrcf	_USTATcopy,w,c	;volatile
  4597  00189E  32E8               	rrcf	wreg,f,c
  4598  0018A0  32E8               	rrcf	wreg,f,c
  4599  0018A2  0B0F               	andlw	15
  4600  0018A4  6E20               	movwf	_endpoint_number,c	;volatile
  4601                           
  4602                           ;usb/usb_device.c: 797:                 (UIR &= 0xF7);
  4603  0018A6  9665               	bcf	3941,3,c	;volatile
  4604                           
  4605                           ;usb/usb_device.c: 802:                 if(USTATcopy.direction == 0)
  4606  0018A8  B42A               	btfsc	_USTATcopy,2,c	;volatile
  4607  0018AA  D006               	goto	i2l5233
  4608                           
  4609                           ;usb/usb_device.c: 803:                 {;usb/usb_device.c: 804:                     ep_
      +                          data_out[endpoint_number].bits.ping_pong_state ^= 1;
  4610  0018AC  0EC7               	movlw	low _ep_data_out
  4611  0018AE  2420               	addwf	_endpoint_number,w,c	;volatile
  4612  0018B0  6ED9               	movwf	fsr2l,c
  4613  0018B2  6ADA               	clrf	fsr2h,c
  4614  0018B4  0E00               	movlw	high _ep_data_out
  4615  0018B6  D005               	goto	L3
  4616  0018B8                     i2l5233:
  4617                           
  4618                           ;usb/usb_device.c: 807:                 {;usb/usb_device.c: 808:                     ep_
      +                          data_in[endpoint_number].bits.ping_pong_state ^= 1;
  4619  0018B8  0ECA               	movlw	low _ep_data_in
  4620  0018BA  2420               	addwf	_endpoint_number,w,c	;volatile
  4621  0018BC  6ED9               	movwf	fsr2l,c
  4622  0018BE  6ADA               	clrf	fsr2h,c
  4623  0018C0  0E00               	movlw	high _ep_data_in
  4624  0018C2                     L3:
  4625  0018C2  22DA               	addwfc	fsr2h,f,c
  4626  0018C4  0100               	movlb	0	; () banked
  4627  0018C6  70DF               	btg	indf2,0,c
  4628                           
  4629                           ; BSR set to: 0
  4630                           ;usb/usb_device.c: 814:                 if(endpoint_number == 0)
  4631  0018C8  5020               	movf	_endpoint_number,w,c	;volatile
  4632  0018CA  A4D8               	btfss	status,2,c
  4633  0018CC  D003               	goto	i2l5239
  4634                           
  4635                           ; BSR set to: 0
  4636                           ;usb/usb_device.c: 815:                 {;usb/usb_device.c: 816:                     USB
      +                          CtrlEPService();
  4637  0018CE  EC19  F012         	call	_USBCtrlEPService	;wreg free
  4638                           
  4639                           ;usb/usb_device.c: 817:                 }
  4640  0018D2  D00E               	goto	i2l5241
  4641  0018D4                     i2l5239:
  4642                           
  4643                           ; BSR set to: 0
  4644                           ;usb/usb_device.c: 819:                 {;usb/usb_device.c: 820:                     USE
      +                          R_USB_CALLBACK_EVENT_HANDLER((USB_EVENT)EVENT_TRANSFER,(uint8_t*)&USTATcopy.Val,0);
  4645  0018D4  0E00               	movlw	0
  4646  0018D6  6E39               	movwf	USER_USB_CALLBACK_EVENT_HANDLER@event+1,c
  4647  0018D8  0E72               	movlw	114
  4648  0018DA  6E38               	movwf	USER_USB_CALLBACK_EVENT_HANDLER@event,c
  4649  0018DC  0E2A               	movlw	low _USTATcopy
  4650  0018DE  6E3A               	movwf	USER_USB_CALLBACK_EVENT_HANDLER@pdata,c
  4651  0018E0  0E00               	movlw	high _USTATcopy
  4652  0018E2  6E3B               	movwf	USER_USB_CALLBACK_EVENT_HANDLER@pdata+1,c
  4653  0018E4  0E00               	movlw	0
  4654  0018E6  6E3D               	movwf	USER_USB_CALLBACK_EVENT_HANDLER@size+1,c
  4655  0018E8  0E00               	movlw	0
  4656  0018EA  6E3C               	movwf	USER_USB_CALLBACK_EVENT_HANDLER@size,c
  4657  0018EC  ECCD  F011         	call	_USER_USB_CALLBACK_EVENT_HANDLER	;wreg free
  4658  0018F0                     i2l5241:
  4659                           
  4660                           ;usb/usb_device.c: 827:         }
  4661  0018F0  2A4A               	incf	USBDeviceTasks@i,f,c
  4662  0018F2  0E03               	movlw	3
  4663  0018F4  644A               	cpfsgt	USBDeviceTasks@i,c
  4664  0018F6  D7CE               	goto	i2l193
  4665  0018F8                     i2u398_40:
  4666                           
  4667                           ;usb/usb_device.c: 830:     PIR3bits.USBIF = 0;;
  4668                           
  4669                           ;usb/usb_device.c: 828:     }
  4670  0018F8  94A4               	bcf	4004,2,c	;volatile
  4671  0018FA  0012               	return		;funcret
  4672  0018FC                     __end_of_USBDeviceTasks:
  4673                           	opt callstack 0
  4674                           
  4675 ;; *************** function i2_USBDeviceInit *****************
  4676 ;; Defined at:
  4677 ;;		line 281 in file "usb/usb_device.c"
  4678 ;; Parameters:    Size  Location     Type
  4679 ;;		None
  4680 ;; Auto vars:     Size  Location     Type
  4681 ;;  USBDeviceIni    1   12[COMRAM] unsigned char 
  4682 ;; Return value:  Size  Location     Type
  4683 ;;                  1    wreg      void 
  4684 ;; Registers used:
  4685 ;;		wreg, fsr2l, fsr2h, status,2, status,0, prodl, prodh, cstack
  4686 ;; Tracked objects:
  4687 ;;		On entry : 0/0
  4688 ;;		On exit  : 0/0
  4689 ;;		Unchanged: 0/0
  4690 ;; Data sizes:     COMRAM   BANK0   BANK1   BANK2   BANK3   BANK4  BANK5h  BANK5l   BANK6   BANK7
  4691 ;;      Params:         0       0       0       0       0       0       0       0       0       0
  4692 ;;      Locals:         1       0       0       0       0       0       0       0       0       0
  4693 ;;      Temps:          0       0       0       0       0       0       0       0       0       0
  4694 ;;      Totals:         1       0       0       0       0       0       0       0       0       0
  4695 ;;Total ram usage:        1 bytes
  4696 ;; Hardware stack levels used:    1
  4697 ;; Hardware stack levels required when called:    1
  4698 ;; This function calls:
  4699 ;;		i2_memset
  4700 ;; This function is called by:
  4701 ;;		_USBDeviceTasks
  4702 ;; This function uses a non-reentrant model
  4703 ;;
  4704                           
  4705                           	psect	text18
  4706  0016AC                     __ptext18:
  4707                           	opt callstack 0
  4708  0016AC                     i2_USBDeviceInit:
  4709                           	opt callstack 23
  4710                           
  4711                           ;usb/usb_device.c: 283:     uint8_t i;;usb/usb_device.c: 285:     {PIE3bits.USBIE = 0;};
  4712                           
  4713                           ;incstack = 0
  4714  0016AC  94A3               	bcf	4003,2,c	;volatile
  4715                           
  4716                           ;usb/usb_device.c: 292:     {UEIR = 0;};
  4717  0016AE  0E00               	movlw	0
  4718  0016B0  6E67               	movwf	3943,c	;volatile
  4719                           
  4720                           ;usb/usb_device.c: 295:     {UIR = 0;};
  4721  0016B2  0E00               	movlw	0
  4722  0016B4  6E65               	movwf	3941,c	;volatile
  4723                           
  4724                           ;usb/usb_device.c: 298:     UEP0 = 0;
  4725  0016B6  0E00               	movlw	0
  4726  0016B8  6E6A               	movwf	3946,c	;volatile
  4727                           
  4728                           ;usb/usb_device.c: 300:     memset((void*)&UEP1,0x00,(2));;
  4729  0016BA  0E6B               	movlw	107
  4730  0016BC  6E2C               	movwf	i2memset@dest,c
  4731  0016BE  0E0F               	movlw	15
  4732  0016C0  6E2D               	movwf	i2memset@dest+1,c
  4733  0016C2  0E00               	movlw	0
  4734  0016C4  6E2F               	movwf	i2memset@c+1,c
  4735  0016C6  0E00               	movlw	0
  4736  0016C8  6E2E               	movwf	i2memset@c,c
  4737  0016CA  0E00               	movlw	0
  4738  0016CC  6E31               	movwf	i2memset@n+1,c
  4739  0016CE  0E02               	movlw	2
  4740  0016D0  6E30               	movwf	i2memset@n,c
  4741  0016D2  EC8F  F009         	call	i2_memset	;wreg free
  4742                           
  4743                           ;usb/usb_device.c: 302:     { UCFG = 0x10 | 0x00 | 0x00 | 0x02; UEIE = 0x9F; UIE = 0x39 
      +                          | 0x40 | 0x02; };
  4744  0016D6  0E12               	movlw	18
  4745  0016D8  6E62               	movwf	3938,c	;volatile
  4746  0016DA  0E9F               	movlw	159
  4747  0016DC  6E66               	movwf	3942,c	;volatile
  4748  0016DE  0E7B               	movlw	123
  4749  0016E0  6E64               	movwf	3940,c	;volatile
  4750                           
  4751                           ;usb/usb_device.c: 311:     for(i = 0; i < (sizeof(BDT)/sizeof(BDT_ENTRY)); i++)
  4752  0016E2  0E00               	movlw	0
  4753  0016E4  6E38               	movwf	i2USBDeviceInit@i,c
  4754  0016E6                     i2l4833:
  4755                           
  4756                           ;usb/usb_device.c: 312:     {;usb/usb_device.c: 313:         BDT[i].Val = 0x00;
  4757  0016E6  5038               	movf	i2USBDeviceInit@i,w,c
  4758  0016E8  0D04               	mullw	4
  4759  0016EA  0E00               	movlw	0
  4760  0016EC  24F3               	addwf	prodl,w,c
  4761  0016EE  6ED9               	movwf	fsr2l,c
  4762  0016F0  0E04               	movlw	4
  4763  0016F2  20F4               	addwfc	prodh,w,c
  4764  0016F4  6EDA               	movwf	fsr2h,c
  4765  0016F6  6ADE               	clrf	postinc2,c
  4766  0016F8  6ADE               	clrf	postinc2,c
  4767  0016FA  6ADE               	clrf	postinc2,c
  4768  0016FC  6ADD               	clrf	postdec2,c
  4769                           
  4770                           ;usb/usb_device.c: 314:     }
  4771  0016FE  2A38               	incf	i2USBDeviceInit@i,f,c
  4772  001700  0E0B               	movlw	11
  4773  001702  6438               	cpfsgt	i2USBDeviceInit@i,c
  4774  001704  D7F0               	goto	i2l4833
  4775                           
  4776                           ;usb/usb_device.c: 317:     UCONbits.PPBRST = 1;
  4777  001706  8C60               	bsf	3936,6,c	;volatile
  4778                           
  4779                           ;usb/usb_device.c: 320:     UADDR = 0x00;
  4780  001708  0E00               	movlw	0
  4781  00170A  6E63               	movwf	3939,c	;volatile
  4782                           
  4783                           ;usb/usb_device.c: 323:     UCONbits.PKTDIS = 0;
  4784  00170C  9860               	bcf	3936,4,c	;volatile
  4785                           
  4786                           ;usb/usb_device.c: 326:     UCONbits.PPBRST = 0;
  4787  00170E  9C60               	bcf	3936,6,c	;volatile
  4788  001710                     i2l4845:
  4789                           
  4790                           ;usb/usb_device.c: 330:     {;usb/usb_device.c: 331:         (UIR &= 0xF7);
  4791  001710  9665               	bcf	3941,3,c	;volatile
  4792                           
  4793                           ;usb/usb_device.c: 333:         inPipes[0].info.Val = 0;
  4794  001712  0E00               	movlw	0
  4795  001714  0100               	movlb	0	; () banked
  4796  001716  6FAB               	movwf	(_inPipes+3)& (0+255),b	;volatile
  4797                           
  4798                           ; BSR set to: 0
  4799                           ;usb/usb_device.c: 334:         outPipes[0].info.Val = 0;
  4800  001718  0E00               	movlw	0
  4801  00171A  6FA3               	movwf	(_outPipes+3)& (0+255),b	;volatile
  4802                           
  4803                           ; BSR set to: 0
  4804                           ;usb/usb_device.c: 335:         outPipes[0].wCount.Val = 0;
  4805  00171C  0E00               	movlw	0
  4806  00171E  6FA5               	movwf	(_outPipes+5)& (0+255),b	;volatile
  4807  001720  0E00               	movlw	0
  4808  001722  6FA4               	movwf	(_outPipes+4)& (0+255),b	;volatile
  4809                           
  4810                           ; BSR set to: 0
  4811                           ;usb/usb_device.c: 336:     }while(UIRbits.TRNIF == 1);
  4812  001724  B665               	btfsc	3941,3,c	;volatile
  4813  001726  D7F4               	goto	i2l4845
  4814                           
  4815                           ; BSR set to: 0
  4816                           ;usb/usb_device.c: 340:     USBStatusStageEnabledFlag1 = 1;
  4817  001728  0E01               	movlw	1
  4818  00172A  6E1C               	movwf	_USBStatusStageEnabledFlag1,c	;volatile
  4819                           
  4820                           ;usb/usb_device.c: 341:     USBStatusStageEnabledFlag2 = 1;
  4821  00172C  0E01               	movlw	1
  4822  00172E  6E1B               	movwf	_USBStatusStageEnabledFlag2,c	;volatile
  4823                           
  4824                           ;usb/usb_device.c: 343:     USBDeferINDataStagePackets = 0;
  4825  001730  0E00               	movlw	0
  4826  001732  6E1A               	movwf	_USBDeferINDataStagePackets,c	;volatile
  4827                           
  4828                           ;usb/usb_device.c: 344:     USBDeferOUTDataStagePackets = 0;
  4829  001734  0E00               	movlw	0
  4830  001736  6E19               	movwf	_USBDeferOUTDataStagePackets,c	;volatile
  4831                           
  4832                           ;usb/usb_device.c: 345:     USBBusIsSuspended = 0;
  4833  001738  0E00               	movlw	0
  4834  00173A  6E21               	movwf	_USBBusIsSuspended,c	;volatile
  4835                           
  4836                           ;usb/usb_device.c: 349:     for(i = 0; i < (uint8_t)(2 +1u); i++)
  4837  00173C  0E00               	movlw	0
  4838  00173E  6E38               	movwf	i2USBDeviceInit@i,c
  4839  001740                     i2l4861:
  4840                           
  4841                           ;usb/usb_device.c: 350:     {;usb/usb_device.c: 351:         pBDTEntryIn[i] = 0u;
  4842  001740  5038               	movf	i2USBDeviceInit@i,w,c
  4843  001742  0D02               	mullw	2
  4844  001744  0EAE               	movlw	low _pBDTEntryIn
  4845  001746  24F3               	addwf	prodl,w,c
  4846  001748  6ED9               	movwf	fsr2l,c
  4847  00174A  0E00               	movlw	high _pBDTEntryIn
  4848  00174C  20F4               	addwfc	prodh,w,c
  4849  00174E  6EDA               	movwf	fsr2h,c
  4850  001750  0E00               	movlw	0
  4851  001752  6EDE               	movwf	postinc2,c
  4852  001754  0E00               	movlw	0
  4853  001756  6EDD               	movwf	postdec2,c
  4854                           
  4855                           ;usb/usb_device.c: 352:         pBDTEntryOut[i] = 0u;
  4856  001758  5038               	movf	i2USBDeviceInit@i,w,c
  4857  00175A  0D02               	mullw	2
  4858  00175C  0EB4               	movlw	low _pBDTEntryOut
  4859  00175E  24F3               	addwf	prodl,w,c
  4860  001760  6ED9               	movwf	fsr2l,c
  4861  001762  0E00               	movlw	high _pBDTEntryOut
  4862  001764  20F4               	addwfc	prodh,w,c
  4863  001766  6EDA               	movwf	fsr2h,c
  4864  001768  0E00               	movlw	0
  4865  00176A  6EDE               	movwf	postinc2,c
  4866  00176C  0E00               	movlw	0
  4867  00176E  6EDD               	movwf	postdec2,c
  4868                           
  4869                           ;usb/usb_device.c: 353:         ep_data_in[i].Val = 0u;
  4870  001770  0ECA               	movlw	low _ep_data_in
  4871  001772  2438               	addwf	i2USBDeviceInit@i,w,c
  4872  001774  6ED9               	movwf	fsr2l,c
  4873  001776  6ADA               	clrf	fsr2h,c
  4874  001778  0E00               	movlw	high _ep_data_in
  4875  00177A  22DA               	addwfc	fsr2h,f,c
  4876  00177C  0E00               	movlw	0
  4877  00177E  6EDF               	movwf	indf2,c
  4878                           
  4879                           ;usb/usb_device.c: 354:         ep_data_out[i].Val = 0u;
  4880  001780  0EC7               	movlw	low _ep_data_out
  4881  001782  2438               	addwf	i2USBDeviceInit@i,w,c
  4882  001784  6ED9               	movwf	fsr2l,c
  4883  001786  6ADA               	clrf	fsr2h,c
  4884  001788  0E00               	movlw	high _ep_data_out
  4885  00178A  22DA               	addwfc	fsr2h,f,c
  4886  00178C  0E00               	movlw	0
  4887  00178E  6EDF               	movwf	indf2,c
  4888                           
  4889                           ;usb/usb_device.c: 355:     }
  4890  001790  2A38               	incf	i2USBDeviceInit@i,f,c
  4891  001792  0E02               	movlw	2
  4892  001794  6438               	cpfsgt	i2USBDeviceInit@i,c
  4893  001796  D7D4               	goto	i2l4861
  4894                           
  4895                           ;usb/usb_device.c: 358:     pBDTEntryIn[0] = (volatile BDT_ENTRY*)&BDT[2];
  4896  001798  0E08               	movlw	8
  4897  00179A  0100               	movlb	0	; () banked
  4898  00179C  6FAE               	movwf	_pBDTEntryIn& (0+255),b
  4899  00179E  0E04               	movlw	4
  4900  0017A0  6FAF               	movwf	(_pBDTEntryIn+1)& (0+255),b
  4901                           
  4902                           ; BSR set to: 0
  4903                           ;usb/usb_device.c: 360:     UEP0 = 0x06|0x10;
  4904  0017A2  0E16               	movlw	22
  4905  0017A4  6E6A               	movwf	3946,c	;volatile
  4906                           
  4907                           ; BSR set to: 0
  4908                           ;usb/usb_device.c: 362:     BDT[0].ADR = ((uint16_t)(&SetupPkt));
  4909  0017A6  0E04               	movlw	4
  4910  0017A8  0104               	movlb	4	; () banked
  4911  0017AA  6F03               	movwf	3,b	;volatile
  4912  0017AC  0E30               	movlw	48
  4913  0017AE  6F02               	movwf	2,b	;volatile
  4914                           
  4915                           ; BSR set to: 4
  4916                           ;usb/usb_device.c: 363:     BDT[0].CNT = 8;
  4917  0017B0  0E08               	movlw	8
  4918  0017B2  6F01               	movwf	1,b	;volatile
  4919                           
  4920                           ; BSR set to: 4
  4921                           ;usb/usb_device.c: 364:     BDT[0].STAT.Val = 0x00|0x04;
  4922  0017B4  0E04               	movlw	4
  4923  0017B6  6F00               	movwf	0,b	;volatile
  4924                           
  4925                           ; BSR set to: 4
  4926                           ;usb/usb_device.c: 365:     BDT[0].STAT.Val |= 0x80;
  4927  0017B8  8F00               	bsf	0,7,b	;volatile
  4928                           
  4929                           ; BSR set to: 4
  4930                           ;usb/usb_device.c: 368:     USBActiveConfiguration = 0;
  4931  0017BA  0E00               	movlw	0
  4932  0017BC  6E2B               	movwf	_USBActiveConfiguration,c	;volatile
  4933                           
  4934                           ; BSR set to: 4
  4935                           ;usb/usb_device.c: 370:     USB1msTickCount = 0;
  4936  0017BE  0E00               	movlw	0
  4937  0017C0  6E01               	movwf	_USB1msTickCount,c	;volatile
  4938  0017C2  0E00               	movlw	0
  4939  0017C4  6E02               	movwf	_USB1msTickCount+1,c	;volatile
  4940  0017C6  0E00               	movlw	0
  4941  0017C8  6E03               	movwf	_USB1msTickCount+2,c	;volatile
  4942  0017CA  0E00               	movlw	0
  4943  0017CC  6E04               	movwf	_USB1msTickCount+3,c	;volatile
  4944                           
  4945                           ; BSR set to: 4
  4946                           ;usb/usb_device.c: 371:     USBTicksSinceSuspendEnd = 0;
  4947  0017CE  0E00               	movlw	0
  4948  0017D0  6E18               	movwf	_USBTicksSinceSuspendEnd,c	;volatile
  4949                           
  4950                           ; BSR set to: 4
  4951                           ;usb/usb_device.c: 374:     USBDeviceState = DETACHED_STATE;
  4952  0017D2  0E00               	movlw	0
  4953  0017D4  6E25               	movwf	_USBDeviceState,c	;volatile
  4954                           
  4955                           ; BSR set to: 4
  4956  0017D6  0012               	return		;funcret
  4957  0017D8                     __end_ofi2_USBDeviceInit:
  4958                           	opt callstack 0
  4959                           
  4960 ;; *************** function _USBWakeFromSuspend *****************
  4961 ;; Defined at:
  4962 ;;		line 2310 in file "usb/usb_device.c"
  4963 ;; Parameters:    Size  Location     Type
  4964 ;;		None
  4965 ;; Auto vars:     Size  Location     Type
  4966 ;;		None
  4967 ;; Return value:  Size  Location     Type
  4968 ;;                  1    wreg      void 
  4969 ;; Registers used:
  4970 ;;		wreg, fsr2l, fsr2h, status,2, status,0, prodl, prodh, cstack
  4971 ;; Tracked objects:
  4972 ;;		On entry : 0/0
  4973 ;;		On exit  : 0/0
  4974 ;;		Unchanged: 0/0
  4975 ;; Data sizes:     COMRAM   BANK0   BANK1   BANK2   BANK3   BANK4  BANK5h  BANK5l   BANK6   BANK7
  4976 ;;      Params:         0       0       0       0       0       0       0       0       0       0
  4977 ;;      Locals:         0       0       0       0       0       0       0       0       0       0
  4978 ;;      Temps:          0       0       0       0       0       0       0       0       0       0
  4979 ;;      Totals:         0       0       0       0       0       0       0       0       0       0
  4980 ;;Total ram usage:        0 bytes
  4981 ;; Hardware stack levels used:    1
  4982 ;; Hardware stack levels required when called:    4
  4983 ;; This function calls:
  4984 ;;		_USER_USB_CALLBACK_EVENT_HANDLER
  4985 ;; This function is called by:
  4986 ;;		_USBDeviceTasks
  4987 ;; This function uses a non-reentrant model
  4988 ;;
  4989                           
  4990                           	psect	text19
  4991  002C04                     __ptext19:
  4992                           	opt callstack 0
  4993  002C04                     _USBWakeFromSuspend:
  4994                           	opt callstack 20
  4995                           
  4996                           ;usb/usb_device.c: 2312:     USBBusIsSuspended = 0;
  4997                           
  4998                           ; BSR set to: 4
  4999                           ;incstack = 0
  5000  002C04  0E00               	movlw	0
  5001  002C06  6E21               	movwf	_USBBusIsSuspended,c	;volatile
  5002                           
  5003                           ;usb/usb_device.c: 2318:     USER_USB_CALLBACK_EVENT_HANDLER((USB_EVENT)EVENT_RESUME,0,0
      +                          );
  5004  002C08  0E00               	movlw	0
  5005  002C0A  6E39               	movwf	USER_USB_CALLBACK_EVENT_HANDLER@event+1,c
  5006  002C0C  0E74               	movlw	116
  5007  002C0E  6E38               	movwf	USER_USB_CALLBACK_EVENT_HANDLER@event,c
  5008  002C10  0E00               	movlw	0
  5009  002C12  6E3A               	movwf	USER_USB_CALLBACK_EVENT_HANDLER@pdata,c
  5010  002C14  0E00               	movlw	0
  5011  002C16  6E3B               	movwf	USER_USB_CALLBACK_EVENT_HANDLER@pdata+1,c
  5012  002C18  0E00               	movlw	0
  5013  002C1A  6E3D               	movwf	USER_USB_CALLBACK_EVENT_HANDLER@size+1,c
  5014  002C1C  0E00               	movlw	0
  5015  002C1E  6E3C               	movwf	USER_USB_CALLBACK_EVENT_HANDLER@size,c
  5016  002C20  ECCD  F011         	call	_USER_USB_CALLBACK_EVENT_HANDLER	;wreg free
  5017                           
  5018                           ;usb/usb_device.c: 2325:         UCONbits.SUSPND = 0;
  5019  002C24  9260               	bcf	3936,1,c	;volatile
  5020                           
  5021                           ;usb/usb_device.c: 2330:     UIEbits.ACTVIE = 0;
  5022  002C26  9464               	bcf	3940,2,c	;volatile
  5023                           
  5024                           ;usb/usb_device.c: 2348:     while(UIRbits.ACTVIF)
  5025  002C28  D001               	goto	i2l4655
  5026  002C2A                     i2l4653:
  5027                           
  5028                           ;usb/usb_device.c: 2350:     {;usb/usb_device.c: 2351:         (UIR &= 0xFB);
  5029  002C2A  9465               	bcf	3941,2,c	;volatile
  5030  002C2C                     i2l4655:
  5031                           
  5032                           ;usb/usb_device.c: 2348:     while(UIRbits.ACTVIF)
  5033  002C2C  B465               	btfsc	3941,2,c	;volatile
  5034  002C2E  D7FD               	goto	i2l4653
  5035                           
  5036                           ;usb/usb_device.c: 2354:     USBTicksSinceSuspendEnd = 0;
  5037  002C30  0E00               	movlw	0
  5038  002C32  6E18               	movwf	_USBTicksSinceSuspendEnd,c	;volatile
  5039  002C34  0012               	return		;funcret
  5040  002C36                     __end_of_USBWakeFromSuspend:
  5041                           	opt callstack 0
  5042                           
  5043 ;; *************** function _USBSuspend *****************
  5044 ;; Defined at:
  5045 ;;		line 2252 in file "usb/usb_device.c"
  5046 ;; Parameters:    Size  Location     Type
  5047 ;;		None
  5048 ;; Auto vars:     Size  Location     Type
  5049 ;;		None
  5050 ;; Return value:  Size  Location     Type
  5051 ;;                  1    wreg      void 
  5052 ;; Registers used:
  5053 ;;		wreg, fsr2l, fsr2h, status,2, status,0, prodl, prodh, cstack
  5054 ;; Tracked objects:
  5055 ;;		On entry : 0/0
  5056 ;;		On exit  : 0/0
  5057 ;;		Unchanged: 0/0
  5058 ;; Data sizes:     COMRAM   BANK0   BANK1   BANK2   BANK3   BANK4  BANK5h  BANK5l   BANK6   BANK7
  5059 ;;      Params:         0       0       0       0       0       0       0       0       0       0
  5060 ;;      Locals:         0       0       0       0       0       0       0       0       0       0
  5061 ;;      Temps:          0       0       0       0       0       0       0       0       0       0
  5062 ;;      Totals:         0       0       0       0       0       0       0       0       0       0
  5063 ;;Total ram usage:        0 bytes
  5064 ;; Hardware stack levels used:    1
  5065 ;; Hardware stack levels required when called:    4
  5066 ;; This function calls:
  5067 ;;		_USER_USB_CALLBACK_EVENT_HANDLER
  5068 ;; This function is called by:
  5069 ;;		_USBDeviceTasks
  5070 ;; This function uses a non-reentrant model
  5071 ;;
  5072                           
  5073                           	psect	text20
  5074  002CC2                     __ptext20:
  5075                           	opt callstack 0
  5076  002CC2                     _USBSuspend:
  5077                           	opt callstack 20
  5078                           
  5079                           ;usb/usb_device.c: 2277:     UIEbits.ACTVIE = 1;
  5080                           
  5081                           ;incstack = 0
  5082  002CC2  8464               	bsf	3940,2,c	;volatile
  5083                           
  5084                           ;usb/usb_device.c: 2278:     (UIR &= 0xEF);
  5085  002CC4  9865               	bcf	3941,4,c	;volatile
  5086                           
  5087                           ;usb/usb_device.c: 2281:         UCONbits.SUSPND = 1;
  5088  002CC6  8260               	bsf	3936,1,c	;volatile
  5089                           
  5090                           ;usb/usb_device.c: 2284:     USBBusIsSuspended = 1;
  5091  002CC8  0E01               	movlw	1
  5092  002CCA  6E21               	movwf	_USBBusIsSuspended,c	;volatile
  5093                           
  5094                           ;usb/usb_device.c: 2285:     USBTicksSinceSuspendEnd = 0;
  5095  002CCC  0E00               	movlw	0
  5096  002CCE  6E18               	movwf	_USBTicksSinceSuspendEnd,c	;volatile
  5097                           
  5098                           ;usb/usb_device.c: 2292:     USER_USB_CALLBACK_EVENT_HANDLER((USB_EVENT)EVENT_SUSPEND,0,
      +                          0);
  5099  002CD0  0E00               	movlw	0
  5100  002CD2  6E39               	movwf	USER_USB_CALLBACK_EVENT_HANDLER@event+1,c
  5101  002CD4  0E75               	movlw	117
  5102  002CD6  6E38               	movwf	USER_USB_CALLBACK_EVENT_HANDLER@event,c
  5103  002CD8  0E00               	movlw	0
  5104  002CDA  6E3A               	movwf	USER_USB_CALLBACK_EVENT_HANDLER@pdata,c
  5105  002CDC  0E00               	movlw	0
  5106  002CDE  6E3B               	movwf	USER_USB_CALLBACK_EVENT_HANDLER@pdata+1,c
  5107  002CE0  0E00               	movlw	0
  5108  002CE2  6E3D               	movwf	USER_USB_CALLBACK_EVENT_HANDLER@size+1,c
  5109  002CE4  0E00               	movlw	0
  5110  002CE6  6E3C               	movwf	USER_USB_CALLBACK_EVENT_HANDLER@size,c
  5111  002CE8  ECCD  F011         	call	_USER_USB_CALLBACK_EVENT_HANDLER	;wreg free
  5112  002CEC  0012               	return		;funcret
  5113  002CEE                     __end_of_USBSuspend:
  5114                           	opt callstack 0
  5115                           
  5116 ;; *************** function _USBStallHandler *****************
  5117 ;; Defined at:
  5118 ;;		line 2209 in file "usb/usb_device.c"
  5119 ;; Parameters:    Size  Location     Type
  5120 ;;		None
  5121 ;; Auto vars:     Size  Location     Type
  5122 ;;		None
  5123 ;; Return value:  Size  Location     Type
  5124 ;;                  1    wreg      void 
  5125 ;; Registers used:
  5126 ;;		wreg, fsr2l, fsr2h, status,2, status,0
  5127 ;; Tracked objects:
  5128 ;;		On entry : 0/0
  5129 ;;		On exit  : 0/0
  5130 ;;		Unchanged: 0/0
  5131 ;; Data sizes:     COMRAM   BANK0   BANK1   BANK2   BANK3   BANK4  BANK5h  BANK5l   BANK6   BANK7
  5132 ;;      Params:         0       0       0       0       0       0       0       0       0       0
  5133 ;;      Locals:         0       0       0       0       0       0       0       0       0       0
  5134 ;;      Temps:          1       0       0       0       0       0       0       0       0       0
  5135 ;;      Totals:         1       0       0       0       0       0       0       0       0       0
  5136 ;;Total ram usage:        1 bytes
  5137 ;; Hardware stack levels used:    1
  5138 ;; This function calls:
  5139 ;;		Nothing
  5140 ;; This function is called by:
  5141 ;;		_USBDeviceTasks
  5142 ;; This function uses a non-reentrant model
  5143 ;;
  5144                           
  5145                           	psect	text21
  5146  002A1E                     __ptext21:
  5147                           	opt callstack 0
  5148  002A1E                     _USBStallHandler:
  5149                           	opt callstack 24
  5150                           
  5151                           ;usb/usb_device.c: 2221:     if(UEP0bits.EPSTALL == 1)
  5152                           
  5153                           ;incstack = 0
  5154  002A1E  A06A               	btfss	3946,0,c	;volatile
  5155  002A20  D01D               	goto	i2l332
  5156                           
  5157                           ;usb/usb_device.c: 2222:     {;usb/usb_device.c: 2224:         if((pBDTEntryEP0OutCurren
      +                          t->STAT.Val == 0x80) && (pBDTEntryIn[0]->STAT.Val == (0x80|0x04)))
  5158  002A22  C012  FFD9         	movff	_pBDTEntryEP0OutCurrent,fsr2l
  5159  002A26  C013  FFDA         	movff	_pBDTEntryEP0OutCurrent+1,fsr2h
  5160  002A2A  0E80               	movlw	128
  5161  002A2C  18DE               	xorwf	postinc2,w,c
  5162  002A2E  A4D8               	btfss	status,2,c
  5163  002A30  D014               	goto	i2l4691
  5164  002A32  C0AE  FFD9         	movff	_pBDTEntryIn,fsr2l
  5165  002A36  C0AF  FFDA         	movff	_pBDTEntryIn+1,fsr2h
  5166  002A3A  0E84               	movlw	132
  5167  002A3C  18DE               	xorwf	postinc2,w,c
  5168  002A3E  A4D8               	btfss	status,2,c
  5169  002A40  D00C               	goto	i2l4691
  5170                           
  5171                           ;usb/usb_device.c: 2225:         {;usb/usb_device.c: 2227:             pBDTEntryEP0OutCu
      +                          rrent->STAT.Val = 0x00|(0x08 & 0x08)|0x04;
  5172  002A42  C012  FFD9         	movff	_pBDTEntryEP0OutCurrent,fsr2l
  5173  002A46  C013  FFDA         	movff	_pBDTEntryEP0OutCurrent+1,fsr2h
  5174  002A4A  0E0C               	movlw	12
  5175  002A4C  6EDF               	movwf	indf2,c
  5176                           
  5177                           ;usb/usb_device.c: 2228:             pBDTEntryEP0OutCurrent->STAT.Val |= 0x80;
  5178  002A4E  C012  FFD9         	movff	_pBDTEntryEP0OutCurrent,fsr2l
  5179  002A52  C013  FFDA         	movff	_pBDTEntryEP0OutCurrent+1,fsr2h
  5180  002A56  0E00               	movlw	0
  5181  002A58  8EDB               	bsf	plusw2,7,c
  5182  002A5A                     i2l4691:
  5183                           
  5184                           ;usb/usb_device.c: 2230:         UEP0bits.EPSTALL = 0;
  5185  002A5A  906A               	bcf	3946,0,c	;volatile
  5186  002A5C                     i2l332:
  5187                           
  5188                           ;usb/usb_device.c: 2233:     (UIR &= 0xDF);
  5189  002A5C  9A65               	bcf	3941,5,c	;volatile
  5190  002A5E  0012               	return		;funcret
  5191  002A60                     __end_of_USBStallHandler:
  5192                           	opt callstack 0
  5193                           
  5194 ;; *************** function _USBIncrement1msInternalTimers *****************
  5195 ;; Defined at:
  5196 ;;		line 2998 in file "usb/usb_device.c"
  5197 ;; Parameters:    Size  Location     Type
  5198 ;;		None
  5199 ;; Auto vars:     Size  Location     Type
  5200 ;;		None
  5201 ;; Return value:  Size  Location     Type
  5202 ;;                  1    wreg      void 
  5203 ;; Registers used:
  5204 ;;		wreg, status,2, status,0
  5205 ;; Tracked objects:
  5206 ;;		On entry : 0/0
  5207 ;;		On exit  : 0/0
  5208 ;;		Unchanged: 0/0
  5209 ;; Data sizes:     COMRAM   BANK0   BANK1   BANK2   BANK3   BANK4  BANK5h  BANK5l   BANK6   BANK7
  5210 ;;      Params:         0       0       0       0       0       0       0       0       0       0
  5211 ;;      Locals:         0       0       0       0       0       0       0       0       0       0
  5212 ;;      Temps:          0       0       0       0       0       0       0       0       0       0
  5213 ;;      Totals:         0       0       0       0       0       0       0       0       0       0
  5214 ;;Total ram usage:        0 bytes
  5215 ;; Hardware stack levels used:    1
  5216 ;; This function calls:
  5217 ;;		Nothing
  5218 ;; This function is called by:
  5219 ;;		_USBDeviceTasks
  5220 ;; This function uses a non-reentrant model
  5221 ;;
  5222                           
  5223                           	psect	text22
  5224  002D14                     __ptext22:
  5225                           	opt callstack 0
  5226  002D14                     _USBIncrement1msInternalTimers:
  5227                           	opt callstack 24
  5228                           
  5229                           ;usb/usb_device.c: 3006:     USB1msTickCount++;
  5230                           
  5231                           ;incstack = 0
  5232  002D14  0E01               	movlw	1
  5233  002D16  2601               	addwf	_USB1msTickCount,f,c	;volatile
  5234  002D18  0E00               	movlw	0
  5235  002D1A  2202               	addwfc	_USB1msTickCount+1,f,c	;volatile
  5236  002D1C  2203               	addwfc	_USB1msTickCount+2,f,c	;volatile
  5237  002D1E  2204               	addwfc	_USB1msTickCount+3,f,c	;volatile
  5238                           
  5239                           ;usb/usb_device.c: 3007:     if(USBBusIsSuspended == 0)
  5240  002D20  5021               	movf	_USBBusIsSuspended,w,c	;volatile
  5241  002D22  A4D8               	btfss	status,2,c
  5242  002D24  0012               	return	
  5243                           
  5244                           ;usb/usb_device.c: 3008:     {;usb/usb_device.c: 3009:         USBTicksSinceSuspendEnd++
      +                          ;
  5245  002D26  2A18               	incf	_USBTicksSinceSuspendEnd,f,c	;volatile
  5246                           
  5247                           ;usb/usb_device.c: 3011:         if(USBTicksSinceSuspendEnd == 0)
  5248  002D28  5018               	movf	_USBTicksSinceSuspendEnd,w,c	;volatile
  5249  002D2A  A4D8               	btfss	status,2,c
  5250  002D2C  0012               	return	
  5251                           
  5252                           ;usb/usb_device.c: 3012:         {;usb/usb_device.c: 3013:             USBTicksSinceSusp
      +                          endEnd = 255;
  5253  002D2E  6818               	setf	_USBTicksSinceSuspendEnd,c	;volatile
  5254  002D30  0012               	return		;funcret
  5255  002D32                     __end_of_USBIncrement1msInternalTimers:
  5256                           	opt callstack 0
  5257                           
  5258 ;; *************** function _USBCtrlEPService *****************
  5259 ;; Defined at:
  5260 ;;		line 2379 in file "usb/usb_device.c"
  5261 ;; Parameters:    Size  Location     Type
  5262 ;;		None
  5263 ;; Auto vars:     Size  Location     Type
  5264 ;;		None
  5265 ;; Return value:  Size  Location     Type
  5266 ;;                  1    wreg      void 
  5267 ;; Registers used:
  5268 ;;		wreg, fsr1l, fsr1h, fsr2l, fsr2h, status,2, status,0, pclath, tosl, tblptrl, tblptrh, tblptru, prodl, prodh, cstack
  5269 ;; Tracked objects:
  5270 ;;		On entry : 0/0
  5271 ;;		On exit  : 0/0
  5272 ;;		Unchanged: 0/0
  5273 ;; Data sizes:     COMRAM   BANK0   BANK1   BANK2   BANK3   BANK4  BANK5h  BANK5l   BANK6   BANK7
  5274 ;;      Params:         0       0       0       0       0       0       0       0       0       0
  5275 ;;      Locals:         0       0       0       0       0       0       0       0       0       0
  5276 ;;      Temps:          1       0       0       0       0       0       0       0       0       0
  5277 ;;      Totals:         1       0       0       0       0       0       0       0       0       0
  5278 ;;Total ram usage:        1 bytes
  5279 ;; Hardware stack levels used:    1
  5280 ;; Hardware stack levels required when called:    7
  5281 ;; This function calls:
  5282 ;;		_USBCtrlTrfInHandler
  5283 ;;		_USBCtrlTrfOutHandler
  5284 ;;		_USBCtrlTrfSetupHandler
  5285 ;;		_memcpy
  5286 ;; This function is called by:
  5287 ;;		_USBDeviceTasks
  5288 ;; This function uses a non-reentrant model
  5289 ;;
  5290                           
  5291                           	psect	text23
  5292  002432                     __ptext23:
  5293                           	opt callstack 0
  5294  002432                     _USBCtrlEPService:
  5295                           	opt callstack 17
  5296                           
  5297                           ;usb/usb_device.c: 2385:         USBStatusStageTimeoutCounter = (uint8_t)45;
  5298                           
  5299                           ;incstack = 0
  5300  002432  0E2D               	movlw	45
  5301  002434  6E1E               	movwf	_USBStatusStageTimeoutCounter,c	;volatile
  5302                           
  5303                           ;usb/usb_device.c: 2389:     if((USTATcopy.Val & ~0x02) == 0x00)
  5304  002436  C02A  F049         	movff	_USTATcopy,??_USBCtrlEPService	;volatile
  5305  00243A  0EFD               	movlw	253
  5306  00243C  1649               	andwf	??_USBCtrlEPService,f,c
  5307  00243E  A4D8               	btfss	status,2,c
  5308  002440  D03B               	goto	i2l4711
  5309                           
  5310                           ;usb/usb_device.c: 2390:     {;usb/usb_device.c: 2393:             pBDTEntryEP0OutCurren
      +                          t = (volatile BDT_ENTRY*)&BDT[(USTATcopy.Val & 0x7E)>>1];
  5311  002442  C02A  F049         	movff	_USTATcopy,??_USBCtrlEPService	;volatile
  5312  002446  90D8               	bcf	status,0,c
  5313  002448  3249               	rrcf	??_USBCtrlEPService,f,c
  5314  00244A  0E3F               	movlw	63
  5315  00244C  1649               	andwf	??_USBCtrlEPService,f,c
  5316  00244E  5049               	movf	??_USBCtrlEPService,w,c
  5317  002450  0D04               	mullw	4
  5318  002452  0E00               	movlw	0
  5319  002454  24F3               	addwf	prodl,w,c
  5320  002456  6E12               	movwf	_pBDTEntryEP0OutCurrent,c
  5321  002458  0E04               	movlw	4
  5322  00245A  20F4               	addwfc	prodh,w,c
  5323  00245C  6E13               	movwf	_pBDTEntryEP0OutCurrent+1,c
  5324                           
  5325                           ;usb/usb_device.c: 2401:         pBDTEntryEP0OutNext = pBDTEntryEP0OutCurrent;
  5326  00245E  C012  F010         	movff	_pBDTEntryEP0OutCurrent,_pBDTEntryEP0OutNext
  5327  002462  C013  F011         	movff	_pBDTEntryEP0OutCurrent+1,_pBDTEntryEP0OutNext+1
  5328                           
  5329                           ;usb/usb_device.c: 2403:         pBDTEntryEP0OutNext = (volatile BDT_ENTRY*)(((uint16_t)
      +                          pBDTEntryEP0OutNext) ^ 0x0004);
  5330  002466  0E04               	movlw	4
  5331  002468  1810               	xorwf	_pBDTEntryEP0OutNext,w,c
  5332  00246A  6E10               	movwf	_pBDTEntryEP0OutNext,c
  5333  00246C  5011               	movf	_pBDTEntryEP0OutNext+1,w,c
  5334  00246E  6E11               	movwf	_pBDTEntryEP0OutNext+1,c
  5335                           
  5336                           ;usb/usb_device.c: 2406:         if(pBDTEntryEP0OutCurrent->STAT.PID == 0xD)
  5337  002470  C012  FFD9         	movff	_pBDTEntryEP0OutCurrent,fsr2l
  5338  002474  C013  FFDA         	movff	_pBDTEntryEP0OutCurrent+1,fsr2h
  5339  002478  30DF               	rrcf	indf2,w,c
  5340  00247A  32E8               	rrcf	wreg,f,c
  5341  00247C  0B0F               	andlw	15
  5342  00247E  0A0D               	xorlw	13
  5343  002480  A4D8               	btfss	status,2,c
  5344  002482  D017               	goto	i2l4709
  5345                           
  5346                           ;usb/usb_device.c: 2407:         {;usb/usb_device.c: 2412:             memcpy((uint8_t*)
      +                          &SetupPkt, (uint8_t*)((void *)(pBDTEntryEP0OutCurrent->ADR)), 8);
  5347  002484  0E30               	movlw	48
  5348  002486  6E2C               	movwf	memcpy@d1,c
  5349  002488  0E04               	movlw	4
  5350  00248A  6E2D               	movwf	memcpy@d1+1,c
  5351  00248C  EE20 F002          	lfsr	2,2
  5352  002490  5012               	movf	_pBDTEntryEP0OutCurrent,w,c
  5353  002492  26D9               	addwf	fsr2l,f,c
  5354  002494  5013               	movf	_pBDTEntryEP0OutCurrent+1,w,c
  5355  002496  22DA               	addwfc	fsr2h,f,c
  5356  002498  CFDE F02E          	movff	postinc2,memcpy@s1
  5357  00249C  CFDD F02F          	movff	postdec2,memcpy@s1+1
  5358  0024A0  0E00               	movlw	0
  5359  0024A2  6E31               	movwf	memcpy@n+1,c
  5360  0024A4  0E08               	movlw	8
  5361  0024A6  6E30               	movwf	memcpy@n,c
  5362  0024A8  ECED  F014         	call	_memcpy	;wreg free
  5363                           
  5364                           ;usb/usb_device.c: 2415:             USBCtrlTrfSetupHandler();
  5365  0024AC  ECF8  F012         	call	_USBCtrlTrfSetupHandler	;wreg free
  5366                           
  5367                           ;usb/usb_device.c: 2416:         }
  5368  0024B0  0012               	return	
  5369  0024B2                     i2l4709:
  5370                           
  5371                           ;usb/usb_device.c: 2418:         {;usb/usb_device.c: 2420:             USBCtrlTrfOutHand
      +                          ler();
  5372  0024B2  ECFA  F013         	call	_USBCtrlTrfOutHandler	;wreg free
  5373  0024B6  0012               	return	
  5374  0024B8                     i2l4711:
  5375  0024B8  502A               	movf	_USTATcopy,w,c	;volatile
  5376  0024BA  0BFD               	andlw	253
  5377  0024BC  0A04               	xorlw	4
  5378  0024BE  A4D8               	btfss	status,2,c
  5379  0024C0  0012               	return	
  5380                           
  5381                           ;usb/usb_device.c: 2424:     {;usb/usb_device.c: 2427:         USBCtrlTrfInHandler();
  5382  0024C2  EC95  F00E         	call	_USBCtrlTrfInHandler	;wreg free
  5383  0024C6  0012               	return		;funcret
  5384  0024C8                     __end_of_USBCtrlEPService:
  5385                           	opt callstack 0
  5386                           
  5387 ;; *************** function _memcpy *****************
  5388 ;; Defined at:
  5389 ;;		line 4 in file "/opt/microchip/xc8/v2.05/pic/sources/c99/common/memcpy.c"
  5390 ;; Parameters:    Size  Location     Type
  5391 ;;  d1              2    0[COMRAM] PTR void 
  5392 ;;		 -> SetupPkt(8), 
  5393 ;;  s1              2    2[COMRAM] PTR const void 
  5394 ;;		 -> CtrlTrfData(8), RAM(2047), SetupPkt(8), 
  5395 ;;  n               2    4[COMRAM] unsigned int 
  5396 ;; Auto vars:     Size  Location     Type
  5397 ;;  s               2    8[COMRAM] PTR const unsigned char 
  5398 ;;		 -> CtrlTrfData(8), RAM(2047), SetupPkt(8), 
  5399 ;;  d               2    6[COMRAM] PTR unsigned char 
  5400 ;;		 -> SetupPkt(8), 
  5401 ;;  tmp             1   10[COMRAM] unsigned char 
  5402 ;; Return value:  Size  Location     Type
  5403 ;;                  2    0[COMRAM] PTR void 
  5404 ;; Registers used:
  5405 ;;		wreg, fsr2l, fsr2h, status,2, status,0
  5406 ;; Tracked objects:
  5407 ;;		On entry : 0/0
  5408 ;;		On exit  : 0/0
  5409 ;;		Unchanged: 0/0
  5410 ;; Data sizes:     COMRAM   BANK0   BANK1   BANK2   BANK3   BANK4  BANK5h  BANK5l   BANK6   BANK7
  5411 ;;      Params:         6       0       0       0       0       0       0       0       0       0
  5412 ;;      Locals:         5       0       0       0       0       0       0       0       0       0
  5413 ;;      Temps:          0       0       0       0       0       0       0       0       0       0
  5414 ;;      Totals:        11       0       0       0       0       0       0       0       0       0
  5415 ;;Total ram usage:       11 bytes
  5416 ;; Hardware stack levels used:    1
  5417 ;; This function calls:
  5418 ;;		Nothing
  5419 ;; This function is called by:
  5420 ;;		_USBCtrlEPService
  5421 ;; This function uses a non-reentrant model
  5422 ;;
  5423                           
  5424                           	psect	text24
  5425  0029DA                     __ptext24:
  5426                           	opt callstack 0
  5427  0029DA                     _memcpy:
  5428                           	opt callstack 23
  5429                           
  5430                           ;incstack = 0
  5431  0029DA  C02E  F034         	movff	memcpy@s1,memcpy@s
  5432  0029DE  C02F  F035         	movff	memcpy@s1+1,memcpy@s+1
  5433  0029E2  C02C  F032         	movff	memcpy@d1,memcpy@d
  5434  0029E6  C02D  F033         	movff	memcpy@d1+1,memcpy@d+1
  5435  0029EA  D010               	goto	i2l4429
  5436  0029EC                     i2l4421:
  5437  0029EC  C034  FFD9         	movff	memcpy@s,fsr2l
  5438  0029F0  C035  FFDA         	movff	memcpy@s+1,fsr2h
  5439  0029F4  50DF               	movf	indf2,w,c
  5440  0029F6  6E36               	movwf	memcpy@tmp,c
  5441  0029F8  4A34               	infsnz	memcpy@s,f,c
  5442  0029FA  2A35               	incf	memcpy@s+1,f,c
  5443  0029FC  C032  FFD9         	movff	memcpy@d,fsr2l
  5444  002A00  C033  FFDA         	movff	memcpy@d+1,fsr2h
  5445  002A04  C036  FFDF         	movff	memcpy@tmp,indf2
  5446  002A08  4A32               	infsnz	memcpy@d,f,c
  5447  002A0A  2A33               	incf	memcpy@d+1,f,c
  5448  002A0C                     i2l4429:
  5449  002A0C  0630               	decf	memcpy@n,f,c
  5450  002A0E  A0D8               	btfss	status,0,c
  5451  002A10  0631               	decf	memcpy@n+1,f,c
  5452  002A12  2830               	incf	memcpy@n,w,c
  5453  002A14  E1EB               	bnz	i2l4421
  5454  002A16  2831               	incf	memcpy@n+1,w,c
  5455  002A18  B4D8               	btfsc	status,2,c
  5456  002A1A  0012               	return	
  5457  002A1C  D7E7               	goto	i2l4421
  5458  002A1E                     __end_of_memcpy:
  5459                           	opt callstack 0
  5460                           
  5461 ;; *************** function _USBCtrlTrfSetupHandler *****************
  5462 ;; Defined at:
  5463 ;;		line 2472 in file "usb/usb_device.c"
  5464 ;; Parameters:    Size  Location     Type
  5465 ;;		None
  5466 ;; Auto vars:     Size  Location     Type
  5467 ;;		None
  5468 ;; Return value:  Size  Location     Type
  5469 ;;                  1    wreg      void 
  5470 ;; Registers used:
  5471 ;;		wreg, fsr1l, fsr1h, fsr2l, fsr2h, status,2, status,0, tblptrl, tblptrh, tblptru, prodl, prodh, cstack
  5472 ;; Tracked objects:
  5473 ;;		On entry : 0/0
  5474 ;;		On exit  : 0/0
  5475 ;;		Unchanged: 0/0
  5476 ;; Data sizes:     COMRAM   BANK0   BANK1   BANK2   BANK3   BANK4  BANK5h  BANK5l   BANK6   BANK7
  5477 ;;      Params:         0       0       0       0       0       0       0       0       0       0
  5478 ;;      Locals:         0       0       0       0       0       0       0       0       0       0
  5479 ;;      Temps:          0       0       0       0       0       0       0       0       0       0
  5480 ;;      Totals:         0       0       0       0       0       0       0       0       0       0
  5481 ;;Total ram usage:        0 bytes
  5482 ;; Hardware stack levels used:    1
  5483 ;; Hardware stack levels required when called:    6
  5484 ;; This function calls:
  5485 ;;		_USBCheckStdRequest
  5486 ;;		_USBCtrlEPServiceComplete
  5487 ;;		_USER_USB_CALLBACK_EVENT_HANDLER
  5488 ;; This function is called by:
  5489 ;;		_USBCtrlEPService
  5490 ;; This function uses a non-reentrant model
  5491 ;;
  5492                           
  5493                           	psect	text25
  5494  0025F0                     __ptext25:
  5495                           	opt callstack 0
  5496  0025F0                     _USBCtrlTrfSetupHandler:
  5497                           	opt callstack 17
  5498                           
  5499                           ;usb/usb_device.c: 2477:     shortPacketStatus = 0;
  5500                           
  5501                           ;incstack = 0
  5502  0025F0  0E00               	movlw	0
  5503  0025F2  6E24               	movwf	_shortPacketStatus,c	;volatile
  5504                           
  5505                           ;usb/usb_device.c: 2478:     USBDeferStatusStagePacket = 0;
  5506  0025F4  0E00               	movlw	0
  5507  0025F6  6E1D               	movwf	_USBDeferStatusStagePacket,c	;volatile
  5508                           
  5509                           ;usb/usb_device.c: 2479:     USBDeferINDataStagePackets = 0;
  5510  0025F8  0E00               	movlw	0
  5511  0025FA  6E1A               	movwf	_USBDeferINDataStagePackets,c	;volatile
  5512                           
  5513                           ;usb/usb_device.c: 2480:     USBDeferOUTDataStagePackets = 0;
  5514  0025FC  0E00               	movlw	0
  5515  0025FE  6E19               	movwf	_USBDeferOUTDataStagePackets,c	;volatile
  5516                           
  5517                           ;usb/usb_device.c: 2481:     BothEP0OutUOWNsSet = 0;
  5518  002600  0E00               	movlw	0
  5519  002602  6E1F               	movwf	_BothEP0OutUOWNsSet,c	;volatile
  5520                           
  5521                           ;usb/usb_device.c: 2482:     controlTransferState = 0;
  5522  002604  0E00               	movlw	0
  5523  002606  6E23               	movwf	_controlTransferState,c	;volatile
  5524                           
  5525                           ;usb/usb_device.c: 2491:     pBDTEntryIn[0]->STAT.Val &= ~(0x80);
  5526  002608  C0AE  FFD9         	movff	_pBDTEntryIn,fsr2l
  5527  00260C  C0AF  FFDA         	movff	_pBDTEntryIn+1,fsr2h
  5528  002610  0E7F               	movlw	127
  5529  002612  16DF               	andwf	indf2,f,c
  5530                           
  5531                           ;usb/usb_device.c: 2493:     pBDTEntryIn[0] = (volatile BDT_ENTRY*)(((uint16_t)pBDTEntry
      +                          In[0]) ^ 0x0004);
  5532  002614  0E04               	movlw	4
  5533  002616  0100               	movlb	0	; () banked
  5534  002618  19AE               	xorwf	_pBDTEntryIn& (0+255),w,b
  5535  00261A  6FAE               	movwf	_pBDTEntryIn& (0+255),b
  5536  00261C  51AF               	movf	(_pBDTEntryIn+1)& (0+255),w,b
  5537  00261E  6FAF               	movwf	(_pBDTEntryIn+1)& (0+255),b
  5538                           
  5539                           ; BSR set to: 0
  5540                           ;usb/usb_device.c: 2494:     pBDTEntryIn[0]->STAT.Val &= ~(0x80);
  5541  002620  C0AE  FFD9         	movff	_pBDTEntryIn,fsr2l
  5542  002624  C0AF  FFDA         	movff	_pBDTEntryIn+1,fsr2h
  5543  002628  0E7F               	movlw	127
  5544  00262A  16DF               	andwf	indf2,f,c
  5545                           
  5546                           ; BSR set to: 0
  5547                           ;usb/usb_device.c: 2495:     pBDTEntryIn[0] = (volatile BDT_ENTRY*)(((uint16_t)pBDTEntry
      +                          In[0]) ^ 0x0004);
  5548  00262C  0E04               	movlw	4
  5549  00262E  19AE               	xorwf	_pBDTEntryIn& (0+255),w,b
  5550  002630  6FAE               	movwf	_pBDTEntryIn& (0+255),b
  5551  002632  51AF               	movf	(_pBDTEntryIn+1)& (0+255),w,b
  5552  002634  6FAF               	movwf	(_pBDTEntryIn+1)& (0+255),b
  5553                           
  5554                           ; BSR set to: 0
  5555                           ;usb/usb_device.c: 2496:     pBDTEntryEP0OutNext->STAT.Val &= ~(0x80);
  5556  002636  C010  FFD9         	movff	_pBDTEntryEP0OutNext,fsr2l
  5557  00263A  C011  FFDA         	movff	_pBDTEntryEP0OutNext+1,fsr2h
  5558  00263E  0E7F               	movlw	127
  5559  002640  16DF               	andwf	indf2,f,c
  5560                           
  5561                           ; BSR set to: 0
  5562                           ;usb/usb_device.c: 2498:     inPipes[0].info.Val = 0;
  5563  002642  0E00               	movlw	0
  5564  002644  6FAB               	movwf	(_inPipes+3)& (0+255),b	;volatile
  5565                           
  5566                           ; BSR set to: 0
  5567                           ;usb/usb_device.c: 2499:     inPipes[0].wCount.Val = 0;
  5568  002646  0E00               	movlw	0
  5569  002648  6FAD               	movwf	(_inPipes+5)& (0+255),b	;volatile
  5570  00264A  0E00               	movlw	0
  5571  00264C  6FAC               	movwf	(_inPipes+4)& (0+255),b	;volatile
  5572                           
  5573                           ; BSR set to: 0
  5574                           ;usb/usb_device.c: 2500:     outPipes[0].info.Val = 0;
  5575  00264E  0E00               	movlw	0
  5576  002650  6FA3               	movwf	(_outPipes+3)& (0+255),b	;volatile
  5577                           
  5578                           ; BSR set to: 0
  5579                           ;usb/usb_device.c: 2501:     outPipes[0].wCount.Val = 0;
  5580  002652  0E00               	movlw	0
  5581  002654  6FA5               	movwf	(_outPipes+5)& (0+255),b	;volatile
  5582  002656  0E00               	movlw	0
  5583  002658  6FA4               	movwf	(_outPipes+4)& (0+255),b	;volatile
  5584                           
  5585                           ; BSR set to: 0
  5586                           ;usb/usb_device.c: 2507:     USBCheckStdRequest();
  5587  00265A  EC0A  F00F         	call	_USBCheckStdRequest	;wreg free
  5588                           
  5589                           ;usb/usb_device.c: 2508:     USER_USB_CALLBACK_EVENT_HANDLER((USB_EVENT)EVENT_EP0_REQUES
      +                          T,0,0);
  5590  00265E  0E00               	movlw	0
  5591  002660  6E39               	movwf	USER_USB_CALLBACK_EVENT_HANDLER@event+1,c
  5592  002662  0E03               	movlw	3
  5593  002664  6E38               	movwf	USER_USB_CALLBACK_EVENT_HANDLER@event,c
  5594  002666  0E00               	movlw	0
  5595  002668  6E3A               	movwf	USER_USB_CALLBACK_EVENT_HANDLER@pdata,c
  5596  00266A  0E00               	movlw	0
  5597  00266C  6E3B               	movwf	USER_USB_CALLBACK_EVENT_HANDLER@pdata+1,c
  5598  00266E  0E00               	movlw	0
  5599  002670  6E3D               	movwf	USER_USB_CALLBACK_EVENT_HANDLER@size+1,c
  5600  002672  0E00               	movlw	0
  5601  002674  6E3C               	movwf	USER_USB_CALLBACK_EVENT_HANDLER@size,c
  5602  002676  ECCD  F011         	call	_USER_USB_CALLBACK_EVENT_HANDLER	;wreg free
  5603                           
  5604                           ;usb/usb_device.c: 2521:     USBCtrlEPServiceComplete();
  5605  00267A  EC7C  F00F         	call	_USBCtrlEPServiceComplete	;wreg free
  5606  00267E  0012               	return		;funcret
  5607  002680                     __end_of_USBCtrlTrfSetupHandler:
  5608                           	opt callstack 0
  5609                           
  5610 ;; *************** function _USBCtrlEPServiceComplete *****************
  5611 ;; Defined at:
  5612 ;;		line 1620 in file "usb/usb_device.c"
  5613 ;; Parameters:    Size  Location     Type
  5614 ;;		None
  5615 ;; Auto vars:     Size  Location     Type
  5616 ;;		None
  5617 ;; Return value:  Size  Location     Type
  5618 ;;                  1    wreg      void 
  5619 ;; Registers used:
  5620 ;;		wreg, fsr1l, fsr1h, fsr2l, fsr2h, status,2, status,0, tblptrl, tblptrh, tblptru, cstack
  5621 ;; Tracked objects:
  5622 ;;		On entry : 0/0
  5623 ;;		On exit  : 0/0
  5624 ;;		Unchanged: 0/0
  5625 ;; Data sizes:     COMRAM   BANK0   BANK1   BANK2   BANK3   BANK4  BANK5h  BANK5l   BANK6   BANK7
  5626 ;;      Params:         0       0       0       0       0       0       0       0       0       0
  5627 ;;      Locals:         0       0       0       0       0       0       0       0       0       0
  5628 ;;      Temps:          0       0       0       0       0       0       0       0       0       0
  5629 ;;      Totals:         0       0       0       0       0       0       0       0       0       0
  5630 ;;Total ram usage:        0 bytes
  5631 ;; Hardware stack levels used:    1
  5632 ;; Hardware stack levels required when called:    2
  5633 ;; This function calls:
  5634 ;;		_USBCtrlEPAllowDataStage
  5635 ;;		_USBCtrlEPAllowStatusStage
  5636 ;; This function is called by:
  5637 ;;		_USBCtrlTrfSetupHandler
  5638 ;; This function uses a non-reentrant model
  5639 ;;
  5640                           
  5641                           	psect	text26
  5642  001EF8                     __ptext26:
  5643                           	opt callstack 0
  5644  001EF8                     _USBCtrlEPServiceComplete:
  5645                           	opt callstack 20
  5646                           
  5647                           ;usb/usb_device.c: 1626:     UCONbits.PKTDIS = 0;
  5648                           
  5649                           ;incstack = 0
  5650  001EF8  9860               	bcf	3936,4,c	;volatile
  5651                           
  5652                           ;usb/usb_device.c: 1632:     if(inPipes[0].info.bits.busy == 0)
  5653  001EFA  0100               	movlb	0	; () banked
  5654  001EFC  BFAB               	btfsc	(_inPipes+3)& (0+255),7,b	;volatile
  5655  001EFE  D038               	goto	i2l255
  5656                           
  5657                           ; BSR set to: 0
  5658                           ;usb/usb_device.c: 1633:     {;usb/usb_device.c: 1634:         if(outPipes[0].info.bits.
      +                          busy == 1)
  5659  001F00  AFA3               	btfss	(_outPipes+3)& (0+255),7,b	;volatile
  5660  001F02  D00B               	goto	i2l4283
  5661                           
  5662                           ; BSR set to: 0
  5663                           ;usb/usb_device.c: 1635:         {;usb/usb_device.c: 1636:             controlTransferSt
      +                          ate = 2;
  5664  001F04  0E02               	movlw	2
  5665  001F06  6E23               	movwf	_controlTransferState,c	;volatile
  5666                           
  5667                           ;usb/usb_device.c: 1647:             if(USBDeferOUTDataStagePackets == 0)
  5668  001F08  5019               	movf	_USBDeferOUTDataStagePackets,w,c	;volatile
  5669  001F0A  B4D8               	btfsc	status,2,c
  5670                           
  5671                           ; BSR set to: 0
  5672                           ;usb/usb_device.c: 1648:             {;usb/usb_device.c: 1649:                 USBCtrlEP
      +                          AllowDataStage();
  5673  001F0C  EC7E  F011         	call	_USBCtrlEPAllowDataStage	;wreg free
  5674                           
  5675                           ;usb/usb_device.c: 1654:             USBStatusStageEnabledFlag2 = 0;
  5676  001F10  0E00               	movlw	0
  5677  001F12  6E1B               	movwf	_USBStatusStageEnabledFlag2,c	;volatile
  5678                           
  5679                           ;usb/usb_device.c: 1655:             USBStatusStageEnabledFlag1 = 0;
  5680  001F14  0E00               	movlw	0
  5681  001F16  6E1C               	movwf	_USBStatusStageEnabledFlag1,c	;volatile
  5682                           
  5683                           ;usb/usb_device.c: 1656:         }
  5684  001F18  0012               	return	
  5685  001F1A                     i2l4283:
  5686                           
  5687                           ; BSR set to: 0
  5688                           ;usb/usb_device.c: 1658:         {;usb/usb_device.c: 1663:             pBDTEntryEP0OutNe
      +                          xt->CNT = 8;
  5689  001F1A  EE20 F001          	lfsr	2,1
  5690  001F1E  5010               	movf	_pBDTEntryEP0OutNext,w,c
  5691  001F20  26D9               	addwf	fsr2l,f,c
  5692  001F22  5011               	movf	_pBDTEntryEP0OutNext+1,w,c
  5693  001F24  22DA               	addwfc	fsr2h,f,c
  5694  001F26  0E08               	movlw	8
  5695  001F28  6EDF               	movwf	indf2,c
  5696                           
  5697                           ;usb/usb_device.c: 1664:             pBDTEntryEP0OutNext->ADR = ((uint16_t)(&SetupPkt));
  5698  001F2A  EE20 F002          	lfsr	2,2
  5699  001F2E  5010               	movf	_pBDTEntryEP0OutNext,w,c
  5700  001F30  26D9               	addwf	fsr2l,f,c
  5701  001F32  5011               	movf	_pBDTEntryEP0OutNext+1,w,c
  5702  001F34  22DA               	addwfc	fsr2h,f,c
  5703  001F36  0E30               	movlw	48
  5704  001F38  6EDE               	movwf	postinc2,c
  5705  001F3A  0E04               	movlw	4
  5706  001F3C  6EDD               	movwf	postdec2,c
  5707                           
  5708                           ; BSR set to: 0
  5709                           ;usb/usb_device.c: 1665:             pBDTEntryEP0OutNext->STAT.Val = 0x00|(0x08 & 0x08)|
      +                          0x04;
  5710  001F3E  C010  FFD9         	movff	_pBDTEntryEP0OutNext,fsr2l
  5711  001F42  C011  FFDA         	movff	_pBDTEntryEP0OutNext+1,fsr2h
  5712  001F46  0E0C               	movlw	12
  5713  001F48  6EDF               	movwf	indf2,c
  5714                           
  5715                           ; BSR set to: 0
  5716                           ;usb/usb_device.c: 1666:             pBDTEntryEP0OutNext->STAT.Val |= 0x80;
  5717  001F4A  C010  FFD9         	movff	_pBDTEntryEP0OutNext,fsr2l
  5718  001F4E  C011  FFDA         	movff	_pBDTEntryEP0OutNext+1,fsr2h
  5719  001F52  0E00               	movlw	0
  5720  001F54  8EDB               	bsf	plusw2,7,c
  5721                           
  5722                           ;usb/usb_device.c: 1667:             pBDTEntryIn[0]->STAT.Val = 0x04;
  5723  001F56  C0AE  FFD9         	movff	_pBDTEntryIn,fsr2l
  5724  001F5A  C0AF  FFDA         	movff	_pBDTEntryIn+1,fsr2h
  5725  001F5E  0E04               	movlw	4
  5726  001F60  6EDF               	movwf	indf2,c
  5727                           
  5728                           ; BSR set to: 0
  5729                           ;usb/usb_device.c: 1668:             pBDTEntryIn[0]->STAT.Val |= 0x80;
  5730  001F62  C0AE  FFD9         	movff	_pBDTEntryIn,fsr2l
  5731  001F66  C0AF  FFDA         	movff	_pBDTEntryIn+1,fsr2h
  5732  001F6A  0E00               	movlw	0
  5733  001F6C  8EDB               	bsf	plusw2,7,c
  5734  001F6E  0012               	return	
  5735  001F70                     i2l255:
  5736                           
  5737                           ; BSR set to: 0
  5738                           ;usb/usb_device.c: 1672:     {;usb/usb_device.c: 1673:   if(SetupPkt.DataDir == (0x80>>7
      +                          ))
  5739  001F70  0104               	movlb	4	; () banked
  5740  001F72  AF30               	btfss	48,7,b	;volatile
  5741  001F74  D010               	goto	i2l4303
  5742                           
  5743                           ; BSR set to: 4
  5744                           ;usb/usb_device.c: 1674:   {;usb/usb_device.c: 1675:    controlTransferState = 1;
  5745  001F76  0E01               	movlw	1
  5746  001F78  6E23               	movwf	_controlTransferState,c	;volatile
  5747                           
  5748                           ;usb/usb_device.c: 1689:    if(USBDeferINDataStagePackets == 0)
  5749  001F7A  501A               	movf	_USBDeferINDataStagePackets,w,c	;volatile
  5750  001F7C  B4D8               	btfsc	status,2,c
  5751                           
  5752                           ; BSR set to: 4
  5753                           ;usb/usb_device.c: 1690:             {;usb/usb_device.c: 1691:                 USBCtrlEP
      +                          AllowDataStage();
  5754  001F7E  EC7E  F011         	call	_USBCtrlEPAllowDataStage	;wreg free
  5755  001F82                     i2l4295:
  5756                           
  5757                           ;usb/usb_device.c: 1714:             USBStatusStageEnabledFlag2 = 0;
  5758  001F82  0E00               	movlw	0
  5759  001F84  6E1B               	movwf	_USBStatusStageEnabledFlag2,c	;volatile
  5760                           
  5761                           ;usb/usb_device.c: 1715:             USBStatusStageEnabledFlag1 = 0;
  5762  001F86  0E00               	movlw	0
  5763  001F88  6E1C               	movwf	_USBStatusStageEnabledFlag1,c	;volatile
  5764                           
  5765                           ;usb/usb_device.c: 1716:             if(USBDeferStatusStagePacket == 0)
  5766  001F8A  501D               	movf	_USBDeferStatusStagePacket,w,c	;volatile
  5767  001F8C  A4D8               	btfss	status,2,c
  5768  001F8E  0012               	return	
  5769                           
  5770                           ;usb/usb_device.c: 1717:             {;usb/usb_device.c: 1718:                 USBCtrlEP
      +                          AllowStatusStage();
  5771  001F90  ECBC  F010         	call	_USBCtrlEPAllowStatusStage	;wreg free
  5772  001F94  0012               	return	
  5773  001F96                     i2l4303:
  5774                           
  5775                           ; BSR set to: 4
  5776                           ;usb/usb_device.c: 1722:   {;usb/usb_device.c: 1733:    controlTransferState = 2;
  5777  001F96  0E02               	movlw	2
  5778  001F98  6E23               	movwf	_controlTransferState,c	;volatile
  5779                           
  5780                           ; BSR set to: 4
  5781                           ;usb/usb_device.c: 1736:    pBDTEntryEP0OutNext->CNT = 8;
  5782  001F9A  EE20 F001          	lfsr	2,1
  5783  001F9E  5010               	movf	_pBDTEntryEP0OutNext,w,c
  5784  001FA0  26D9               	addwf	fsr2l,f,c
  5785  001FA2  5011               	movf	_pBDTEntryEP0OutNext+1,w,c
  5786  001FA4  22DA               	addwfc	fsr2h,f,c
  5787  001FA6  0E08               	movlw	8
  5788  001FA8  6EDF               	movwf	indf2,c
  5789                           
  5790                           ; BSR set to: 4
  5791                           ;usb/usb_device.c: 1737:    pBDTEntryEP0OutNext->ADR = ((uint16_t)(&SetupPkt));
  5792  001FAA  EE20 F002          	lfsr	2,2
  5793  001FAE  5010               	movf	_pBDTEntryEP0OutNext,w,c
  5794  001FB0  26D9               	addwf	fsr2l,f,c
  5795  001FB2  5011               	movf	_pBDTEntryEP0OutNext+1,w,c
  5796  001FB4  22DA               	addwfc	fsr2h,f,c
  5797  001FB6  0E30               	movlw	48
  5798  001FB8  6EDE               	movwf	postinc2,c
  5799  001FBA  0E04               	movlw	4
  5800  001FBC  6EDD               	movwf	postdec2,c
  5801                           
  5802                           ; BSR set to: 4
  5803                           ;usb/usb_device.c: 1738:    pBDTEntryEP0OutNext->STAT.Val = 0x04;
  5804  001FBE  C010  FFD9         	movff	_pBDTEntryEP0OutNext,fsr2l
  5805  001FC2  C011  FFDA         	movff	_pBDTEntryEP0OutNext+1,fsr2h
  5806  001FC6  0E04               	movlw	4
  5807  001FC8  6EDF               	movwf	indf2,c
  5808                           
  5809                           ; BSR set to: 4
  5810                           ;usb/usb_device.c: 1739:             pBDTEntryEP0OutNext->STAT.Val |= 0x80;
  5811  001FCA  C010  FFD9         	movff	_pBDTEntryEP0OutNext,fsr2l
  5812  001FCE  C011  FFDA         	movff	_pBDTEntryEP0OutNext+1,fsr2h
  5813  001FD2  0E00               	movlw	0
  5814  001FD4  8EDB               	bsf	plusw2,7,c
  5815  001FD6  D7D5               	goto	i2l4295
  5816  001FD8                     __end_of_USBCtrlEPServiceComplete:
  5817                           	opt callstack 0
  5818                           
  5819 ;; *************** function _USBCtrlEPAllowDataStage *****************
  5820 ;; Defined at:
  5821 ;;		line 1492 in file "usb/usb_device.c"
  5822 ;; Parameters:    Size  Location     Type
  5823 ;;		None
  5824 ;; Auto vars:     Size  Location     Type
  5825 ;;		None
  5826 ;; Return value:  Size  Location     Type
  5827 ;;                  1    wreg      void 
  5828 ;; Registers used:
  5829 ;;		wreg, fsr1l, fsr1h, fsr2l, fsr2h, status,2, status,0, tblptrl, tblptrh, tblptru, cstack
  5830 ;; Tracked objects:
  5831 ;;		On entry : 0/0
  5832 ;;		On exit  : 0/0
  5833 ;;		Unchanged: 0/0
  5834 ;; Data sizes:     COMRAM   BANK0   BANK1   BANK2   BANK3   BANK4  BANK5h  BANK5l   BANK6   BANK7
  5835 ;;      Params:         0       0       0       0       0       0       0       0       0       0
  5836 ;;      Locals:         0       0       0       0       0       0       0       0       0       0
  5837 ;;      Temps:          0       0       0       0       0       0       0       0       0       0
  5838 ;;      Totals:         0       0       0       0       0       0       0       0       0       0
  5839 ;;Total ram usage:        0 bytes
  5840 ;; Hardware stack levels used:    1
  5841 ;; Hardware stack levels required when called:    1
  5842 ;; This function calls:
  5843 ;;		_USBCtrlTrfTxService
  5844 ;; This function is called by:
  5845 ;;		_USBCtrlEPServiceComplete
  5846 ;; This function uses a non-reentrant model
  5847 ;;
  5848                           
  5849                           	psect	text27
  5850  0022FC                     __ptext27:
  5851                           	opt callstack 0
  5852  0022FC                     _USBCtrlEPAllowDataStage:
  5853                           	opt callstack 20
  5854                           
  5855                           ;usb/usb_device.c: 1494:     USBDeferINDataStagePackets = 0;
  5856                           
  5857                           ;incstack = 0
  5858  0022FC  0E00               	movlw	0
  5859  0022FE  6E1A               	movwf	_USBDeferINDataStagePackets,c	;volatile
  5860                           
  5861                           ;usb/usb_device.c: 1495:     USBDeferOUTDataStagePackets = 0;
  5862  002300  0E00               	movlw	0
  5863  002302  6E19               	movwf	_USBDeferOUTDataStagePackets,c	;volatile
  5864                           
  5865                           ;usb/usb_device.c: 1497:     if(controlTransferState == 2)
  5866  002304  0E02               	movlw	2
  5867  002306  1823               	xorwf	_controlTransferState,w,c	;volatile
  5868  002308  A4D8               	btfss	status,2,c
  5869  00230A  D01F               	goto	i2l4061
  5870                           
  5871                           ;usb/usb_device.c: 1498:     {;usb/usb_device.c: 1500:         pBDTEntryEP0OutNext->CNT 
      +                          = 8;
  5872  00230C  EE20 F001          	lfsr	2,1
  5873  002310  5010               	movf	_pBDTEntryEP0OutNext,w,c
  5874  002312  26D9               	addwf	fsr2l,f,c
  5875  002314  5011               	movf	_pBDTEntryEP0OutNext+1,w,c
  5876  002316  22DA               	addwfc	fsr2h,f,c
  5877  002318  0E08               	movlw	8
  5878  00231A  6EDF               	movwf	indf2,c
  5879                           
  5880                           ;usb/usb_device.c: 1501:         pBDTEntryEP0OutNext->ADR = ((uint16_t)(&CtrlTrfData));
  5881  00231C  EE20 F002          	lfsr	2,2
  5882  002320  5010               	movf	_pBDTEntryEP0OutNext,w,c
  5883  002322  26D9               	addwf	fsr2l,f,c
  5884  002324  5011               	movf	_pBDTEntryEP0OutNext+1,w,c
  5885  002326  22DA               	addwfc	fsr2h,f,c
  5886  002328  0E38               	movlw	56
  5887  00232A  6EDE               	movwf	postinc2,c
  5888  00232C  0E04               	movlw	4
  5889  00232E  6EDD               	movwf	postdec2,c
  5890                           
  5891                           ;usb/usb_device.c: 1502:         pBDTEntryEP0OutNext->STAT.Val = 0x40|(0x08 & 0x08);
  5892  002330  C010  FFD9         	movff	_pBDTEntryEP0OutNext,fsr2l
  5893  002334  C011  FFDA         	movff	_pBDTEntryEP0OutNext+1,fsr2h
  5894  002338  0E48               	movlw	72
  5895  00233A  6EDF               	movwf	indf2,c
  5896                           
  5897                           ;usb/usb_device.c: 1503:         pBDTEntryEP0OutNext->STAT.Val |= 0x80;
  5898  00233C  C010  FFD9         	movff	_pBDTEntryEP0OutNext,fsr2l
  5899  002340  C011  FFDA         	movff	_pBDTEntryEP0OutNext+1,fsr2h
  5900  002344  0E00               	movlw	0
  5901  002346  8EDB               	bsf	plusw2,7,c
  5902                           
  5903                           ;usb/usb_device.c: 1504:     }
  5904  002348  0012               	return	
  5905  00234A                     i2l4061:
  5906                           
  5907                           ;usb/usb_device.c: 1506:     {;usb/usb_device.c: 1509:   if(SetupPkt.wLength < inPipes[0
      +                          ].wCount.Val)
  5908  00234A  0100               	movlb	0	; () banked
  5909  00234C  51AC               	movf	(_inPipes+4)& (0+255),w,b	;volatile
  5910  00234E  0104               	movlb	4	; () banked
  5911  002350  5D36               	subwf	54,w,b	;volatile
  5912  002352  0100               	movlb	0	; () banked
  5913  002354  51AD               	movf	(_inPipes+5)& (0+255),w,b	;volatile
  5914  002356  0104               	movlb	4	; () banked
  5915  002358  5937               	subwfb	55,w,b	;volatile
  5916  00235A  B0D8               	btfsc	status,0,c
  5917  00235C  D004               	goto	i2l4065
  5918                           
  5919                           ; BSR set to: 4
  5920                           ;usb/usb_device.c: 1510:   {;usb/usb_device.c: 1511:    inPipes[0].wCount.Val = SetupPkt
      +                          .wLength;
  5921  00235E  C436 F0AC          	movff	1078,_inPipes+4	;volatile
  5922  002362  C437 F0AD          	movff	1079,_inPipes+5	;volatile
  5923  002366                     i2l4065:
  5924                           
  5925                           ; BSR set to: 4
  5926                           ;usb/usb_device.c: 1513:   USBCtrlTrfTxService();
  5927  002366  EC56  F010         	call	_USBCtrlTrfTxService	;wreg free
  5928                           
  5929                           ;usb/usb_device.c: 1518:   pBDTEntryIn[0]->ADR = ((uint16_t)(&CtrlTrfData));
  5930  00236A  0100               	movlb	0	; () banked
  5931  00236C  EE20 F002          	lfsr	2,2
  5932  002370  51AE               	movf	_pBDTEntryIn& (0+255),w,b
  5933  002372  26D9               	addwf	fsr2l,f,c
  5934  002374  51AF               	movf	(_pBDTEntryIn+1)& (0+255),w,b
  5935  002376  22DA               	addwfc	fsr2h,f,c
  5936  002378  0E38               	movlw	56
  5937  00237A  6EDE               	movwf	postinc2,c
  5938  00237C  0E04               	movlw	4
  5939  00237E  6EDD               	movwf	postdec2,c
  5940                           
  5941                           ; BSR set to: 0
  5942                           ;usb/usb_device.c: 1519:   pBDTEntryIn[0]->STAT.Val = 0x40|(0x08 & 0x08);
  5943  002380  C0AE  FFD9         	movff	_pBDTEntryIn,fsr2l
  5944  002384  C0AF  FFDA         	movff	_pBDTEntryIn+1,fsr2h
  5945  002388  0E48               	movlw	72
  5946  00238A  6EDF               	movwf	indf2,c
  5947                           
  5948                           ; BSR set to: 0
  5949                           ;usb/usb_device.c: 1520:         pBDTEntryIn[0]->STAT.Val |= 0x80;
  5950  00238C  C0AE  FFD9         	movff	_pBDTEntryIn,fsr2l
  5951  002390  C0AF  FFDA         	movff	_pBDTEntryIn+1,fsr2h
  5952  002394  0E00               	movlw	0
  5953  002396  8EDB               	bsf	plusw2,7,c
  5954  002398  0012               	return		;funcret
  5955  00239A                     __end_of_USBCtrlEPAllowDataStage:
  5956                           	opt callstack 0
  5957                           
  5958 ;; *************** function _USBCheckStdRequest *****************
  5959 ;; Defined at:
  5960 ;;		line 2693 in file "usb/usb_device.c"
  5961 ;; Parameters:    Size  Location     Type
  5962 ;;		None
  5963 ;; Auto vars:     Size  Location     Type
  5964 ;;		None
  5965 ;; Return value:  Size  Location     Type
  5966 ;;                  1    wreg      void 
  5967 ;; Registers used:
  5968 ;;		wreg, fsr1l, fsr1h, fsr2l, fsr2h, status,2, status,0, tblptrl, tblptrh, tblptru, prodl, prodh, cstack
  5969 ;; Tracked objects:
  5970 ;;		On entry : 0/0
  5971 ;;		On exit  : 0/0
  5972 ;;		Unchanged: 0/0
  5973 ;; Data sizes:     COMRAM   BANK0   BANK1   BANK2   BANK3   BANK4  BANK5h  BANK5l   BANK6   BANK7
  5974 ;;      Params:         0       0       0       0       0       0       0       0       0       0
  5975 ;;      Locals:         0       0       0       0       0       0       0       0       0       0
  5976 ;;      Temps:          2       0       0       0       0       0       0       0       0       0
  5977 ;;      Totals:         2       0       0       0       0       0       0       0       0       0
  5978 ;;Total ram usage:        2 bytes
  5979 ;; Hardware stack levels used:    1
  5980 ;; Hardware stack levels required when called:    5
  5981 ;; This function calls:
  5982 ;;		_USBStdFeatureReqHandler
  5983 ;;		_USBStdGetDscHandler
  5984 ;;		_USBStdGetStatusHandler
  5985 ;;		_USBStdSetCfgHandler
  5986 ;;		_USER_USB_CALLBACK_EVENT_HANDLER
  5987 ;; This function is called by:
  5988 ;;		_USBCtrlTrfSetupHandler
  5989 ;; This function uses a non-reentrant model
  5990 ;;
  5991                           
  5992                           	psect	text28
  5993  001E14                     __ptext28:
  5994                           	opt callstack 0
  5995  001E14                     _USBCheckStdRequest:
  5996                           	opt callstack 17
  5997                           
  5998                           ;usb/usb_device.c: 2695:     if(SetupPkt.RequestType != (0x00>>5)) return;
  5999                           
  6000                           ;incstack = 0
  6001  001E14  0104               	movlb	4	; () banked
  6002  001E16  3930               	swapf	48,w,b	;volatile
  6003  001E18  32E8               	rrcf	wreg,f,c
  6004  001E1A  0B03               	andlw	3
  6005  001E1C  0900               	iorlw	0
  6006  001E1E  A4D8               	btfss	status,2,c
  6007  001E20  0012               	return	
  6008  001E22  D042               	goto	i2l4405
  6009  001E24                     i2l381:
  6010                           
  6011                           ; BSR set to: 4
  6012                           ;usb/usb_device.c: 2700:             inPipes[0].info.bits.busy = 1;
  6013  001E24  0100               	movlb	0	; () banked
  6014  001E26  8FAB               	bsf	(_inPipes+3)& (0+255),7,b	;volatile
  6015                           
  6016                           ; BSR set to: 0
  6017                           ;usb/usb_device.c: 2701:             USBDeviceState = ADR_PENDING_STATE;
  6018  001E28  0E08               	movlw	8
  6019  001E2A  6E25               	movwf	_USBDeviceState,c	;volatile
  6020                           
  6021                           ;usb/usb_device.c: 2703:             break;
  6022  001E2C  0012               	return	
  6023  001E2E                     i2l4375:
  6024                           
  6025                           ; BSR set to: 4
  6026                           ;usb/usb_device.c: 2705:             USBStdGetDscHandler();
  6027  001E2E  EC59  F008         	call	_USBStdGetDscHandler	;wreg free
  6028                           
  6029                           ;usb/usb_device.c: 2706:             break;
  6030  001E32  0012               	return	
  6031  001E34                     i2l4377:
  6032                           
  6033                           ; BSR set to: 4
  6034                           ;usb/usb_device.c: 2708:             USBStdSetCfgHandler();
  6035  001E34  ECEC  F00F         	call	_USBStdSetCfgHandler	;wreg free
  6036                           
  6037                           ;usb/usb_device.c: 2709:             break;
  6038  001E38  0012               	return	
  6039  001E3A                     i2l4379:
  6040                           
  6041                           ; BSR set to: 4
  6042                           ;usb/usb_device.c: 2711:             inPipes[0].pSrc.bRam = (uint8_t*)&USBActiveConfigur
      +                          ation;
  6043  001E3A  0E2B               	movlw	low _USBActiveConfiguration
  6044  001E3C  0100               	movlb	0	; () banked
  6045  001E3E  6FA8               	movwf	_inPipes& (0+255),b	;volatile
  6046  001E40  0E00               	movlw	high _USBActiveConfiguration
  6047  001E42  6FA9               	movwf	(_inPipes+1)& (0+255),b	;volatile
  6048                           
  6049                           ; BSR set to: 0
  6050                           ;usb/usb_device.c: 2712:             inPipes[0].info.bits.ctrl_trf_mem = 0x01;
  6051  001E44  81AB               	bsf	(_inPipes+3)& (0+255),0,b	;volatile
  6052                           
  6053                           ; BSR set to: 0
  6054                           ;usb/usb_device.c: 2713:             inPipes[0].wCount.v[0] = 1;
  6055  001E46  0E01               	movlw	1
  6056  001E48  6FAC               	movwf	(_inPipes+4)& (0+255),b	;volatile
  6057                           
  6058                           ; BSR set to: 0
  6059                           ;usb/usb_device.c: 2714:             inPipes[0].info.bits.busy = 1;
  6060  001E4A  8FAB               	bsf	(_inPipes+3)& (0+255),7,b	;volatile
  6061                           
  6062                           ;usb/usb_device.c: 2715:             break;
  6063  001E4C  0012               	return	
  6064  001E4E                     i2l4387:
  6065                           
  6066                           ; BSR set to: 4
  6067                           ;usb/usb_device.c: 2717:             USBStdGetStatusHandler();
  6068  001E4E  EC1E  F011         	call	_USBStdGetStatusHandler	;wreg free
  6069                           
  6070                           ;usb/usb_device.c: 2718:             break;
  6071  001E52  0012               	return	
  6072  001E54                     i2l4389:
  6073                           
  6074                           ; BSR set to: 4
  6075                           ;usb/usb_device.c: 2721:             USBStdFeatureReqHandler();
  6076  001E54  EC56  F006         	call	_USBStdFeatureReqHandler	;wreg free
  6077                           
  6078                           ;usb/usb_device.c: 2722:             break;
  6079  001E58  0012               	return	
  6080  001E5A                     i2l4391:
  6081                           
  6082                           ; BSR set to: 4
  6083                           ;usb/usb_device.c: 2724:             inPipes[0].pSrc.bRam = (uint8_t*)&USBAlternateInter
      +                          face[SetupPkt.bIntfID];
  6084  001E5A  0E26               	movlw	low _USBAlternateInterface
  6085  001E5C  2534               	addwf	52,w,b	;volatile
  6086  001E5E  0100               	movlb	0	; () banked
  6087  001E60  6FA8               	movwf	_inPipes& (0+255),b	;volatile
  6088  001E62  6BA9               	clrf	(_inPipes+1)& (0+255),b	;volatile
  6089  001E64  0E00               	movlw	high _USBAlternateInterface
  6090  001E66  23A9               	addwfc	(_inPipes+1)& (0+255),f,b	;volatile
  6091                           
  6092                           ; BSR set to: 0
  6093                           ;usb/usb_device.c: 2725:             inPipes[0].info.bits.ctrl_trf_mem = 0x01;
  6094  001E68  81AB               	bsf	(_inPipes+3)& (0+255),0,b	;volatile
  6095                           
  6096                           ; BSR set to: 0
  6097                           ;usb/usb_device.c: 2726:             inPipes[0].wCount.v[0] = 1;
  6098  001E6A  0E01               	movlw	1
  6099  001E6C  6FAC               	movwf	(_inPipes+4)& (0+255),b	;volatile
  6100                           
  6101                           ; BSR set to: 0
  6102                           ;usb/usb_device.c: 2727:             inPipes[0].info.bits.busy = 1;
  6103  001E6E  8FAB               	bsf	(_inPipes+3)& (0+255),7,b	;volatile
  6104                           
  6105                           ;usb/usb_device.c: 2728:             break;
  6106  001E70  0012               	return	
  6107  001E72                     i2l390:
  6108                           
  6109                           ; BSR set to: 4
  6110                           ;usb/usb_device.c: 2730:             inPipes[0].info.bits.busy = 1;
  6111  001E72  0100               	movlb	0	; () banked
  6112  001E74  8FAB               	bsf	(_inPipes+3)& (0+255),7,b	;volatile
  6113                           
  6114                           ; BSR set to: 0
  6115                           ;usb/usb_device.c: 2731:             USBAlternateInterface[SetupPkt.bIntfID] = SetupPkt.
      +                          bAltID;
  6116  001E76  0E26               	movlw	low _USBAlternateInterface
  6117  001E78  0104               	movlb	4	; () banked
  6118  001E7A  2534               	addwf	52,w,b	;volatile
  6119  001E7C  6ED9               	movwf	fsr2l,c
  6120  001E7E  6ADA               	clrf	fsr2h,c
  6121  001E80  0E00               	movlw	high _USBAlternateInterface
  6122  001E82  22DA               	addwfc	fsr2h,f,c
  6123  001E84  C432 FFDF          	movff	1074,indf2	;volatile
  6124                           
  6125                           ;usb/usb_device.c: 2732:             break;
  6126  001E88  0012               	return	
  6127  001E8A                     i2l4401:
  6128                           
  6129                           ; BSR set to: 4
  6130                           ;usb/usb_device.c: 2734:             USER_USB_CALLBACK_EVENT_HANDLER((USB_EVENT)EVENT_SE
      +                          T_DESCRIPTOR,0,0);
  6131  001E8A  0E00               	movlw	0
  6132  001E8C  6E39               	movwf	USER_USB_CALLBACK_EVENT_HANDLER@event+1,c
  6133  001E8E  0E02               	movlw	2
  6134  001E90  6E38               	movwf	USER_USB_CALLBACK_EVENT_HANDLER@event,c
  6135  001E92  0E00               	movlw	0
  6136  001E94  6E3A               	movwf	USER_USB_CALLBACK_EVENT_HANDLER@pdata,c
  6137  001E96  0E00               	movlw	0
  6138  001E98  6E3B               	movwf	USER_USB_CALLBACK_EVENT_HANDLER@pdata+1,c
  6139  001E9A  0E00               	movlw	0
  6140  001E9C  6E3D               	movwf	USER_USB_CALLBACK_EVENT_HANDLER@size+1,c
  6141  001E9E  0E00               	movlw	0
  6142  001EA0  6E3C               	movwf	USER_USB_CALLBACK_EVENT_HANDLER@size,c
  6143  001EA2  ECCD  F011         	call	_USER_USB_CALLBACK_EVENT_HANDLER	;wreg free
  6144                           
  6145                           ;usb/usb_device.c: 2735:             break;
  6146  001EA6  0012               	return	
  6147  001EA8                     i2l4405:
  6148                           
  6149                           ; BSR set to: 4
  6150  001EA8  5131               	movf	49,w,b	;volatile
  6151  001EAA  6E47               	movwf	??_USBCheckStdRequest& (0+255),c
  6152  001EAC  6A48               	clrf	(??_USBCheckStdRequest+1)& (0+255),c
  6153                           
  6154                           ; Switch on 2 bytes has been partitioned into a top level switch of size 1, and 1 sub-sw
      +                          itches
  6155                           ; Switch size 1, requested type "simple"
  6156                           ; Number of cases is 1, Range of values is 0 to 0
  6157                           ; switch strategies available:
  6158                           ; Name         Instructions Cycles
  6159                           ; simple_byte            4     3 (average)
  6160                           ;	Chosen strategy is simple_byte
  6161  001EAE  5048               	movf	??_USBCheckStdRequest+1,w,c
  6162  001EB0  0A00               	xorlw	0	; case 0
  6163  001EB2  A4D8               	btfss	status,2,c
  6164  001EB4  0012               	return	
  6165                           
  6166                           ; BSR set to: 4
  6167                           ; Switch size 1, requested type "simple"
  6168                           ; Number of cases is 11, Range of values is 0 to 12
  6169                           ; switch strategies available:
  6170                           ; Name         Instructions Cycles
  6171                           ; simple_byte           34    18 (average)
  6172                           ;	Chosen strategy is simple_byte
  6173  001EB6  5047               	movf	??_USBCheckStdRequest,w,c
  6174  001EB8  0A00               	xorlw	0	; case 0
  6175  001EBA  B4D8               	btfsc	status,2,c
  6176  001EBC  D7C8               	goto	i2l4387
  6177  001EBE  0A01               	xorlw	1	; case 1
  6178  001EC0  B4D8               	btfsc	status,2,c
  6179  001EC2  D7C8               	goto	i2l4389
  6180  001EC4  0A02               	xorlw	2	; case 3
  6181  001EC6  B4D8               	btfsc	status,2,c
  6182  001EC8  D7C5               	goto	i2l4389
  6183  001ECA  0A06               	xorlw	6	; case 5
  6184  001ECC  B4D8               	btfsc	status,2,c
  6185  001ECE  D7AA               	goto	i2l381
  6186  001ED0  0A03               	xorlw	3	; case 6
  6187  001ED2  B4D8               	btfsc	status,2,c
  6188  001ED4  D7AC               	goto	i2l4375
  6189  001ED6  0A01               	xorlw	1	; case 7
  6190  001ED8  B4D8               	btfsc	status,2,c
  6191  001EDA  D7D7               	goto	i2l4401
  6192  001EDC  0A0F               	xorlw	15	; case 8
  6193  001EDE  B4D8               	btfsc	status,2,c
  6194  001EE0  D7AC               	goto	i2l4379
  6195  001EE2  0A01               	xorlw	1	; case 9
  6196  001EE4  B4D8               	btfsc	status,2,c
  6197  001EE6  D7A6               	goto	i2l4377
  6198  001EE8  0A03               	xorlw	3	; case 10
  6199  001EEA  B4D8               	btfsc	status,2,c
  6200  001EEC  D7B6               	goto	i2l4391
  6201  001EEE  0A01               	xorlw	1	; case 11
  6202  001EF0  B4D8               	btfsc	status,2,c
  6203  001EF2  D7BF               	goto	i2l390
  6204  001EF4  0A07               	xorlw	7	; case 12
  6205  001EF6  0012               	return	
  6206  001EF8                     __end_of_USBCheckStdRequest:
  6207                           	opt callstack 0
  6208                           
  6209 ;; *************** function _USBStdSetCfgHandler *****************
  6210 ;; Defined at:
  6211 ;;		line 1972 in file "usb/usb_device.c"
  6212 ;; Parameters:    Size  Location     Type
  6213 ;;		None
  6214 ;; Auto vars:     Size  Location     Type
  6215 ;;  i               1   20[COMRAM] unsigned char 
  6216 ;; Return value:  Size  Location     Type
  6217 ;;                  1    wreg      void 
  6218 ;; Registers used:
  6219 ;;		wreg, fsr2l, fsr2h, status,2, status,0, prodl, prodh, cstack
  6220 ;; Tracked objects:
  6221 ;;		On entry : 0/0
  6222 ;;		On exit  : 0/0
  6223 ;;		Unchanged: 0/0
  6224 ;; Data sizes:     COMRAM   BANK0   BANK1   BANK2   BANK3   BANK4  BANK5h  BANK5l   BANK6   BANK7
  6225 ;;      Params:         0       0       0       0       0       0       0       0       0       0
  6226 ;;      Locals:         1       0       0       0       0       0       0       0       0       0
  6227 ;;      Temps:          0       0       0       0       0       0       0       0       0       0
  6228 ;;      Totals:         1       0       0       0       0       0       0       0       0       0
  6229 ;;Total ram usage:        1 bytes
  6230 ;; Hardware stack levels used:    1
  6231 ;; Hardware stack levels required when called:    4
  6232 ;; This function calls:
  6233 ;;		_USER_USB_CALLBACK_EVENT_HANDLER
  6234 ;;		i2_memset
  6235 ;; This function is called by:
  6236 ;;		_USBCheckStdRequest
  6237 ;; This function uses a non-reentrant model
  6238 ;;
  6239                           
  6240                           	psect	text29
  6241  001FD8                     __ptext29:
  6242                           	opt callstack 0
  6243  001FD8                     _USBStdSetCfgHandler:
  6244                           	opt callstack 17
  6245                           
  6246                           ;usb/usb_device.c: 1974:     uint8_t i;;usb/usb_device.c: 1977:     inPipes[0].info.bits
      +                          .busy = 1;
  6247                           
  6248                           ;incstack = 0
  6249  001FD8  0100               	movlb	0	; () banked
  6250  001FDA  8FAB               	bsf	(_inPipes+3)& (0+255),7,b	;volatile
  6251                           
  6252                           ; BSR set to: 0
  6253                           ;usb/usb_device.c: 1980:     memset((void*)&UEP1,0x00,(2));;
  6254  001FDC  0E6B               	movlw	107
  6255  001FDE  6E2C               	movwf	i2memset@dest,c
  6256  001FE0  0E0F               	movlw	15
  6257  001FE2  6E2D               	movwf	i2memset@dest+1,c
  6258  001FE4  0E00               	movlw	0
  6259  001FE6  6E2F               	movwf	i2memset@c+1,c
  6260  001FE8  0E00               	movlw	0
  6261  001FEA  6E2E               	movwf	i2memset@c,c
  6262  001FEC  0E00               	movlw	0
  6263  001FEE  6E31               	movwf	i2memset@n+1,c
  6264  001FF0  0E02               	movlw	2
  6265  001FF2  6E30               	movwf	i2memset@n,c
  6266  001FF4  EC8F  F009         	call	i2_memset	;wreg free
  6267                           
  6268                           ;usb/usb_device.c: 1983:     memset((void*)&BDT[0], 0x00, sizeof(BDT));
  6269  001FF8  0E00               	movlw	0
  6270  001FFA  6E2C               	movwf	i2memset@dest,c
  6271  001FFC  0E04               	movlw	4
  6272  001FFE  6E2D               	movwf	i2memset@dest+1,c
  6273  002000  0E00               	movlw	0
  6274  002002  6E2F               	movwf	i2memset@c+1,c
  6275  002004  0E00               	movlw	0
  6276  002006  6E2E               	movwf	i2memset@c,c
  6277  002008  0E00               	movlw	0
  6278  00200A  6E31               	movwf	i2memset@n+1,c
  6279  00200C  0E30               	movlw	48
  6280  00200E  6E30               	movwf	i2memset@n,c
  6281  002010  EC8F  F009         	call	i2_memset	;wreg free
  6282                           
  6283                           ;usb/usb_device.c: 1986:     UCONbits.PPBRST = 1;
  6284  002014  8C60               	bsf	3936,6,c	;volatile
  6285                           
  6286                           ;usb/usb_device.c: 1991:  for(i = 0; i < (uint8_t)(2 +1u); i++)
  6287  002016  0E00               	movlw	0
  6288  002018  6E40               	movwf	USBStdSetCfgHandler@i,c
  6289  00201A                     i2l4085:
  6290                           
  6291                           ;usb/usb_device.c: 1992:  {;usb/usb_device.c: 1993:   ep_data_in[i].Val = 0u;
  6292  00201A  0ECA               	movlw	low _ep_data_in
  6293  00201C  2440               	addwf	USBStdSetCfgHandler@i,w,c
  6294  00201E  6ED9               	movwf	fsr2l,c
  6295  002020  6ADA               	clrf	fsr2h,c
  6296  002022  0E00               	movlw	high _ep_data_in
  6297  002024  22DA               	addwfc	fsr2h,f,c
  6298  002026  0E00               	movlw	0
  6299  002028  6EDF               	movwf	indf2,c
  6300                           
  6301                           ;usb/usb_device.c: 1994:         ep_data_out[i].Val = 0u;
  6302  00202A  0EC7               	movlw	low _ep_data_out
  6303  00202C  2440               	addwf	USBStdSetCfgHandler@i,w,c
  6304  00202E  6ED9               	movwf	fsr2l,c
  6305  002030  6ADA               	clrf	fsr2h,c
  6306  002032  0E00               	movlw	high _ep_data_out
  6307  002034  22DA               	addwfc	fsr2h,f,c
  6308  002036  0E00               	movlw	0
  6309  002038  6EDF               	movwf	indf2,c
  6310                           
  6311                           ;usb/usb_device.c: 1995:  }
  6312  00203A  2A40               	incf	USBStdSetCfgHandler@i,f,c
  6313  00203C  0E02               	movlw	2
  6314  00203E  6440               	cpfsgt	USBStdSetCfgHandler@i,c
  6315  002040  D7EC               	goto	i2l4085
  6316                           
  6317                           ;usb/usb_device.c: 1998:     memset((void*)&USBAlternateInterface,0x00,2);
  6318  002042  0E26               	movlw	low _USBAlternateInterface
  6319  002044  6E2C               	movwf	i2memset@dest,c
  6320  002046  0E00               	movlw	high _USBAlternateInterface
  6321  002048  6E2D               	movwf	i2memset@dest+1,c
  6322  00204A  0E00               	movlw	0
  6323  00204C  6E2F               	movwf	i2memset@c+1,c
  6324  00204E  0E00               	movlw	0
  6325  002050  6E2E               	movwf	i2memset@c,c
  6326  002052  0E00               	movlw	0
  6327  002054  6E31               	movwf	i2memset@n+1,c
  6328  002056  0E02               	movlw	2
  6329  002058  6E30               	movwf	i2memset@n,c
  6330  00205A  EC8F  F009         	call	i2_memset	;wreg free
  6331                           
  6332                           ;usb/usb_device.c: 2001:     UCONbits.PPBRST = 0;
  6333  00205E  9C60               	bcf	3936,6,c	;volatile
  6334                           
  6335                           ;usb/usb_device.c: 2003:     pBDTEntryIn[0] = (volatile BDT_ENTRY*)&BDT[2];
  6336  002060  0E08               	movlw	8
  6337  002062  0100               	movlb	0	; () banked
  6338  002064  6FAE               	movwf	_pBDTEntryIn& (0+255),b
  6339  002066  0E04               	movlw	4
  6340  002068  6FAF               	movwf	(_pBDTEntryIn+1)& (0+255),b
  6341                           
  6342                           ; BSR set to: 0
  6343                           ;usb/usb_device.c: 2006:     pBDTEntryEP0OutCurrent = (volatile BDT_ENTRY*)&BDT[0];
  6344  00206A  0E00               	movlw	0
  6345  00206C  6E12               	movwf	_pBDTEntryEP0OutCurrent,c
  6346  00206E  0E04               	movlw	4
  6347  002070  6E13               	movwf	_pBDTEntryEP0OutCurrent+1,c
  6348                           
  6349                           ; BSR set to: 0
  6350                           ;usb/usb_device.c: 2007:     pBDTEntryEP0OutNext = pBDTEntryEP0OutCurrent;
  6351  002072  C012  F010         	movff	_pBDTEntryEP0OutCurrent,_pBDTEntryEP0OutNext
  6352  002076  C013  F011         	movff	_pBDTEntryEP0OutCurrent+1,_pBDTEntryEP0OutNext+1
  6353                           
  6354                           ; BSR set to: 0
  6355                           ;usb/usb_device.c: 2010:     USBActiveConfiguration = SetupPkt.bConfigurationValue;
  6356  00207A  C432 F02B          	movff	1074,_USBActiveConfiguration	;volatile
  6357                           
  6358                           ; BSR set to: 0
  6359                           ;usb/usb_device.c: 2013:     if(USBActiveConfiguration == 0)
  6360  00207E  502B               	movf	_USBActiveConfiguration,w,c	;volatile
  6361  002080  A4D8               	btfss	status,2,c
  6362  002082  D003               	goto	i2l4107
  6363                           
  6364                           ; BSR set to: 0
  6365                           ;usb/usb_device.c: 2014:     {;usb/usb_device.c: 2016:         USBDeviceState = ADDRESS_
      +                          STATE;
  6366  002084  0E10               	movlw	16
  6367  002086  6E25               	movwf	_USBDeviceState,c	;volatile
  6368                           
  6369                           ;usb/usb_device.c: 2017:     }
  6370  002088  0012               	return	
  6371  00208A                     i2l4107:
  6372                           
  6373                           ; BSR set to: 0
  6374                           ;usb/usb_device.c: 2019:     {;usb/usb_device.c: 2021:         USER_USB_CALLBACK_EVENT_H
      +                          ANDLER((USB_EVENT)EVENT_CONFIGURED,(void*)&USBActiveConfiguration,1);
  6375  00208A  0E00               	movlw	0
  6376  00208C  6E39               	movwf	USER_USB_CALLBACK_EVENT_HANDLER@event+1,c
  6377  00208E  0E01               	movlw	1
  6378  002090  6E38               	movwf	USER_USB_CALLBACK_EVENT_HANDLER@event,c
  6379  002092  0E2B               	movlw	low _USBActiveConfiguration
  6380  002094  6E3A               	movwf	USER_USB_CALLBACK_EVENT_HANDLER@pdata,c
  6381  002096  0E00               	movlw	high _USBActiveConfiguration
  6382  002098  6E3B               	movwf	USER_USB_CALLBACK_EVENT_HANDLER@pdata+1,c
  6383  00209A  0E00               	movlw	0
  6384  00209C  6E3D               	movwf	USER_USB_CALLBACK_EVENT_HANDLER@size+1,c
  6385  00209E  0E01               	movlw	1
  6386  0020A0  6E3C               	movwf	USER_USB_CALLBACK_EVENT_HANDLER@size,c
  6387  0020A2  ECCD  F011         	call	_USER_USB_CALLBACK_EVENT_HANDLER	;wreg free
  6388                           
  6389                           ;usb/usb_device.c: 2026:         USBDeviceState = CONFIGURED_STATE;
  6390  0020A6  0E20               	movlw	32
  6391  0020A8  6E25               	movwf	_USBDeviceState,c	;volatile
  6392  0020AA  0012               	return		;funcret
  6393  0020AC                     __end_of_USBStdSetCfgHandler:
  6394                           	opt callstack 0
  6395                           
  6396 ;; *************** function i2_memset *****************
  6397 ;; Defined at:
  6398 ;;		line 4 in file "/opt/microchip/xc8/v2.05/pic/sources/c99/common/memset.c"
  6399 ;; Parameters:    Size  Location     Type
  6400 ;;  dest            2    0[COMRAM] PTR void 
  6401 ;;		 -> inputReport(8), USBAlternateInterface(2), BDT(48), UEP1(1), 
  6402 ;;  c               2    2[COMRAM] int 
  6403 ;;  n               2    4[COMRAM] unsigned int 
  6404 ;; Auto vars:     Size  Location     Type
  6405 ;;  memset          2   10[COMRAM] PTR unsigned char 
  6406 ;;		 -> inputReport(8), USBAlternateInterface(2), BDT(48), UEP1(1), 
  6407 ;;  memset          2    8[COMRAM] unsigned int 
  6408 ;; Return value:  Size  Location     Type
  6409 ;;                  2    0[COMRAM] PTR void 
  6410 ;; Registers used:
  6411 ;;		wreg, fsr2l, fsr2h, status,2, status,0
  6412 ;; Tracked objects:
  6413 ;;		On entry : 0/0
  6414 ;;		On exit  : 0/0
  6415 ;;		Unchanged: 0/0
  6416 ;; Data sizes:     COMRAM   BANK0   BANK1   BANK2   BANK3   BANK4  BANK5h  BANK5l   BANK6   BANK7
  6417 ;;      Params:         6       0       0       0       0       0       0       0       0       0
  6418 ;;      Locals:         4       0       0       0       0       0       0       0       0       0
  6419 ;;      Temps:          2       0       0       0       0       0       0       0       0       0
  6420 ;;      Totals:        12       0       0       0       0       0       0       0       0       0
  6421 ;;Total ram usage:       12 bytes
  6422 ;; Hardware stack levels used:    1
  6423 ;; This function calls:
  6424 ;;		Nothing
  6425 ;; This function is called by:
  6426 ;;		_USBStdSetCfgHandler
  6427 ;;		i2_USBDeviceInit
  6428 ;; This function uses a non-reentrant model
  6429 ;;
  6430                           
  6431                           	psect	text30
  6432  00131E                     __ptext30:
  6433                           	opt callstack 0
  6434  00131E                     i2_memset:
  6435                           	opt callstack 23
  6436                           
  6437                           ;incstack = 0
  6438  00131E  C02C  F036         	movff	i2memset@dest,i2memset@s
  6439  001322  C02D  F037         	movff	i2memset@dest+1,i2memset@s+1
  6440  001326  5030               	movf	i2memset@n,w,c
  6441  001328  1031               	iorwf	i2memset@n+1,w,c
  6442  00132A  B4D8               	btfsc	status,2,c
  6443  00132C  0012               	return	
  6444  00132E  C036  FFD9         	movff	i2memset@s,fsr2l
  6445  001332  C037  FFDA         	movff	i2memset@s+1,fsr2h
  6446  001336  C02E  FFDF         	movff	i2memset@c,indf2
  6447  00133A  5030               	movf	i2memset@n,w,c
  6448  00133C  2436               	addwf	i2memset@s,w,c
  6449  00133E  6E32               	movwf	??i2_memset& (0+255),c
  6450  001340  5031               	movf	i2memset@n+1,w,c
  6451  001342  2037               	addwfc	i2memset@s+1,w,c
  6452  001344  6E33               	movwf	(??i2_memset+1)& (0+255),c
  6453  001346  0EFF               	movlw	255
  6454  001348  2432               	addwf	??i2_memset,w,c
  6455  00134A  6ED9               	movwf	fsr2l,c
  6456  00134C  0EFF               	movlw	255
  6457  00134E  2033               	addwfc	??i2_memset+1,w,c
  6458  001350  6EDA               	movwf	fsr2h,c
  6459  001352  C02E  FFDF         	movff	i2memset@c,indf2
  6460  001356  5031               	movf	i2memset@n+1,w,c
  6461  001358  E104               	bnz	i2l3995
  6462  00135A  0E03               	movlw	3
  6463  00135C  5C30               	subwf	i2memset@n,w,c
  6464  00135E  A0D8               	btfss	status,0,c
  6465  001360  0012               	return	
  6466  001362                     i2l3995:
  6467  001362  EE20 F001          	lfsr	2,1
  6468  001366  5036               	movf	i2memset@s,w,c
  6469  001368  26D9               	addwf	fsr2l,f,c
  6470  00136A  5037               	movf	i2memset@s+1,w,c
  6471  00136C  22DA               	addwfc	fsr2h,f,c
  6472  00136E  C02E  FFDF         	movff	i2memset@c,indf2
  6473  001372  EE20 F002          	lfsr	2,2
  6474  001376  5036               	movf	i2memset@s,w,c
  6475  001378  26D9               	addwf	fsr2l,f,c
  6476  00137A  5037               	movf	i2memset@s+1,w,c
  6477  00137C  22DA               	addwfc	fsr2h,f,c
  6478  00137E  C02E  FFDF         	movff	i2memset@c,indf2
  6479  001382  5030               	movf	i2memset@n,w,c
  6480  001384  2436               	addwf	i2memset@s,w,c
  6481  001386  6E32               	movwf	??i2_memset& (0+255),c
  6482  001388  5031               	movf	i2memset@n+1,w,c
  6483  00138A  2037               	addwfc	i2memset@s+1,w,c
  6484  00138C  6E33               	movwf	(??i2_memset+1)& (0+255),c
  6485  00138E  0EFE               	movlw	254
  6486  001390  2432               	addwf	??i2_memset,w,c
  6487  001392  6ED9               	movwf	fsr2l,c
  6488  001394  0EFF               	movlw	255
  6489  001396  2033               	addwfc	??i2_memset+1,w,c
  6490  001398  6EDA               	movwf	fsr2h,c
  6491  00139A  C02E  FFDF         	movff	i2memset@c,indf2
  6492  00139E  5030               	movf	i2memset@n,w,c
  6493  0013A0  2436               	addwf	i2memset@s,w,c
  6494  0013A2  6E32               	movwf	??i2_memset& (0+255),c
  6495  0013A4  5031               	movf	i2memset@n+1,w,c
  6496  0013A6  2037               	addwfc	i2memset@s+1,w,c
  6497  0013A8  6E33               	movwf	(??i2_memset+1)& (0+255),c
  6498  0013AA  0EFD               	movlw	253
  6499  0013AC  2432               	addwf	??i2_memset,w,c
  6500  0013AE  6ED9               	movwf	fsr2l,c
  6501  0013B0  0EFF               	movlw	255
  6502  0013B2  2033               	addwfc	??i2_memset+1,w,c
  6503  0013B4  6EDA               	movwf	fsr2h,c
  6504  0013B6  C02E  FFDF         	movff	i2memset@c,indf2
  6505  0013BA  5031               	movf	i2memset@n+1,w,c
  6506  0013BC  E104               	bnz	i2l4001
  6507  0013BE  0E07               	movlw	7
  6508  0013C0  5C30               	subwf	i2memset@n,w,c
  6509  0013C2  A0D8               	btfss	status,0,c
  6510  0013C4  0012               	return	
  6511  0013C6                     i2l4001:
  6512  0013C6  EE20 F003          	lfsr	2,3
  6513  0013CA  5036               	movf	i2memset@s,w,c
  6514  0013CC  26D9               	addwf	fsr2l,f,c
  6515  0013CE  5037               	movf	i2memset@s+1,w,c
  6516  0013D0  22DA               	addwfc	fsr2h,f,c
  6517  0013D2  C02E  FFDF         	movff	i2memset@c,indf2
  6518  0013D6  5030               	movf	i2memset@n,w,c
  6519  0013D8  2436               	addwf	i2memset@s,w,c
  6520  0013DA  6E32               	movwf	??i2_memset& (0+255),c
  6521  0013DC  5031               	movf	i2memset@n+1,w,c
  6522  0013DE  2037               	addwfc	i2memset@s+1,w,c
  6523  0013E0  6E33               	movwf	(??i2_memset+1)& (0+255),c
  6524  0013E2  0EFC               	movlw	252
  6525  0013E4  2432               	addwf	??i2_memset,w,c
  6526  0013E6  6ED9               	movwf	fsr2l,c
  6527  0013E8  0EFF               	movlw	255
  6528  0013EA  2033               	addwfc	??i2_memset+1,w,c
  6529  0013EC  6EDA               	movwf	fsr2h,c
  6530  0013EE  C02E  FFDF         	movff	i2memset@c,indf2
  6531  0013F2  5031               	movf	i2memset@n+1,w,c
  6532  0013F4  E104               	bnz	i2l4007
  6533  0013F6  0E09               	movlw	9
  6534  0013F8  5C30               	subwf	i2memset@n,w,c
  6535  0013FA  A0D8               	btfss	status,0,c
  6536  0013FC  0012               	return	
  6537  0013FE                     i2l4007:
  6538  0013FE  C036  F032         	movff	i2memset@s,??i2_memset
  6539  001402  C037  F033         	movff	i2memset@s+1,??i2_memset+1
  6540  001406  1E32               	comf	??i2_memset,f,c
  6541  001408  1E33               	comf	??i2_memset+1,f,c
  6542  00140A  4A32               	infsnz	??i2_memset,f,c
  6543  00140C  2A33               	incf	??i2_memset+1,f,c
  6544  00140E  0E03               	movlw	3
  6545  001410  1432               	andwf	??i2_memset,w,c
  6546  001412  6E34               	movwf	i2memset@k,c
  6547  001414  6A35               	clrf	i2memset@k+1,c
  6548  001416  5034               	movf	i2memset@k,w,c
  6549  001418  2636               	addwf	i2memset@s,f,c
  6550  00141A  5035               	movf	i2memset@k+1,w,c
  6551  00141C  2237               	addwfc	i2memset@s+1,f,c
  6552  00141E  5034               	movf	i2memset@k,w,c
  6553  001420  5E30               	subwf	i2memset@n,f,c
  6554  001422  5035               	movf	i2memset@k+1,w,c
  6555  001424  5A31               	subwfb	i2memset@n+1,f,c
  6556  001426  0EFC               	movlw	252
  6557  001428  1630               	andwf	i2memset@n,f,c
  6558  00142A  0EFF               	movlw	255
  6559  00142C  1631               	andwf	i2memset@n+1,f,c
  6560  00142E  D00B               	goto	i2l4015
  6561  001430                     i2l4009:
  6562  001430  C036  FFD9         	movff	i2memset@s,fsr2l
  6563  001434  C037  FFDA         	movff	i2memset@s+1,fsr2h
  6564  001438  C02E  FFDF         	movff	i2memset@c,indf2
  6565  00143C  0630               	decf	i2memset@n,f,c
  6566  00143E  A0D8               	btfss	status,0,c
  6567  001440  0631               	decf	i2memset@n+1,f,c
  6568  001442  4A36               	infsnz	i2memset@s,f,c
  6569  001444  2A37               	incf	i2memset@s+1,f,c
  6570  001446                     i2l4015:
  6571  001446  5030               	movf	i2memset@n,w,c
  6572  001448  1031               	iorwf	i2memset@n+1,w,c
  6573  00144A  B4D8               	btfsc	status,2,c
  6574  00144C  0012               	return	
  6575  00144E  D7F0               	goto	i2l4009
  6576  001450                     __end_ofi2_memset:
  6577                           	opt callstack 0
  6578                           
  6579 ;; *************** function _USBStdGetStatusHandler *****************
  6580 ;; Defined at:
  6581 ;;		line 2133 in file "usb/usb_device.c"
  6582 ;; Parameters:    Size  Location     Type
  6583 ;;		None
  6584 ;; Auto vars:     Size  Location     Type
  6585 ;;  p               2    2[COMRAM] PTR struct __BDT
  6586 ;;		 -> RAM(2047), NULL(0), BDT(48), 
  6587 ;; Return value:  Size  Location     Type
  6588 ;;                  1    wreg      void 
  6589 ;; Registers used:
  6590 ;;		wreg, fsr2l, fsr2h, status,2, status,0, prodl, prodh
  6591 ;; Tracked objects:
  6592 ;;		On entry : 0/0
  6593 ;;		On exit  : 0/0
  6594 ;;		Unchanged: 0/0
  6595 ;; Data sizes:     COMRAM   BANK0   BANK1   BANK2   BANK3   BANK4  BANK5h  BANK5l   BANK6   BANK7
  6596 ;;      Params:         0       0       0       0       0       0       0       0       0       0
  6597 ;;      Locals:         2       0       0       0       0       0       0       0       0       0
  6598 ;;      Temps:          2       0       0       0       0       0       0       0       0       0
  6599 ;;      Totals:         4       0       0       0       0       0       0       0       0       0
  6600 ;;Total ram usage:        4 bytes
  6601 ;; Hardware stack levels used:    1
  6602 ;; This function calls:
  6603 ;;		Nothing
  6604 ;; This function is called by:
  6605 ;;		_USBCheckStdRequest
  6606 ;; This function uses a non-reentrant model
  6607 ;;
  6608                           
  6609                           	psect	text31
  6610  00223C                     __ptext31:
  6611                           	opt callstack 0
  6612  00223C                     _USBStdGetStatusHandler:
  6613                           	opt callstack 21
  6614                           
  6615                           ;usb/usb_device.c: 2135:     CtrlTrfData[0] = 0;
  6616                           
  6617                           ;incstack = 0
  6618  00223C  0E00               	movlw	0
  6619  00223E  0104               	movlb	4	; () banked
  6620  002240  6F38               	movwf	56,b	;volatile
  6621                           
  6622                           ;usb/usb_device.c: 2136:     CtrlTrfData[1] = 0;
  6623  002242  0E00               	movlw	0
  6624  002244  6F39               	movwf	57,b	;volatile
  6625                           
  6626                           ;usb/usb_device.c: 2138:     switch(SetupPkt.Recipient)
  6627  002246  D03D               	goto	i2l4171
  6628  002248                     i2l318:
  6629                           
  6630                           ; BSR set to: 4
  6631                           ;usb/usb_device.c: 2141:             inPipes[0].info.bits.busy = 1;
  6632  002248  0100               	movlb	0	; () banked
  6633  00224A  8FAB               	bsf	(_inPipes+3)& (0+255),7,b	;volatile
  6634                           
  6635                           ; BSR set to: 0
  6636                           ;usb/usb_device.c: 2151:             if(RemoteWakeup == 1)
  6637                           
  6638                           ;usb/usb_device.c: 2146:             if(0 == 1)
  6639  00224C  0422               	decf	_RemoteWakeup,w,c	;volatile
  6640  00224E  A4D8               	btfss	status,2,c
  6641  002250  D04A               	goto	i2l321
  6642                           
  6643                           ; BSR set to: 0
  6644                           ;usb/usb_device.c: 2152:             {;usb/usb_device.c: 2153:                 CtrlTrfDa
      +                          ta[0]|=0x02;
  6645  002252  0104               	movlb	4	; () banked
  6646  002254  8338               	bsf	56,1,b	;volatile
  6647  002256  D047               	goto	i2l321
  6648  002258                     i2l322:
  6649                           
  6650                           ; BSR set to: 4
  6651                           ;usb/usb_device.c: 2157:             inPipes[0].info.bits.busy = 1;
  6652  002258  0100               	movlb	0	; () banked
  6653  00225A  8FAB               	bsf	(_inPipes+3)& (0+255),7,b	;volatile
  6654                           
  6655                           ;usb/usb_device.c: 2158:             break;
  6656  00225C  D044               	goto	i2l321
  6657  00225E                     i2l323:
  6658                           
  6659                           ; BSR set to: 4
  6660                           ;usb/usb_device.c: 2160:             inPipes[0].info.bits.busy = 1;
  6661  00225E  0100               	movlb	0	; () banked
  6662  002260  8FAB               	bsf	(_inPipes+3)& (0+255),7,b	;volatile
  6663                           
  6664                           ; BSR set to: 0
  6665                           ;usb/usb_device.c: 2164:             if(SetupPkt.EPNum != 0)
  6666  002262  0104               	movlb	4	; () banked
  6667  002264  5134               	movf	52,w,b	;volatile
  6668  002266  0B0F               	andlw	15
  6669  002268  0900               	iorlw	0
  6670  00226A  B4D8               	btfsc	status,2,c
  6671  00226C  D03C               	goto	i2l321
  6672                           
  6673                           ; BSR set to: 4
  6674                           ;usb/usb_device.c: 2165:             {;usb/usb_device.c: 2166:                 BDT_ENTRY
      +                           *p;;usb/usb_device.c: 2168:                 if(SetupPkt.EPDir == 0)
  6675  00226E  BF34               	btfsc	52,7,b	;volatile
  6676  002270  D00A               	goto	i2l4161
  6677                           
  6678                           ; BSR set to: 4
  6679                           ;usb/usb_device.c: 2169:                 {;usb/usb_device.c: 2170:                     p
      +                           = (BDT_ENTRY*)pBDTEntryOut[SetupPkt.EPNum];
  6680  002272  5134               	movf	52,w,b	;volatile
  6681  002274  0B0F               	andlw	15
  6682  002276  6E2C               	movwf	??_USBStdGetStatusHandler& (0+255),c
  6683  002278  502C               	movf	??_USBStdGetStatusHandler,w,c
  6684  00227A  0D02               	mullw	2
  6685  00227C  0EB4               	movlw	low _pBDTEntryOut
  6686  00227E  24F3               	addwf	prodl,w,c
  6687  002280  6ED9               	movwf	fsr2l,c
  6688  002282  0E00               	movlw	high _pBDTEntryOut
  6689  002284  D009               	goto	L4
  6690  002286                     i2l4161:
  6691                           
  6692                           ; BSR set to: 4
  6693                           ;usb/usb_device.c: 2173:                 {;usb/usb_device.c: 2174:                     p
      +                           = (BDT_ENTRY*)pBDTEntryIn[SetupPkt.EPNum];
  6694  002286  5134               	movf	52,w,b	;volatile
  6695  002288  0B0F               	andlw	15
  6696  00228A  6E2C               	movwf	??_USBStdGetStatusHandler& (0+255),c
  6697  00228C  502C               	movf	??_USBStdGetStatusHandler,w,c
  6698  00228E  0D02               	mullw	2
  6699  002290  0EAE               	movlw	low _pBDTEntryIn
  6700  002292  24F3               	addwf	prodl,w,c
  6701  002294  6ED9               	movwf	fsr2l,c
  6702  002296  0E00               	movlw	high _pBDTEntryIn
  6703  002298                     L4:
  6704  002298  20F4               	addwfc	prodh,w,c
  6705  00229A  6EDA               	movwf	fsr2h,c
  6706  00229C  CFDE F02E          	movff	postinc2,USBStdGetStatusHandler@p
  6707  0022A0  CFDD F02F          	movff	postdec2,USBStdGetStatusHandler@p+1
  6708                           
  6709                           ; BSR set to: 4
  6710                           ;usb/usb_device.c: 2177:                 if((p->STAT.UOWN == 1) && (p->STAT.BSTALL == 1)
      +                          )
  6711  0022A4  C02E  FFD9         	movff	USBStdGetStatusHandler@p,fsr2l
  6712  0022A8  C02F  FFDA         	movff	USBStdGetStatusHandler@p+1,fsr2h
  6713  0022AC  AEDF               	btfss	indf2,7,c
  6714  0022AE  D01B               	goto	i2l321
  6715                           
  6716                           ; BSR set to: 4
  6717  0022B0  C02E  FFD9         	movff	USBStdGetStatusHandler@p,fsr2l
  6718  0022B4  C02F  FFDA         	movff	USBStdGetStatusHandler@p+1,fsr2h
  6719  0022B8  A4DF               	btfss	indf2,2,c
  6720  0022BA  D015               	goto	i2l321
  6721                           
  6722                           ; BSR set to: 4
  6723                           ;usb/usb_device.c: 2178:                 {;usb/usb_device.c: 2179:                     C
      +                          trlTrfData[0]=0x01;
  6724  0022BC  0E01               	movlw	1
  6725  0022BE  6F38               	movwf	56,b	;volatile
  6726  0022C0  D012               	goto	i2l321
  6727  0022C2                     i2l4171:
  6728                           
  6729                           ; BSR set to: 4
  6730  0022C2  5130               	movf	48,w,b	;volatile
  6731  0022C4  0B1F               	andlw	31
  6732  0022C6  6E2C               	movwf	??_USBStdGetStatusHandler& (0+255),c
  6733  0022C8  6A2D               	clrf	(??_USBStdGetStatusHandler+1)& (0+255),c
  6734                           
  6735                           ; Switch on 2 bytes has been partitioned into a top level switch of size 1, and 1 sub-sw
      +                          itches
  6736                           ; Switch size 1, requested type "simple"
  6737                           ; Number of cases is 1, Range of values is 0 to 0
  6738                           ; switch strategies available:
  6739                           ; Name         Instructions Cycles
  6740                           ; simple_byte            4     3 (average)
  6741                           ;	Chosen strategy is simple_byte
  6742  0022CA  502D               	movf	??_USBStdGetStatusHandler+1,w,c
  6743  0022CC  0A00               	xorlw	0	; case 0
  6744  0022CE  A4D8               	btfss	status,2,c
  6745  0022D0  D00A               	goto	i2l321
  6746                           
  6747                           ; BSR set to: 4
  6748                           ; Switch size 1, requested type "simple"
  6749                           ; Number of cases is 3, Range of values is 0 to 2
  6750                           ; switch strategies available:
  6751                           ; Name         Instructions Cycles
  6752                           ; simple_byte           10     6 (average)
  6753                           ;	Chosen strategy is simple_byte
  6754  0022D2  502C               	movf	??_USBStdGetStatusHandler,w,c
  6755  0022D4  0A00               	xorlw	0	; case 0
  6756  0022D6  B4D8               	btfsc	status,2,c
  6757  0022D8  D7B7               	goto	i2l318
  6758  0022DA  0A01               	xorlw	1	; case 1
  6759  0022DC  B4D8               	btfsc	status,2,c
  6760  0022DE  D7BC               	goto	i2l322
  6761  0022E0  0A03               	xorlw	3	; case 2
  6762  0022E2  B4D8               	btfsc	status,2,c
  6763  0022E4  D7BC               	goto	i2l323
  6764  0022E6                     i2l321:
  6765                           
  6766                           ;usb/usb_device.c: 2185:     if(inPipes[0].info.bits.busy == 1)
  6767  0022E6  0100               	movlb	0	; () banked
  6768  0022E8  AFAB               	btfss	(_inPipes+3)& (0+255),7,b	;volatile
  6769  0022EA  0012               	return	
  6770                           
  6771                           ; BSR set to: 0
  6772                           ;usb/usb_device.c: 2186:     {;usb/usb_device.c: 2187:         inPipes[0].pSrc.bRam = (u
      +                          int8_t*)&CtrlTrfData;
  6773  0022EC  0E38               	movlw	56
  6774  0022EE  6FA8               	movwf	_inPipes& (0+255),b	;volatile
  6775  0022F0  0E04               	movlw	4
  6776  0022F2  6FA9               	movwf	(_inPipes+1)& (0+255),b	;volatile
  6777                           
  6778                           ; BSR set to: 0
  6779                           ;usb/usb_device.c: 2188:         inPipes[0].info.bits.ctrl_trf_mem = 0x01;
  6780  0022F4  81AB               	bsf	(_inPipes+3)& (0+255),0,b	;volatile
  6781                           
  6782                           ; BSR set to: 0
  6783                           ;usb/usb_device.c: 2189:         inPipes[0].wCount.v[0] = 2;
  6784  0022F6  0E02               	movlw	2
  6785  0022F8  6FAC               	movwf	(_inPipes+4)& (0+255),b	;volatile
  6786                           
  6787                           ; BSR set to: 0
  6788  0022FA  0012               	return		;funcret
  6789  0022FC                     __end_of_USBStdGetStatusHandler:
  6790                           	opt callstack 0
  6791                           
  6792 ;; *************** function _USBStdGetDscHandler *****************
  6793 ;; Defined at:
  6794 ;;		line 2047 in file "usb/usb_device.c"
  6795 ;; Parameters:    Size  Location     Type
  6796 ;;		None
  6797 ;; Auto vars:     Size  Location     Type
  6798 ;;		None
  6799 ;; Return value:  Size  Location     Type
  6800 ;;                  1    wreg      void 
  6801 ;; Registers used:
  6802 ;;		wreg, fsr1l, fsr1h, status,2, status,0, tblptrl, tblptrh, tblptru, prodl, prodh
  6803 ;; Tracked objects:
  6804 ;;		On entry : 0/0
  6805 ;;		On exit  : 0/0
  6806 ;;		Unchanged: 0/0
  6807 ;; Data sizes:     COMRAM   BANK0   BANK1   BANK2   BANK3   BANK4  BANK5h  BANK5l   BANK6   BANK7
  6808 ;;      Params:         0       0       0       0       0       0       0       0       0       0
  6809 ;;      Locals:         0       0       0       0       0       0       0       0       0       0
  6810 ;;      Temps:          2       0       0       0       0       0       0       0       0       0
  6811 ;;      Totals:         2       0       0       0       0       0       0       0       0       0
  6812 ;;Total ram usage:        2 bytes
  6813 ;; Hardware stack levels used:    1
  6814 ;; This function calls:
  6815 ;;		Nothing
  6816 ;; This function is called by:
  6817 ;;		_USBCheckStdRequest
  6818 ;; This function uses a non-reentrant model
  6819 ;;
  6820                           
  6821                           	psect	text32
  6822  0010B2                     __ptext32:
  6823                           	opt callstack 0
  6824  0010B2                     _USBStdGetDscHandler:
  6825                           	opt callstack 21
  6826                           
  6827                           ;usb/usb_device.c: 2049:     if(SetupPkt.bmRequestType == 0x80)
  6828                           
  6829                           ; BSR set to: 0
  6830                           ;incstack = 0
  6831  0010B2  0E80               	movlw	128
  6832  0010B4  0104               	movlb	4	; () banked
  6833  0010B6  1930               	xorwf	48,w,b	;volatile
  6834  0010B8  A4D8               	btfss	status,2,c
  6835  0010BA  0012               	return	
  6836                           
  6837                           ; BSR set to: 4
  6838                           ;usb/usb_device.c: 2050:     {;usb/usb_device.c: 2051:         inPipes[0].info.Val = 0x0
      +                          0 | 0x80 | 0x40;
  6839  0010BC  0EC0               	movlw	192
  6840  0010BE  0100               	movlb	0	; () banked
  6841  0010C0  6FAB               	movwf	(_inPipes+3)& (0+255),b	;volatile
  6842                           
  6843                           ;usb/usb_device.c: 2053:         switch(SetupPkt.bDescriptorType)
  6844  0010C2  D080               	goto	i2l4141
  6845  0010C4                     i2l4115:
  6846                           
  6847                           ; BSR set to: 4
  6848                           ;usb/usb_device.c: 2057:                     inPipes[0].pSrc.bRom = (const uint8_t*)&dev
      +                          ice_dsc;
  6849  0010C4  0ED8               	movlw	low _device_dsc
  6850  0010C6  0100               	movlb	0	; () banked
  6851  0010C8  6FA8               	movwf	_inPipes& (0+255),b	;volatile
  6852  0010CA  0E08               	movlw	high _device_dsc
  6853  0010CC  6FA9               	movwf	(_inPipes+1)& (0+255),b	;volatile
  6854                           
  6855                           ; BSR set to: 0
  6856                           ;usb/usb_device.c: 2061:                 inPipes[0].wCount.Val = sizeof(device_dsc);
  6857  0010CE  0E00               	movlw	0
  6858  0010D0  6FAD               	movwf	(_inPipes+5)& (0+255),b	;volatile
  6859  0010D2  0E12               	movlw	18
  6860  0010D4  6FAC               	movwf	(_inPipes+4)& (0+255),b	;volatile
  6861                           
  6862                           ;usb/usb_device.c: 2062:                 break;
  6863  0010D6  0012               	return	
  6864  0010D8                     i2l4119:
  6865                           
  6866                           ; BSR set to: 4
  6867                           ;usb/usb_device.c: 2067:                 if(SetupPkt.bDscIndex < 1)
  6868  0010D8  5132               	movf	50,w,b	;volatile
  6869  0010DA  A4D8               	btfss	status,2,c
  6870  0010DC  D040               	goto	i2l4127
  6871                           
  6872                           ; BSR set to: 4
  6873                           ;usb/usb_device.c: 2068:                 {;usb/usb_device.c: 2070:                      
      +                             inPipes[0].pSrc.bRom = *(USB_CD_Ptr+SetupPkt.bDscIndex);
  6874  0010DE  5132               	movf	50,w,b	;volatile
  6875  0010E0  0D02               	mullw	2
  6876  0010E2  0E07               	movlw	low _USB_CD_Ptr
  6877  0010E4  24F3               	addwf	prodl,w,c
  6878  0010E6  6EF6               	movwf	tblptrl,c
  6879  0010E8  0E08               	movlw	high _USB_CD_Ptr
  6880  0010EA  20F4               	addwfc	prodh,w,c
  6881  0010EC  6EF7               	movwf	tblptrh,c
  6882  0010EE                     	if	0	;There are less than 3 active tblptr bytes
  6883  0010EE                     	endif
  6884  0010EE  0009               	tblrd		*+
  6885  0010F0  CFF5 F0A8          	movff	tablat,_inPipes	;volatile
  6886  0010F4  000A               	tblrd		*-
  6887  0010F6  CFF5 F0A9          	movff	tablat,_inPipes+1	;volatile
  6888                           
  6889                           ; BSR set to: 4
  6890                           ;usb/usb_device.c: 2078:                     inPipes[0].wCount.byte.LB = *(inPipes[0].pS
      +                          rc.bRom+2);
  6891  0010FA  0E02               	movlw	2
  6892  0010FC  0100               	movlb	0	; () banked
  6893  0010FE  25A8               	addwf	_inPipes& (0+255),w,b	;volatile
  6894  001100  6E2C               	movwf	??_USBStdGetDscHandler& (0+255),c
  6895  001102  0E00               	movlw	0
  6896  001104  21A9               	addwfc	(_inPipes+1)& (0+255),w,b	;volatile
  6897  001106  6E2D               	movwf	(??_USBStdGetDscHandler+1)& (0+255),c
  6898  001108  C02C  FFF6         	movff	??_USBStdGetDscHandler,tblptrl
  6899  00110C  C02D  FFF7         	movff	??_USBStdGetDscHandler+1,tblptrh
  6900  001110  6AF8               	clrf	tblptru,c
  6901  001112  0E07               	movlw	(high __ramtop+-1)
  6902  001114  64F7               	cpfsgt	tblptrh,c
  6903  001116  D003               	bra	i2u251_47
  6904  001118  0008               	tblrd		*
  6905  00111A  50F5               	movf	tablat,w,c
  6906  00111C  D005               	bra	i2u251_40
  6907  00111E                     i2u251_47:
  6908  00111E  CFF6 FFE1          	movff	tblptrl,fsr1l
  6909  001122  CFF7 FFE2          	movff	tblptrh,fsr1h
  6910  001126  50E7               	movf	indf1,w,c
  6911  001128                     i2u251_40:
  6912  001128  0100               	movlb	0	; () banked
  6913  00112A  6FAC               	movwf	(_inPipes+4)& (0+255),b	;volatile
  6914                           
  6915                           ; BSR set to: 0
  6916                           ;usb/usb_device.c: 2079:                     inPipes[0].wCount.byte.HB = *(inPipes[0].pS
      +                          rc.bRom+3);
  6917  00112C  0E03               	movlw	3
  6918  00112E  25A8               	addwf	_inPipes& (0+255),w,b	;volatile
  6919  001130  6E2C               	movwf	??_USBStdGetDscHandler& (0+255),c
  6920  001132  0E00               	movlw	0
  6921  001134  21A9               	addwfc	(_inPipes+1)& (0+255),w,b	;volatile
  6922  001136  6E2D               	movwf	(??_USBStdGetDscHandler+1)& (0+255),c
  6923  001138  C02C  FFF6         	movff	??_USBStdGetDscHandler,tblptrl
  6924  00113C  C02D  FFF7         	movff	??_USBStdGetDscHandler+1,tblptrh
  6925  001140  6AF8               	clrf	tblptru,c
  6926  001142  0E07               	movlw	(high __ramtop+-1)
  6927  001144  64F7               	cpfsgt	tblptrh,c
  6928  001146  D003               	bra	i2u252_47
  6929  001148  0008               	tblrd		*
  6930  00114A  50F5               	movf	tablat,w,c
  6931  00114C  D005               	bra	i2u252_40
  6932  00114E                     i2u252_47:
  6933  00114E  CFF6 FFE1          	movff	tblptrl,fsr1l
  6934  001152  CFF7 FFE2          	movff	tblptrh,fsr1h
  6935  001156  50E7               	movf	indf1,w,c
  6936  001158                     i2u252_40:
  6937  001158  0100               	movlb	0	; () banked
  6938  00115A  6FAD               	movwf	(_inPipes+5)& (0+255),b	;volatile
  6939                           
  6940                           ;usb/usb_device.c: 2080:                 }
  6941  00115C  0012               	return	
  6942  00115E                     i2l4127:
  6943                           
  6944                           ; BSR set to: 4
  6945                           ;usb/usb_device.c: 2082:     {;usb/usb_device.c: 2083:      inPipes[0].info.Val = 0;
  6946  00115E  0E00               	movlw	0
  6947  001160  0100               	movlb	0	; () banked
  6948  001162  6FAB               	movwf	(_inPipes+3)& (0+255),b	;volatile
  6949  001164  0012               	return	
  6950  001166                     i2l4129:
  6951                           
  6952                           ; BSR set to: 4
  6953                           ;usb/usb_device.c: 2090:                 if(SetupPkt.bDscIndex<3)
  6954  001166  0E03               	movlw	3
  6955  001168  6132               	cpfslt	50,b	;volatile
  6956  00116A  D024               	goto	i2l4135
  6957                           
  6958                           ; BSR set to: 4
  6959                           ;usb/usb_device.c: 2091:                 {;usb/usb_device.c: 2093:                     i
      +                          nPipes[0].pSrc.bRom = *(USB_SD_Ptr+SetupPkt.bDscIndex);
  6960  00116C  5132               	movf	50,w,b	;volatile
  6961  00116E  0D02               	mullw	2
  6962  001170  0E01               	movlw	low _USB_SD_Ptr
  6963  001172  24F3               	addwf	prodl,w,c
  6964  001174  6EF6               	movwf	tblptrl,c
  6965  001176  0E08               	movlw	high _USB_SD_Ptr
  6966  001178  20F4               	addwfc	prodh,w,c
  6967  00117A  6EF7               	movwf	tblptrh,c
  6968  00117C                     	if	0	;There are less than 3 active tblptr bytes
  6969  00117C                     	endif
  6970  00117C  0009               	tblrd		*+
  6971  00117E  CFF5 F0A8          	movff	tablat,_inPipes	;volatile
  6972  001182  000A               	tblrd		*-
  6973  001184  CFF5 F0A9          	movff	tablat,_inPipes+1	;volatile
  6974                           
  6975                           ; BSR set to: 4
  6976                           ;usb/usb_device.c: 2095:                     inPipes[0].wCount.Val = *inPipes[0].pSrc.bR
      +                          om;
  6977  001188  C0A8  FFF6         	movff	_inPipes,tblptrl	;volatile
  6978  00118C  C0A9  FFF7         	movff	_inPipes+1,tblptrh	;volatile
  6979  001190  6AF8               	clrf	tblptru,c
  6980  001192  0E07               	movlw	(high __ramtop+-1)
  6981  001194  64F7               	cpfsgt	tblptrh,c
  6982  001196  D003               	bra	i2u254_47
  6983  001198  0008               	tblrd		*
  6984  00119A  50F5               	movf	tablat,w,c
  6985  00119C  D005               	bra	i2u254_40
  6986  00119E                     i2u254_47:
  6987  00119E  CFF6 FFE1          	movff	tblptrl,fsr1l
  6988  0011A2  CFF7 FFE2          	movff	tblptrh,fsr1h
  6989  0011A6  50E7               	movf	indf1,w,c
  6990  0011A8                     i2u254_40:
  6991  0011A8  6E2C               	movwf	??_USBStdGetDscHandler& (0+255),c
  6992  0011AA  502C               	movf	??_USBStdGetDscHandler,w,c
  6993  0011AC  0100               	movlb	0	; () banked
  6994  0011AE  6FAC               	movwf	(_inPipes+4)& (0+255),b	;volatile
  6995  0011B0  6BAD               	clrf	(_inPipes+5)& (0+255),b	;volatile
  6996                           
  6997                           ;usb/usb_device.c: 2096:                 }
  6998  0011B2  0012               	return	
  6999  0011B4                     i2l4135:
  7000                           
  7001                           ; BSR set to: 4
  7002                           ;usb/usb_device.c: 2107:                 {;usb/usb_device.c: 2108:                     i
      +                          nPipes[0].info.Val = 0;
  7003  0011B4  0E00               	movlw	0
  7004  0011B6  0100               	movlb	0	; () banked
  7005  0011B8  6FAB               	movwf	(_inPipes+3)& (0+255),b	;volatile
  7006  0011BA  0012               	return	
  7007  0011BC                     i2l4137:
  7008                           
  7009                           ; BSR set to: 4
  7010                           ;usb/usb_device.c: 2112:                 inPipes[0].info.Val = 0;
  7011  0011BC  0E00               	movlw	0
  7012  0011BE  0100               	movlb	0	; () banked
  7013  0011C0  6FAB               	movwf	(_inPipes+3)& (0+255),b	;volatile
  7014                           
  7015                           ;usb/usb_device.c: 2113:                 break;
  7016  0011C2  0012               	return	
  7017  0011C4                     i2l4141:
  7018                           
  7019                           ; BSR set to: 0
  7020  0011C4  0104               	movlb	4	; () banked
  7021  0011C6  5133               	movf	51,w,b	;volatile
  7022  0011C8  6E2C               	movwf	??_USBStdGetDscHandler& (0+255),c
  7023  0011CA  6A2D               	clrf	(??_USBStdGetDscHandler+1)& (0+255),c
  7024                           
  7025                           ; Switch on 2 bytes has been partitioned into a top level switch of size 1, and 1 sub-sw
      +                          itches
  7026                           ; Switch size 1, requested type "simple"
  7027                           ; Number of cases is 1, Range of values is 0 to 0
  7028                           ; switch strategies available:
  7029                           ; Name         Instructions Cycles
  7030                           ; simple_byte            4     3 (average)
  7031                           ;	Chosen strategy is simple_byte
  7032  0011CC  502D               	movf	??_USBStdGetDscHandler+1,w,c
  7033  0011CE  0A00               	xorlw	0	; case 0
  7034  0011D0  A4D8               	btfss	status,2,c
  7035  0011D2  D7F4               	goto	i2l4137
  7036                           
  7037                           ; BSR set to: 4
  7038                           ; Switch size 1, requested type "simple"
  7039                           ; Number of cases is 3, Range of values is 1 to 3
  7040                           ; switch strategies available:
  7041                           ; Name         Instructions Cycles
  7042                           ; simple_byte           10     6 (average)
  7043                           ;	Chosen strategy is simple_byte
  7044  0011D4  502C               	movf	??_USBStdGetDscHandler,w,c
  7045  0011D6  0A01               	xorlw	1	; case 1
  7046  0011D8  B4D8               	btfsc	status,2,c
  7047  0011DA  D774               	goto	i2l4115
  7048  0011DC  0A03               	xorlw	3	; case 2
  7049  0011DE  B4D8               	btfsc	status,2,c
  7050  0011E0  D77B               	goto	i2l4119
  7051  0011E2  0A01               	xorlw	1	; case 3
  7052  0011E4  B4D8               	btfsc	status,2,c
  7053  0011E6  D7BF               	goto	i2l4129
  7054  0011E8  D7E9               	goto	i2l4137
  7055  0011EA                     __end_of_USBStdGetDscHandler:
  7056                           	opt callstack 0
  7057                           
  7058 ;; *************** function _USBStdFeatureReqHandler *****************
  7059 ;; Defined at:
  7060 ;;		line 2761 in file "usb/usb_device.c"
  7061 ;; Parameters:    Size  Location     Type
  7062 ;;		None
  7063 ;; Auto vars:     Size  Location     Type
  7064 ;;  p               2   25[COMRAM] PTR struct __BDT
  7065 ;;		 -> RAM(2047), NULL(0), BDT(48), 
  7066 ;;  pUEP            2   22[COMRAM] PTR unsigned char 
  7067 ;;		 -> UEP0(1), 
  7068 ;;  current_ep_d    1   24[COMRAM] struct .
  7069 ;; Return value:  Size  Location     Type
  7070 ;;                  1    wreg      void 
  7071 ;; Registers used:
  7072 ;;		wreg, fsr2l, fsr2h, status,2, status,0, prodl, prodh, cstack
  7073 ;; Tracked objects:
  7074 ;;		On entry : 0/0
  7075 ;;		On exit  : 0/0
  7076 ;;		Unchanged: 0/0
  7077 ;; Data sizes:     COMRAM   BANK0   BANK1   BANK2   BANK3   BANK4  BANK5h  BANK5l   BANK6   BANK7
  7078 ;;      Params:         0       0       0       0       0       0       0       0       0       0
  7079 ;;      Locals:         5       0       0       0       0       0       0       0       0       0
  7080 ;;      Temps:          2       0       0       0       0       0       0       0       0       0
  7081 ;;      Totals:         7       0       0       0       0       0       0       0       0       0
  7082 ;;Total ram usage:        7 bytes
  7083 ;; Hardware stack levels used:    1
  7084 ;; Hardware stack levels required when called:    4
  7085 ;; This function calls:
  7086 ;;		_USER_USB_CALLBACK_EVENT_HANDLER
  7087 ;; This function is called by:
  7088 ;;		_USBCheckStdRequest
  7089 ;; This function uses a non-reentrant model
  7090 ;;
  7091                           
  7092                           	psect	text33
  7093  000CAC                     __ptext33:
  7094                           	opt callstack 0
  7095  000CAC                     _USBStdFeatureReqHandler:
  7096                           	opt callstack 17
  7097                           
  7098                           ;usb/usb_device.c: 2763:     BDT_ENTRY *p;;usb/usb_device.c: 2764:     EP_STATUS current
      +                          _ep_data;;usb/usb_device.c: 2768:         unsigned char* pUEP;;usb/usb_device.c: 2772:  
      +                             if((SetupPkt.bFeature == 1)&&
  7099                           
  7100                           ;incstack = 0
  7101  000CAC  0104               	movlb	4	; () banked
  7102  000CAE  0532               	decf	50,w,b	;volatile
  7103  000CB0  A4D8               	btfss	status,2,c
  7104  000CB2  D010               	goto	i2l396
  7105                           
  7106                           ; BSR set to: 4
  7107  000CB4  5130               	movf	48,w,b	;volatile
  7108  000CB6  0B1F               	andlw	31
  7109  000CB8  0900               	iorlw	0
  7110  000CBA  A4D8               	btfss	status,2,c
  7111  000CBC  D00B               	goto	i2l396
  7112                           
  7113                           ; BSR set to: 4
  7114                           ;usb/usb_device.c: 2774:     {;usb/usb_device.c: 2775:         inPipes[0].info.bits.busy
      +                           = 1;
  7115  000CBE  0100               	movlb	0	; () banked
  7116  000CC0  8FAB               	bsf	(_inPipes+3)& (0+255),7,b	;volatile
  7117                           
  7118                           ; BSR set to: 0
  7119                           ;usb/usb_device.c: 2776:         if(SetupPkt.bRequest == 3)
  7120  000CC2  0E03               	movlw	3
  7121  000CC4  0104               	movlb	4	; () banked
  7122  000CC6  1931               	xorwf	49,w,b	;volatile
  7123  000CC8  A4D8               	btfss	status,2,c
  7124  000CCA  D002               	goto	i2l4193
  7125                           
  7126                           ; BSR set to: 4
  7127                           ;usb/usb_device.c: 2777:             RemoteWakeup = 1;
  7128  000CCC  0E01               	movlw	1
  7129  000CCE  D001               	goto	L5
  7130  000CD0                     i2l4193:
  7131                           
  7132                           ; BSR set to: 4
  7133                           ;usb/usb_device.c: 2779:             RemoteWakeup = 0;
  7134  000CD0  0E00               	movlw	0
  7135  000CD2                     L5:
  7136  000CD2  6E22               	movwf	_RemoteWakeup,c	;volatile
  7137  000CD4                     i2l396:
  7138                           
  7139                           ; BSR set to: 4
  7140                           ;usb/usb_device.c: 2783:     if((SetupPkt.bFeature == 0)&&
  7141  000CD4  5132               	movf	50,w,b	;volatile
  7142  000CD6  A4D8               	btfss	status,2,c
  7143  000CD8  0012               	return	
  7144                           
  7145                           ; BSR set to: 4
  7146  000CDA  5130               	movf	48,w,b	;volatile
  7147  000CDC  0B1F               	andlw	31
  7148  000CDE  0A02               	xorlw	2
  7149  000CE0  A4D8               	btfss	status,2,c
  7150  000CE2  0012               	return	
  7151                           
  7152                           ; BSR set to: 4
  7153  000CE4  5134               	movf	52,w,b	;volatile
  7154  000CE6  0B0F               	andlw	15
  7155  000CE8  0900               	iorlw	0
  7156  000CEA  B4D8               	btfsc	status,2,c
  7157  000CEC  0012               	return	
  7158                           
  7159                           ; BSR set to: 4
  7160  000CEE  5134               	movf	52,w,b	;volatile
  7161  000CF0  0B0F               	andlw	15
  7162  000CF2  6E40               	movwf	??_USBStdFeatureReqHandler& (0+255),c
  7163  000CF4  0E03               	movlw	3
  7164  000CF6  6040               	cpfslt	??_USBStdFeatureReqHandler,c
  7165  000CF8  0012               	return	
  7166                           
  7167                           ; BSR set to: 4
  7168  000CFA  0E20               	movlw	32
  7169  000CFC  1825               	xorwf	_USBDeviceState,w,c	;volatile
  7170  000CFE  A4D8               	btfss	status,2,c
  7171  000D00  0012               	return	
  7172                           
  7173                           ; BSR set to: 4
  7174                           ;usb/usb_device.c: 2787:     {;usb/usb_device.c: 2790:   inPipes[0].info.bits.busy = 1;
  7175  000D02  0100               	movlb	0	; () banked
  7176  000D04  8FAB               	bsf	(_inPipes+3)& (0+255),7,b	;volatile
  7177                           
  7178                           ;usb/usb_device.c: 2793:         if(SetupPkt.EPDir == 0)
  7179  000D06  0104               	movlb	4	; () banked
  7180  000D08  BF34               	btfsc	52,7,b	;volatile
  7181  000D0A  D018               	goto	i2l4209
  7182                           
  7183                           ; BSR set to: 4
  7184                           ;usb/usb_device.c: 2794:         {;usb/usb_device.c: 2795:             p = (BDT_ENTRY*)p
      +                          BDTEntryOut[SetupPkt.EPNum];
  7185  000D0C  5134               	movf	52,w,b	;volatile
  7186  000D0E  0B0F               	andlw	15
  7187  000D10  6E40               	movwf	??_USBStdFeatureReqHandler& (0+255),c
  7188  000D12  5040               	movf	??_USBStdFeatureReqHandler,w,c
  7189  000D14  0D02               	mullw	2
  7190  000D16  0EB4               	movlw	low _pBDTEntryOut
  7191  000D18  24F3               	addwf	prodl,w,c
  7192  000D1A  6ED9               	movwf	fsr2l,c
  7193  000D1C  0E00               	movlw	high _pBDTEntryOut
  7194  000D1E  20F4               	addwfc	prodh,w,c
  7195  000D20  6EDA               	movwf	fsr2h,c
  7196  000D22  CFDE F045          	movff	postinc2,USBStdFeatureReqHandler@p
  7197  000D26  CFDD F046          	movff	postdec2,USBStdFeatureReqHandler@p+1
  7198                           
  7199                           ; BSR set to: 4
  7200                           ;usb/usb_device.c: 2796:             current_ep_data.Val = ep_data_out[SetupPkt.EPNum].V
      +                          al;
  7201  000D2A  5134               	movf	52,w,b	;volatile
  7202  000D2C  0B0F               	andlw	15
  7203  000D2E  6E40               	movwf	??_USBStdFeatureReqHandler& (0+255),c
  7204  000D30  6A41               	clrf	(??_USBStdFeatureReqHandler+1)& (0+255),c
  7205  000D32  0EC7               	movlw	low _ep_data_out
  7206  000D34  2440               	addwf	??_USBStdFeatureReqHandler,w,c
  7207  000D36  6ED9               	movwf	fsr2l,c
  7208  000D38  0E00               	movlw	high _ep_data_out
  7209  000D3A  D017               	goto	L6
  7210  000D3C                     i2l4209:
  7211                           
  7212                           ; BSR set to: 4
  7213                           ;usb/usb_device.c: 2799:         {;usb/usb_device.c: 2800:             p = (BDT_ENTRY*)p
      +                          BDTEntryIn[SetupPkt.EPNum];
  7214  000D3C  5134               	movf	52,w,b	;volatile
  7215  000D3E  0B0F               	andlw	15
  7216  000D40  6E40               	movwf	??_USBStdFeatureReqHandler& (0+255),c
  7217  000D42  5040               	movf	??_USBStdFeatureReqHandler,w,c
  7218  000D44  0D02               	mullw	2
  7219  000D46  0EAE               	movlw	low _pBDTEntryIn
  7220  000D48  24F3               	addwf	prodl,w,c
  7221  000D4A  6ED9               	movwf	fsr2l,c
  7222  000D4C  0E00               	movlw	high _pBDTEntryIn
  7223  000D4E  20F4               	addwfc	prodh,w,c
  7224  000D50  6EDA               	movwf	fsr2h,c
  7225  000D52  CFDE F045          	movff	postinc2,USBStdFeatureReqHandler@p
  7226  000D56  CFDD F046          	movff	postdec2,USBStdFeatureReqHandler@p+1
  7227                           
  7228                           ; BSR set to: 4
  7229                           ;usb/usb_device.c: 2801:             current_ep_data.Val = ep_data_in[SetupPkt.EPNum].Va
      +                          l;
  7230  000D5A  5134               	movf	52,w,b	;volatile
  7231  000D5C  0B0F               	andlw	15
  7232  000D5E  6E40               	movwf	??_USBStdFeatureReqHandler& (0+255),c
  7233  000D60  6A41               	clrf	(??_USBStdFeatureReqHandler+1)& (0+255),c
  7234  000D62  0ECA               	movlw	low _ep_data_in
  7235  000D64  2440               	addwf	??_USBStdFeatureReqHandler,w,c
  7236  000D66  6ED9               	movwf	fsr2l,c
  7237  000D68  0E00               	movlw	high _ep_data_in
  7238  000D6A                     L6:
  7239  000D6A  2041               	addwfc	??_USBStdFeatureReqHandler+1,w,c
  7240  000D6C  6EDA               	movwf	fsr2h,c
  7241  000D6E  50DF               	movf	indf2,w,c
  7242  000D70  6E44               	movwf	USBStdFeatureReqHandler@current_ep_data,c
  7243                           
  7244                           ; BSR set to: 4
  7245                           ;usb/usb_device.c: 2808:             if(current_ep_data.bits.ping_pong_state == 0)
  7246  000D72  B044               	btfsc	USBStdFeatureReqHandler@current_ep_data,0,c
  7247  000D74  D006               	goto	i2l4217
  7248                           
  7249                           ; BSR set to: 4
  7250                           ;usb/usb_device.c: 2809:             {;usb/usb_device.c: 2810:                 p = (BDT_
      +                          ENTRY*)(((uint16_t)p) & (~0x0004));
  7251  000D76  0EFB               	movlw	251
  7252  000D78  1445               	andwf	USBStdFeatureReqHandler@p,w,c
  7253  000D7A  6E45               	movwf	USBStdFeatureReqHandler@p,c
  7254  000D7C  0EFF               	movlw	255
  7255  000D7E  1446               	andwf	USBStdFeatureReqHandler@p+1,w,c
  7256  000D80  D004               	goto	L7
  7257  000D82                     i2l4217:
  7258                           
  7259                           ; BSR set to: 4
  7260                           ;usb/usb_device.c: 2813:             {;usb/usb_device.c: 2814:                 p = (BDT_
      +                          ENTRY*)(((uint16_t)p) | 0x0004);
  7261  000D82  0E04               	movlw	4
  7262  000D84  1045               	iorwf	USBStdFeatureReqHandler@p,w,c
  7263  000D86  6E45               	movwf	USBStdFeatureReqHandler@p,c
  7264  000D88  5046               	movf	USBStdFeatureReqHandler@p+1,w,c
  7265  000D8A                     L7:
  7266  000D8A  6E46               	movwf	USBStdFeatureReqHandler@p+1,c
  7267                           
  7268                           ; BSR set to: 4
  7269                           ;usb/usb_device.c: 2820:         if(SetupPkt.EPDir == 0)
  7270  000D8C  BF34               	btfsc	52,7,b	;volatile
  7271  000D8E  D00A               	goto	i2l4223
  7272                           
  7273                           ; BSR set to: 4
  7274                           ;usb/usb_device.c: 2821:         {;usb/usb_device.c: 2822:             pBDTEntryOut[Setu
      +                          pPkt.EPNum] = (volatile BDT_ENTRY *)p;
  7275  000D90  5134               	movf	52,w,b	;volatile
  7276  000D92  0B0F               	andlw	15
  7277  000D94  6E40               	movwf	??_USBStdFeatureReqHandler& (0+255),c
  7278  000D96  5040               	movf	??_USBStdFeatureReqHandler,w,c
  7279  000D98  0D02               	mullw	2
  7280  000D9A  0EB4               	movlw	low _pBDTEntryOut
  7281  000D9C  24F3               	addwf	prodl,w,c
  7282  000D9E  6ED9               	movwf	fsr2l,c
  7283  000DA0  0E00               	movlw	high _pBDTEntryOut
  7284  000DA2  D009               	goto	L8
  7285  000DA4                     i2l4223:
  7286                           
  7287                           ; BSR set to: 4
  7288                           ;usb/usb_device.c: 2825:         {;usb/usb_device.c: 2826:             pBDTEntryIn[Setup
      +                          Pkt.EPNum] = (volatile BDT_ENTRY *)p;
  7289  000DA4  5134               	movf	52,w,b	;volatile
  7290  000DA6  0B0F               	andlw	15
  7291  000DA8  6E40               	movwf	??_USBStdFeatureReqHandler& (0+255),c
  7292  000DAA  5040               	movf	??_USBStdFeatureReqHandler,w,c
  7293  000DAC  0D02               	mullw	2
  7294  000DAE  0EAE               	movlw	low _pBDTEntryIn
  7295  000DB0  24F3               	addwf	prodl,w,c
  7296  000DB2  6ED9               	movwf	fsr2l,c
  7297  000DB4  0E00               	movlw	high _pBDTEntryIn
  7298  000DB6                     L8:
  7299  000DB6  20F4               	addwfc	prodh,w,c
  7300  000DB8  6EDA               	movwf	fsr2h,c
  7301  000DBA  C045  FFDE         	movff	USBStdFeatureReqHandler@p,postinc2
  7302  000DBE  C046  FFDD         	movff	USBStdFeatureReqHandler@p+1,postdec2
  7303                           
  7304                           ; BSR set to: 4
  7305                           ;usb/usb_device.c: 2830:         if(SetupPkt.bRequest == 3)
  7306  000DC2  0E03               	movlw	3
  7307  000DC4  1931               	xorwf	49,w,b	;volatile
  7308  000DC6  A4D8               	btfss	status,2,c
  7309  000DC8  D02A               	goto	i2l4235
  7310                           
  7311                           ; BSR set to: 4
  7312                           ;usb/usb_device.c: 2831:         {;usb/usb_device.c: 2832:             if(p->STAT.UOWN =
      +                          = 1)
  7313  000DCA  C045  FFD9         	movff	USBStdFeatureReqHandler@p,fsr2l
  7314  000DCE  C046  FFDA         	movff	USBStdFeatureReqHandler@p+1,fsr2h
  7315  000DD2  AEDF               	btfss	indf2,7,c
  7316  000DD4  D017               	goto	i2l407
  7317                           
  7318                           ; BSR set to: 4
  7319                           ;usb/usb_device.c: 2833:             {;usb/usb_device.c: 2836:                 if(SetupP
      +                          kt.EPDir == 0)
  7320  000DD6  BF34               	btfsc	52,7,b	;volatile
  7321  000DD8  D009               	goto	i2l4233
  7322                           
  7323                           ; BSR set to: 4
  7324                           ;usb/usb_device.c: 2837:                 {;usb/usb_device.c: 2838:                     e
      +                          p_data_out[SetupPkt.EPNum].bits.transfer_terminated = 1;
  7325  000DDA  5134               	movf	52,w,b	;volatile
  7326  000DDC  0B0F               	andlw	15
  7327  000DDE  6E40               	movwf	??_USBStdFeatureReqHandler& (0+255),c
  7328  000DE0  6A41               	clrf	(??_USBStdFeatureReqHandler+1)& (0+255),c
  7329  000DE2  0EC7               	movlw	low _ep_data_out
  7330  000DE4  2440               	addwf	??_USBStdFeatureReqHandler,w,c
  7331  000DE6  6ED9               	movwf	fsr2l,c
  7332  000DE8  0E00               	movlw	high _ep_data_out
  7333  000DEA  D008               	goto	L9
  7334  000DEC                     i2l4233:
  7335                           
  7336                           ; BSR set to: 4
  7337                           ;usb/usb_device.c: 2841:                 {;usb/usb_device.c: 2842:                     e
      +                          p_data_in[SetupPkt.EPNum].bits.transfer_terminated = 1;
  7338  000DEC  5134               	movf	52,w,b	;volatile
  7339  000DEE  0B0F               	andlw	15
  7340  000DF0  6E40               	movwf	??_USBStdFeatureReqHandler& (0+255),c
  7341  000DF2  6A41               	clrf	(??_USBStdFeatureReqHandler+1)& (0+255),c
  7342  000DF4  0ECA               	movlw	low _ep_data_in
  7343  000DF6  2440               	addwf	??_USBStdFeatureReqHandler,w,c
  7344  000DF8  6ED9               	movwf	fsr2l,c
  7345  000DFA  0E00               	movlw	high _ep_data_in
  7346  000DFC                     L9:
  7347  000DFC  2041               	addwfc	??_USBStdFeatureReqHandler+1,w,c
  7348  000DFE  6EDA               	movwf	fsr2h,c
  7349  000E00  0100               	movlb	0	; () banked
  7350  000E02  82DF               	bsf	indf2,1,c
  7351  000E04                     i2l407:
  7352                           
  7353                           ;usb/usb_device.c: 2847:             p->STAT.Val |= 0x04;
  7354  000E04  C045  FFD9         	movff	USBStdFeatureReqHandler@p,fsr2l
  7355  000E08  C046  FFDA         	movff	USBStdFeatureReqHandler@p+1,fsr2h
  7356  000E0C  0E00               	movlw	0
  7357  000E0E  84DB               	bsf	plusw2,2,c
  7358                           
  7359                           ;usb/usb_device.c: 2848:             p->STAT.Val |= 0x80;
  7360  000E10  C045  FFD9         	movff	USBStdFeatureReqHandler@p,fsr2l
  7361  000E14  C046  FFDA         	movff	USBStdFeatureReqHandler@p+1,fsr2h
  7362  000E18  0E00               	movlw	0
  7363  000E1A  8EDB               	bsf	plusw2,7,c
  7364                           
  7365                           ;usb/usb_device.c: 2849:         }
  7366  000E1C  0012               	return	
  7367  000E1E                     i2l4235:
  7368                           
  7369                           ; BSR set to: 4
  7370                           ;usb/usb_device.c: 2851:         {;usb/usb_device.c: 2855:                 p = (BDT_ENTR
      +                          Y*)(((uint16_t)p) ^ 0x0004);
  7371  000E1E  0E04               	movlw	4
  7372  000E20  1845               	xorwf	USBStdFeatureReqHandler@p,w,c
  7373  000E22  6E45               	movwf	USBStdFeatureReqHandler@p,c
  7374  000E24  5046               	movf	USBStdFeatureReqHandler@p+1,w,c
  7375  000E26  6E46               	movwf	USBStdFeatureReqHandler@p+1,c
  7376                           
  7377                           ; BSR set to: 4
  7378                           ;usb/usb_device.c: 2857:                 if(p->STAT.UOWN == 1)
  7379  000E28  C045  FFD9         	movff	USBStdFeatureReqHandler@p,fsr2l
  7380  000E2C  C046  FFDA         	movff	USBStdFeatureReqHandler@p+1,fsr2h
  7381  000E30  AEDF               	btfss	indf2,7,c
  7382  000E32  D01B               	goto	i2l4245
  7383                           
  7384                           ; BSR set to: 4
  7385                           ;usb/usb_device.c: 2858:                 {;usb/usb_device.c: 2861:                     p
      +                          ->STAT.Val &= (~0x80);
  7386  000E34  C045  FFD9         	movff	USBStdFeatureReqHandler@p,fsr2l
  7387  000E38  C046  FFDA         	movff	USBStdFeatureReqHandler@p+1,fsr2h
  7388  000E3C  0E7F               	movlw	127
  7389  000E3E  16DF               	andwf	indf2,f,c
  7390                           
  7391                           ; BSR set to: 4
  7392                           ;usb/usb_device.c: 2862:                     p->STAT.Val |= 0x40;
  7393  000E40  C045  FFD9         	movff	USBStdFeatureReqHandler@p,fsr2l
  7394  000E44  C046  FFDA         	movff	USBStdFeatureReqHandler@p+1,fsr2h
  7395  000E48  0E00               	movlw	0
  7396  000E4A  8CDB               	bsf	plusw2,6,c
  7397                           
  7398                           ; BSR set to: 4
  7399                           ;usb/usb_device.c: 2863:                     USER_USB_CALLBACK_EVENT_HANDLER((USB_EVENT)
      +                          EVENT_TRANSFER_TERMINATED,p,sizeof(p));
  7400  000E4C  0E00               	movlw	0
  7401  000E4E  6E39               	movwf	USER_USB_CALLBACK_EVENT_HANDLER@event+1,c
  7402  000E50  0E05               	movlw	5
  7403  000E52  6E38               	movwf	USER_USB_CALLBACK_EVENT_HANDLER@event,c
  7404  000E54  C045  F03A         	movff	USBStdFeatureReqHandler@p,USER_USB_CALLBACK_EVENT_HANDLER@pdata
  7405  000E58  C046  F03B         	movff	USBStdFeatureReqHandler@p+1,USER_USB_CALLBACK_EVENT_HANDLER@pdata+1
  7406  000E5C  0E00               	movlw	0
  7407  000E5E  6E3D               	movwf	USER_USB_CALLBACK_EVENT_HANDLER@size+1,c
  7408  000E60  0E02               	movlw	2
  7409  000E62  6E3C               	movwf	USER_USB_CALLBACK_EVENT_HANDLER@size,c
  7410  000E64  ECCD  F011         	call	_USER_USB_CALLBACK_EVENT_HANDLER	;wreg free
  7411                           
  7412                           ;usb/usb_device.c: 2864:                 }
  7413  000E68  D006               	goto	i2l4247
  7414  000E6A                     i2l4245:
  7415                           
  7416                           ; BSR set to: 4
  7417                           ;usb/usb_device.c: 2866:                 {;usb/usb_device.c: 2868:      p->STAT.Val |= 0
      +                          x40;
  7418  000E6A  C045  FFD9         	movff	USBStdFeatureReqHandler@p,fsr2l
  7419  000E6E  C046  FFDA         	movff	USBStdFeatureReqHandler@p+1,fsr2h
  7420  000E72  0E00               	movlw	0
  7421  000E74  8CDB               	bsf	plusw2,6,c
  7422  000E76                     i2l4247:
  7423                           
  7424                           ;usb/usb_device.c: 2873:                 p = (BDT_ENTRY*)(((uint16_t)p) ^ 0x0004);
  7425  000E76  0E04               	movlw	4
  7426  000E78  1845               	xorwf	USBStdFeatureReqHandler@p,w,c
  7427  000E7A  6E45               	movwf	USBStdFeatureReqHandler@p,c
  7428  000E7C  5046               	movf	USBStdFeatureReqHandler@p+1,w,c
  7429  000E7E  6E46               	movwf	USBStdFeatureReqHandler@p+1,c
  7430                           
  7431                           ;usb/usb_device.c: 2879:                 if((current_ep_data.bits.transfer_terminated !=
      +                           0) || (p->STAT.UOWN == 1))
  7432  000E80  B244               	btfsc	USBStdFeatureReqHandler@current_ep_data,1,c
  7433  000E82  D006               	goto	i2u277_40
  7434  000E84  C045  FFD9         	movff	USBStdFeatureReqHandler@p,fsr2l
  7435  000E88  C046  FFDA         	movff	USBStdFeatureReqHandler@p+1,fsr2h
  7436  000E8C  AEDF               	btfss	indf2,7,c
  7437  000E8E  D02D               	goto	i2l4261
  7438  000E90                     i2u277_40:
  7439                           
  7440                           ;usb/usb_device.c: 2880:                 {;usb/usb_device.c: 2881:                     i
      +                          f(SetupPkt.EPDir == 0)
  7441  000E90  0104               	movlb	4	; () banked
  7442  000E92  BF34               	btfsc	52,7,b	;volatile
  7443  000E94  D009               	goto	i2l4255
  7444                           
  7445                           ; BSR set to: 4
  7446                           ;usb/usb_device.c: 2882:                     {;usb/usb_device.c: 2883:                  
      +                                 ep_data_out[SetupPkt.EPNum].bits.transfer_terminated = 0;
  7447  000E96  5134               	movf	52,w,b	;volatile
  7448  000E98  0B0F               	andlw	15
  7449  000E9A  6E40               	movwf	??_USBStdFeatureReqHandler& (0+255),c
  7450  000E9C  6A41               	clrf	(??_USBStdFeatureReqHandler+1)& (0+255),c
  7451  000E9E  0EC7               	movlw	low _ep_data_out
  7452  000EA0  2440               	addwf	??_USBStdFeatureReqHandler,w,c
  7453  000EA2  6ED9               	movwf	fsr2l,c
  7454  000EA4  0E00               	movlw	high _ep_data_out
  7455  000EA6  D008               	goto	L10
  7456  000EA8                     i2l4255:
  7457                           
  7458                           ; BSR set to: 4
  7459                           ;usb/usb_device.c: 2886:                     {;usb/usb_device.c: 2887:                  
      +                                 ep_data_in[SetupPkt.EPNum].bits.transfer_terminated = 0;
  7460  000EA8  5134               	movf	52,w,b	;volatile
  7461  000EAA  0B0F               	andlw	15
  7462  000EAC  6E40               	movwf	??_USBStdFeatureReqHandler& (0+255),c
  7463  000EAE  6A41               	clrf	(??_USBStdFeatureReqHandler+1)& (0+255),c
  7464  000EB0  0ECA               	movlw	low _ep_data_in
  7465  000EB2  2440               	addwf	??_USBStdFeatureReqHandler,w,c
  7466  000EB4  6ED9               	movwf	fsr2l,c
  7467  000EB6  0E00               	movlw	high _ep_data_in
  7468  000EB8                     L10:
  7469  000EB8  2041               	addwfc	??_USBStdFeatureReqHandler+1,w,c
  7470  000EBA  6EDA               	movwf	fsr2h,c
  7471  000EBC  0100               	movlb	0	; () banked
  7472  000EBE  92DF               	bcf	indf2,1,c
  7473                           
  7474                           ; BSR set to: 0
  7475                           ;usb/usb_device.c: 2890:                     p->STAT.Val &= ~(0x80 | 0x40 | 0x04);
  7476  000EC0  C045  FFD9         	movff	USBStdFeatureReqHandler@p,fsr2l
  7477  000EC4  C046  FFDA         	movff	USBStdFeatureReqHandler@p+1,fsr2h
  7478  000EC8  0E3B               	movlw	59
  7479  000ECA  16DF               	andwf	indf2,f,c
  7480                           
  7481                           ; BSR set to: 0
  7482                           ;usb/usb_device.c: 2893:                     USER_USB_CALLBACK_EVENT_HANDLER((USB_EVENT)
      +                          EVENT_TRANSFER_TERMINATED,p,sizeof(p));
  7483  000ECC  0E00               	movlw	0
  7484  000ECE  6E39               	movwf	USER_USB_CALLBACK_EVENT_HANDLER@event+1,c
  7485  000ED0  0E05               	movlw	5
  7486  000ED2  6E38               	movwf	USER_USB_CALLBACK_EVENT_HANDLER@event,c
  7487  000ED4  C045  F03A         	movff	USBStdFeatureReqHandler@p,USER_USB_CALLBACK_EVENT_HANDLER@pdata
  7488  000ED8  C046  F03B         	movff	USBStdFeatureReqHandler@p+1,USER_USB_CALLBACK_EVENT_HANDLER@pdata+1
  7489  000EDC  0E00               	movlw	0
  7490  000EDE  6E3D               	movwf	USER_USB_CALLBACK_EVENT_HANDLER@size+1,c
  7491  000EE0  0E02               	movlw	2
  7492  000EE2  6E3C               	movwf	USER_USB_CALLBACK_EVENT_HANDLER@size,c
  7493  000EE4  ECCD  F011         	call	_USER_USB_CALLBACK_EVENT_HANDLER	;wreg free
  7494                           
  7495                           ;usb/usb_device.c: 2894:                 }
  7496  000EE8  D006               	goto	i2l4263
  7497  000EEA                     i2l4261:
  7498                           
  7499                           ;usb/usb_device.c: 2896:                 {;usb/usb_device.c: 2898:                     p
      +                          ->STAT.Val &= ~(0x80 | 0x40 | 0x04);
  7500  000EEA  C045  FFD9         	movff	USBStdFeatureReqHandler@p,fsr2l
  7501  000EEE  C046  FFDA         	movff	USBStdFeatureReqHandler@p+1,fsr2h
  7502  000EF2  0E3B               	movlw	59
  7503  000EF4  16DF               	andwf	indf2,f,c
  7504  000EF6                     i2l4263:
  7505                           
  7506                           ;usb/usb_device.c: 2946:                 pUEP = (unsigned char*)(&UEP0+SetupPkt.EPNum);
  7507  000EF6  0104               	movlb	4	; () banked
  7508  000EF8  5134               	movf	52,w,b	;volatile
  7509  000EFA  0B0F               	andlw	15
  7510  000EFC  6E40               	movwf	??_USBStdFeatureReqHandler& (0+255),c
  7511  000EFE  6A41               	clrf	(??_USBStdFeatureReqHandler+1)& (0+255),c
  7512  000F00  0E6A               	movlw	106
  7513  000F02  2440               	addwf	??_USBStdFeatureReqHandler,w,c
  7514  000F04  6E42               	movwf	USBStdFeatureReqHandler@pUEP,c
  7515  000F06  0E0F               	movlw	15
  7516  000F08  2041               	addwfc	??_USBStdFeatureReqHandler+1,w,c
  7517  000F0A  6E43               	movwf	USBStdFeatureReqHandler@pUEP+1,c
  7518                           
  7519                           ; BSR set to: 4
  7520                           ;usb/usb_device.c: 2950:             *pUEP &= ~0x0001;
  7521  000F0C  C042  FFD9         	movff	USBStdFeatureReqHandler@pUEP,fsr2l
  7522  000F10  C043  FFDA         	movff	USBStdFeatureReqHandler@pUEP+1,fsr2h
  7523  000F14  0EFE               	movlw	254
  7524  000F16  16DF               	andwf	indf2,f,c
  7525  000F18  0012               	return		;funcret
  7526  000F1A                     __end_of_USBStdFeatureReqHandler:
  7527                           	opt callstack 0
  7528                           
  7529 ;; *************** function _USER_USB_CALLBACK_EVENT_HANDLER *****************
  7530 ;; Defined at:
  7531 ;;		line 67 in file "usb/usb_events.c"
  7532 ;; Parameters:    Size  Location     Type
  7533 ;;  event           2   12[COMRAM] enum E5076
  7534 ;;  pdata           2   14[COMRAM] PTR void 
  7535 ;;		 -> RAM(2047), USTATcopy(1), USBActiveConfiguration(1), NULL(0), 
  7536 ;;		 -> BDT(48), 
  7537 ;;  size            2   16[COMRAM] unsigned short 
  7538 ;; Auto vars:     Size  Location     Type
  7539 ;;		None
  7540 ;; Return value:  Size  Location     Type
  7541 ;;                  1    wreg      _Bool 
  7542 ;; Registers used:
  7543 ;;		wreg, fsr2l, fsr2h, status,2, status,0, prodl, prodh, cstack
  7544 ;; Tracked objects:
  7545 ;;		On entry : 0/0
  7546 ;;		On exit  : 0/0
  7547 ;;		Unchanged: 0/0
  7548 ;; Data sizes:     COMRAM   BANK0   BANK1   BANK2   BANK3   BANK4  BANK5h  BANK5l   BANK6   BANK7
  7549 ;;      Params:         6       0       0       0       0       0       0       0       0       0
  7550 ;;      Locals:         0       0       0       0       0       0       0       0       0       0
  7551 ;;      Temps:          2       0       0       0       0       0       0       0       0       0
  7552 ;;      Totals:         8       0       0       0       0       0       0       0       0       0
  7553 ;;Total ram usage:        8 bytes
  7554 ;; Hardware stack levels used:    1
  7555 ;; Hardware stack levels required when called:    3
  7556 ;; This function calls:
  7557 ;;		_APP_KeyboardInit
  7558 ;;		_APP_LEDUpdateUSBStatus
  7559 ;;		_USBCheckHIDRequest
  7560 ;;		i2_SYSTEM_Initialize
  7561 ;; This function is called by:
  7562 ;;		_USBDeviceTasks
  7563 ;;		_USBStdSetCfgHandler
  7564 ;;		_USBSuspend
  7565 ;;		_USBWakeFromSuspend
  7566 ;;		_USBCtrlTrfSetupHandler
  7567 ;;		_USBCheckStdRequest
  7568 ;;		_USBStdFeatureReqHandler
  7569 ;; This function uses a non-reentrant model
  7570 ;;
  7571                           
  7572                           	psect	text34
  7573  00239A                     __ptext34:
  7574                           	opt callstack 0
  7575  00239A                     _USER_USB_CALLBACK_EVENT_HANDLER:
  7576                           	opt callstack 21
  7577                           
  7578                           ;usb/usb_events.c: 67: _Bool USER_USB_CALLBACK_EVENT_HANDLER(USB_EVENT event, void *pdat
      +                          a, uint16_t size);usb/usb_events.c: 68: {;usb/usb_events.c: 69:     switch((int)event)
  7579                           
  7580                           ;incstack = 0
  7581  00239A  D022               	goto	i2l3913
  7582  00239C                     i2l3895:
  7583                           
  7584                           ;usb/usb_events.c: 77:             APP_LEDUpdateUSBStatus();
  7585  00239C  ECC4  F013         	call	_APP_LEDUpdateUSBStatus	;wreg free
  7586                           
  7587                           ;usb/usb_events.c: 78:             if(SOFCounter < 32767)
  7588  0023A0  280C               	incf	_SOFCounter,w,c	;volatile
  7589  0023A2  E104               	bnz	i2u224_40
  7590  0023A4  0E7F               	movlw	127
  7591  0023A6  180D               	xorwf	_SOFCounter+1,w,c	;volatile
  7592  0023A8  B4D8               	btfsc	status,2,c
  7593  0023AA  D003               	goto	i2l3901
  7594  0023AC                     i2u224_40:
  7595                           
  7596                           ;usb/usb_events.c: 79:             {;usb/usb_events.c: 80:                 SOFCounter++;
  7597  0023AC  4A0C               	infsnz	_SOFCounter,f,c	;volatile
  7598  0023AE  2A0D               	incf	_SOFCounter+1,f,c	;volatile
  7599                           
  7600                           ;usb/usb_events.c: 81:             }
  7601  0023B0  0012               	return	
  7602  0023B2                     i2l3901:
  7603                           
  7604                           ;usb/usb_events.c: 83:             {;usb/usb_events.c: 84:                 SOFCounter = 
      +                          0;
  7605  0023B2  0E00               	movlw	0
  7606  0023B4  6E0D               	movwf	_SOFCounter+1,c	;volatile
  7607  0023B6  0E00               	movlw	0
  7608  0023B8  6E0C               	movwf	_SOFCounter,c	;volatile
  7609  0023BA  0012               	return	
  7610  0023BC                     i2l3903:
  7611                           
  7612                           ;usb/usb_events.c: 90:             APP_LEDUpdateUSBStatus();
  7613  0023BC  ECC4  F013         	call	_APP_LEDUpdateUSBStatus	;wreg free
  7614                           
  7615                           ;usb/usb_events.c: 98:             SYSTEM_Initialize(SYSTEM_STATE_USB_SUSPEND);
  7616  0023C0  0E01               	movlw	1
  7617  0023C2  EC7D  F014         	call	i2_SYSTEM_Initialize
  7618                           
  7619                           ;usb/usb_events.c: 99:             break;
  7620  0023C6  0012               	return	
  7621  0023C8                     i2l3905:
  7622                           
  7623                           ;usb/usb_events.c: 103:             APP_LEDUpdateUSBStatus();
  7624  0023C8  ECC4  F013         	call	_APP_LEDUpdateUSBStatus	;wreg free
  7625                           
  7626                           ;usb/usb_events.c: 109:             SYSTEM_Initialize(SYSTEM_STATE_USB_RESUME);
  7627  0023CC  0E02               	movlw	2
  7628  0023CE  EC7D  F014         	call	i2_SYSTEM_Initialize
  7629                           
  7630                           ;usb/usb_events.c: 110:             break;
  7631  0023D2  0012               	return	
  7632  0023D4                     i2l3907:
  7633                           
  7634                           ;usb/usb_events.c: 115:             APP_KeyboardInit();
  7635  0023D4  EC82  F013         	call	_APP_KeyboardInit	;wreg free
  7636                           
  7637                           ;usb/usb_events.c: 116:             break;
  7638  0023D8  0012               	return	
  7639  0023DA                     i2l3909:
  7640                           
  7641                           ;usb/usb_events.c: 124:             USBCheckHIDRequest();
  7642  0023DA  EC0B  F00D         	call	_USBCheckHIDRequest	;wreg free
  7643                           
  7644                           ;usb/usb_events.c: 125:             break;
  7645  0023DE  0012               	return	
  7646  0023E0                     i2l3913:
  7647  0023E0  C038  F03E         	movff	USER_USB_CALLBACK_EVENT_HANDLER@event,??_USER_USB_CALLBACK_EVENT_HANDLER
  7648  0023E4  C039  F03F         	movff	USER_USB_CALLBACK_EVENT_HANDLER@event+1,??_USER_USB_CALLBACK_EVENT_HANDLER+1
  7649                           
  7650                           ; Switch on 2 bytes has been partitioned into a top level switch of size 1, and 2 sub-sw
      +                          itches
  7651                           ; Switch size 1, requested type "simple"
  7652                           ; Number of cases is 2, Range of values is 0 to 127
  7653                           ; switch strategies available:
  7654                           ; Name         Instructions Cycles
  7655                           ; simple_byte            7     4 (average)
  7656                           ;	Chosen strategy is simple_byte
  7657  0023E8  503F               	movf	??_USER_USB_CALLBACK_EVENT_HANDLER+1,w,c
  7658  0023EA  0A00               	xorlw	0	; case 0
  7659  0023EC  B4D8               	btfsc	status,2,c
  7660  0023EE  D004               	goto	i2l6633
  7661  0023F0  0A7F               	xorlw	127	; case 127
  7662  0023F2  A4D8               	btfss	status,2,c
  7663  0023F4  0012               	return	
  7664  0023F6  D01A               	goto	i2l6635
  7665  0023F8                     i2l6633:
  7666                           
  7667                           ; Switch size 1, requested type "simple"
  7668                           ; Number of cases is 8, Range of values is 1 to 117
  7669                           ; switch strategies available:
  7670                           ; Name         Instructions Cycles
  7671                           ; simple_byte           25    13 (average)
  7672                           ;	Chosen strategy is simple_byte
  7673  0023F8  503E               	movf	??_USER_USB_CALLBACK_EVENT_HANDLER,w,c
  7674  0023FA  0A01               	xorlw	1	; case 1
  7675  0023FC  B4D8               	btfsc	status,2,c
  7676  0023FE  D7EA               	goto	i2l3907
  7677  002400  0A03               	xorlw	3	; case 2
  7678  002402  B4D8               	btfsc	status,2,c
  7679  002404  0012               	return	
  7680  002406  0A01               	xorlw	1	; case 3
  7681  002408  B4D8               	btfsc	status,2,c
  7682  00240A  D7E7               	goto	i2l3909
  7683  00240C  0A06               	xorlw	6	; case 5
  7684  00240E  B4D8               	btfsc	status,2,c
  7685  002410  0012               	return	
  7686  002412  0A77               	xorlw	119	; case 114
  7687  002414  B4D8               	btfsc	status,2,c
  7688  002416  0012               	return	
  7689  002418  0A01               	xorlw	1	; case 115
  7690  00241A  B4D8               	btfsc	status,2,c
  7691  00241C  D7BF               	goto	i2l3895
  7692  00241E  0A07               	xorlw	7	; case 116
  7693  002420  B4D8               	btfsc	status,2,c
  7694  002422  D7D2               	goto	i2l3905
  7695  002424  0A01               	xorlw	1	; case 117
  7696  002426  A4D8               	btfss	status,2,c
  7697  002428  0012               	return	
  7698  00242A  D7C8               	goto	i2l3903
  7699  00242C                     i2l6635:
  7700                           
  7701                           ; Switch size 1, requested type "simple"
  7702                           ; Number of cases is 1, Range of values is 255 to 255
  7703                           ; switch strategies available:
  7704                           ; Name         Instructions Cycles
  7705                           ; simple_byte            4     3 (average)
  7706                           ;	Chosen strategy is simple_byte
  7707  00242C  503E               	movf	??_USER_USB_CALLBACK_EVENT_HANDLER,w,c
  7708  00242E  0AFF               	xorlw	255	; case 255
  7709  002430  0012               	return	
  7710  002432                     __end_of_USER_USB_CALLBACK_EVENT_HANDLER:
  7711                           	opt callstack 0
  7712                           
  7713 ;; *************** function i2_SYSTEM_Initialize *****************
  7714 ;; Defined at:
  7715 ;;		line 80 in file "system.c"
  7716 ;; Parameters:    Size  Location     Type
  7717 ;;  state           1    wreg     enum E5059
  7718 ;; Auto vars:     Size  Location     Type
  7719 ;;  state           1    5[COMRAM] enum E5059
  7720 ;; Return value:  Size  Location     Type
  7721 ;;                  1    wreg      void 
  7722 ;; Registers used:
  7723 ;;		wreg, status,2, status,0, cstack
  7724 ;; Tracked objects:
  7725 ;;		On entry : 0/0
  7726 ;;		On exit  : 0/0
  7727 ;;		Unchanged: 0/0
  7728 ;; Data sizes:     COMRAM   BANK0   BANK1   BANK2   BANK3   BANK4  BANK5h  BANK5l   BANK6   BANK7
  7729 ;;      Params:         0       0       0       0       0       0       0       0       0       0
  7730 ;;      Locals:         1       0       0       0       0       0       0       0       0       0
  7731 ;;      Temps:          2       0       0       0       0       0       0       0       0       0
  7732 ;;      Totals:         3       0       0       0       0       0       0       0       0       0
  7733 ;;Total ram usage:        3 bytes
  7734 ;; Hardware stack levels used:    1
  7735 ;; Hardware stack levels required when called:    1
  7736 ;; This function calls:
  7737 ;;		i2_BUTTON_Enable
  7738 ;;		i2_LED_Enable
  7739 ;; This function is called by:
  7740 ;;		_USER_USB_CALLBACK_EVENT_HANDLER
  7741 ;; This function uses a non-reentrant model
  7742 ;;
  7743                           
  7744                           	psect	text35
  7745  0028FA                     __ptext35:
  7746                           	opt callstack 0
  7747  0028FA                     i2_SYSTEM_Initialize:
  7748                           	opt callstack 22
  7749                           
  7750                           ;incstack = 0
  7751                           ;i2SYSTEM_Initialize@state stored from wreg
  7752  0028FA  6E31               	movwf	i2SYSTEM_Initialize@state,c
  7753                           
  7754                           ;system.c: 80: void SYSTEM_Initialize( SYSTEM_STATE state );system.c: 81: {;system.c: 82
      +                          :     switch(state)
  7755  0028FC  D016               	goto	i2l3867
  7756  0028FE                     i2l3853:
  7757                           
  7758                           ;system.c: 89:                 OSCTUNE = 0x80;
  7759  0028FE  0E80               	movlw	128
  7760  002900  6E9B               	movwf	3995,c	;volatile
  7761                           
  7762                           ;system.c: 90:                 OSCCON = 0x60;
  7763  002902  0E60               	movlw	96
  7764  002904  6ED3               	movwf	4051,c	;volatile
  7765                           
  7766                           ;system.c: 91:                 OSCCON2 = 0x10;
  7767  002906  0E10               	movlw	16
  7768  002908  6ED2               	movwf	4050,c	;volatile
  7769  00290A                     i2l516:
  7770  00290A  AED2               	btfss	4050,7,c	;volatile
  7771  00290C  D7FE               	goto	i2l516
  7772                           
  7773                           ;system.c: 93:                 ACTCON = 0x90;
  7774  00290E  0E90               	movlw	144
  7775  002910  6EB5               	movwf	4021,c	;volatile
  7776                           
  7777                           ;system.c: 97:             LED_Enable(LED_E1);
  7778  002912  0E01               	movlw	1
  7779  002914  ECCA  F014         	call	i2_LED_Enable
  7780                           
  7781                           ;system.c: 98:             LED_Enable(LED_E2);
  7782  002918  0E02               	movlw	2
  7783  00291A  ECCA  F014         	call	i2_LED_Enable
  7784                           
  7785                           ;system.c: 99:             LED_Enable(LED_E3);
  7786  00291E  0E03               	movlw	3
  7787  002920  ECCA  F014         	call	i2_LED_Enable
  7788                           
  7789                           ;system.c: 101:             BUTTON_Enable();
  7790  002924  EC4A  F016         	call	i2_BUTTON_Enable	;wreg free
  7791                           
  7792                           ;system.c: 102:             break;
  7793  002928  0012               	return	
  7794  00292A                     i2l3867:
  7795  00292A  5031               	movf	i2SYSTEM_Initialize@state,w,c
  7796  00292C  6E2F               	movwf	??i2_SYSTEM_Initialize& (0+255),c
  7797  00292E  6A30               	clrf	(??i2_SYSTEM_Initialize+1)& (0+255),c
  7798                           
  7799                           ; Switch on 2 bytes has been partitioned into a top level switch of size 1, and 1 sub-sw
      +                          itches
  7800                           ; Switch size 1, requested type "simple"
  7801                           ; Number of cases is 1, Range of values is 0 to 0
  7802                           ; switch strategies available:
  7803                           ; Name         Instructions Cycles
  7804                           ; simple_byte            4     3 (average)
  7805                           ;	Chosen strategy is simple_byte
  7806  002930  5030               	movf	??i2_SYSTEM_Initialize+1,w,c
  7807  002932  0A00               	xorlw	0	; case 0
  7808  002934  A4D8               	btfss	status,2,c
  7809  002936  0012               	return	
  7810                           
  7811                           ; Switch size 1, requested type "simple"
  7812                           ; Number of cases is 3, Range of values is 0 to 2
  7813                           ; switch strategies available:
  7814                           ; Name         Instructions Cycles
  7815                           ; simple_byte           10     6 (average)
  7816                           ;	Chosen strategy is simple_byte
  7817  002938  502F               	movf	??i2_SYSTEM_Initialize,w,c
  7818  00293A  0A00               	xorlw	0	; case 0
  7819  00293C  B4D8               	btfsc	status,2,c
  7820  00293E  D7DF               	goto	i2l3853
  7821  002940  0A01               	xorlw	1	; case 1
  7822  002942  B4D8               	btfsc	status,2,c
  7823  002944  0012               	return	
  7824  002946  0A03               	xorlw	3	; case 2
  7825  002948  0012               	return	
  7826  00294A                     __end_ofi2_SYSTEM_Initialize:
  7827                           	opt callstack 0
  7828                           
  7829 ;; *************** function i2_LED_Enable *****************
  7830 ;; Defined at:
  7831 ;;		line 216 in file "leds.c"
  7832 ;; Parameters:    Size  Location     Type
  7833 ;;  led             1    wreg     enum E2
  7834 ;; Auto vars:     Size  Location     Type
  7835 ;;  led             1    2[COMRAM] enum E2
  7836 ;; Return value:  Size  Location     Type
  7837 ;;                  1    wreg      void 
  7838 ;; Registers used:
  7839 ;;		wreg, status,2, status,0
  7840 ;; Tracked objects:
  7841 ;;		On entry : 0/0
  7842 ;;		On exit  : 0/0
  7843 ;;		Unchanged: 0/0
  7844 ;; Data sizes:     COMRAM   BANK0   BANK1   BANK2   BANK3   BANK4  BANK5h  BANK5l   BANK6   BANK7
  7845 ;;      Params:         0       0       0       0       0       0       0       0       0       0
  7846 ;;      Locals:         1       0       0       0       0       0       0       0       0       0
  7847 ;;      Temps:          2       0       0       0       0       0       0       0       0       0
  7848 ;;      Totals:         3       0       0       0       0       0       0       0       0       0
  7849 ;;Total ram usage:        3 bytes
  7850 ;; Hardware stack levels used:    1
  7851 ;; This function calls:
  7852 ;;		Nothing
  7853 ;; This function is called by:
  7854 ;;		i2_SYSTEM_Initialize
  7855 ;; This function uses a non-reentrant model
  7856 ;;
  7857                           
  7858                           	psect	text36
  7859  002994                     __ptext36:
  7860                           	opt callstack 0
  7861  002994                     i2_LED_Enable:
  7862                           	opt callstack 22
  7863                           
  7864                           ;incstack = 0
  7865                           ;i2LED_Enable@led stored from wreg
  7866  002994  6E2E               	movwf	i2LED_Enable@led,c
  7867                           
  7868                           ;leds.c: 216: void LED_Enable(LED led);leds.c: 217: {;leds.c: 218:     switch(led)
  7869  002996  D00C               	goto	i2l3725
  7870  002998                     i2l830:
  7871                           
  7872                           ;leds.c: 221:             TRISEbits.TRISE0 = 0;
  7873  002998  9096               	bcf	3990,0,c	;volatile
  7874                           
  7875                           ;leds.c: 222:             ANSELEbits.ANSE0 = 0;
  7876  00299A  010F               	movlb	15	; () banked
  7877  00299C  915F               	bcf	95,0,b	;volatile
  7878                           
  7879                           ;leds.c: 223:             break;
  7880  00299E  0012               	return	
  7881  0029A0                     i2l832:
  7882                           
  7883                           ;leds.c: 226:             TRISEbits.TRISE1 = 0;
  7884  0029A0  9296               	bcf	3990,1,c	;volatile
  7885                           
  7886                           ;leds.c: 227:             ANSELEbits.ANSE0 = 0;
  7887  0029A2  010F               	movlb	15	; () banked
  7888  0029A4  915F               	bcf	95,0,b	;volatile
  7889                           
  7890                           ;leds.c: 228:             break;
  7891  0029A6  0012               	return	
  7892  0029A8                     i2l833:
  7893                           
  7894                           ;leds.c: 231:             TRISEbits.TRISE2 = 0;
  7895  0029A8  9496               	bcf	3990,2,c	;volatile
  7896                           
  7897                           ;leds.c: 232:             ANSELEbits.ANSE0 = 0;
  7898  0029AA  010F               	movlb	15	; () banked
  7899  0029AC  915F               	bcf	95,0,b	;volatile
  7900                           
  7901                           ;leds.c: 233:             break;
  7902  0029AE  0012               	return	
  7903  0029B0                     i2l3725:
  7904  0029B0  502E               	movf	i2LED_Enable@led,w,c
  7905  0029B2  6E2C               	movwf	??i2_LED_Enable& (0+255),c
  7906  0029B4  6A2D               	clrf	(??i2_LED_Enable+1)& (0+255),c
  7907                           
  7908                           ; Switch on 2 bytes has been partitioned into a top level switch of size 1, and 1 sub-sw
      +                          itches
  7909                           ; Switch size 1, requested type "simple"
  7910                           ; Number of cases is 1, Range of values is 0 to 0
  7911                           ; switch strategies available:
  7912                           ; Name         Instructions Cycles
  7913                           ; simple_byte            4     3 (average)
  7914                           ;	Chosen strategy is simple_byte
  7915  0029B6  502D               	movf	??i2_LED_Enable+1,w,c
  7916  0029B8  0A00               	xorlw	0	; case 0
  7917  0029BA  A4D8               	btfss	status,2,c
  7918  0029BC  0012               	return	
  7919                           
  7920                           ; Switch size 1, requested type "simple"
  7921                           ; Number of cases is 4, Range of values is 0 to 3
  7922                           ; switch strategies available:
  7923                           ; Name         Instructions Cycles
  7924                           ; simple_byte           13     7 (average)
  7925                           ;	Chosen strategy is simple_byte
  7926  0029BE  502C               	movf	??i2_LED_Enable,w,c
  7927  0029C0  0A00               	xorlw	0	; case 0
  7928  0029C2  B4D8               	btfsc	status,2,c
  7929  0029C4  0012               	return	
  7930  0029C6  0A01               	xorlw	1	; case 1
  7931  0029C8  B4D8               	btfsc	status,2,c
  7932  0029CA  D7E6               	goto	i2l830
  7933  0029CC  0A03               	xorlw	3	; case 2
  7934  0029CE  B4D8               	btfsc	status,2,c
  7935  0029D0  D7E7               	goto	i2l832
  7936  0029D2  0A01               	xorlw	1	; case 3
  7937  0029D4  A4D8               	btfss	status,2,c
  7938  0029D6  0012               	return	
  7939  0029D8  D7E7               	goto	i2l833
  7940  0029DA                     __end_ofi2_LED_Enable:
  7941                           	opt callstack 0
  7942                           
  7943 ;; *************** function i2_BUTTON_Enable *****************
  7944 ;; Defined at:
  7945 ;;		line 96 in file "buttons.c"
  7946 ;; Parameters:    Size  Location     Type
  7947 ;;		None
  7948 ;; Auto vars:     Size  Location     Type
  7949 ;;		None
  7950 ;; Return value:  Size  Location     Type
  7951 ;;                  2    0[None  ] int 
  7952 ;; Registers used:
  7953 ;;		wreg, status,2
  7954 ;; Tracked objects:
  7955 ;;		On entry : 0/0
  7956 ;;		On exit  : 0/0
  7957 ;;		Unchanged: 0/0
  7958 ;; Data sizes:     COMRAM   BANK0   BANK1   BANK2   BANK3   BANK4  BANK5h  BANK5l   BANK6   BANK7
  7959 ;;      Params:         0       0       0       0       0       0       0       0       0       0
  7960 ;;      Locals:         0       0       0       0       0       0       0       0       0       0
  7961 ;;      Temps:          0       0       0       0       0       0       0       0       0       0
  7962 ;;      Totals:         0       0       0       0       0       0       0       0       0       0
  7963 ;;Total ram usage:        0 bytes
  7964 ;; Hardware stack levels used:    1
  7965 ;; This function calls:
  7966 ;;		Nothing
  7967 ;; This function is called by:
  7968 ;;		i2_SYSTEM_Initialize
  7969 ;; This function uses a non-reentrant model
  7970 ;;
  7971                           
  7972                           	psect	text37
  7973  002C94                     __ptext37:
  7974                           	opt callstack 0
  7975  002C94                     i2_BUTTON_Enable:
  7976                           	opt callstack 22
  7977                           
  7978                           ;buttons.c: 99:     ANSELB = 0b00000000;
  7979                           
  7980                           ;incstack = 0
  7981  002C94  0E00               	movlw	0
  7982  002C96  010F               	movlb	15	; () banked
  7983  002C98  6F5C               	movwf	92,b	;volatile
  7984                           
  7985                           ;buttons.c: 100:     ANSELC = 0b00000000;
  7986  002C9A  0E00               	movlw	0
  7987  002C9C  6F5D               	movwf	93,b	;volatile
  7988                           
  7989                           ;buttons.c: 101:     ANSELD = 0b00000000;
  7990  002C9E  0E00               	movlw	0
  7991  002CA0  6F5E               	movwf	94,b	;volatile
  7992                           
  7993                           ;buttons.c: 102:     ANSELA = 0b00000000;
  7994  002CA2  0E00               	movlw	0
  7995  002CA4  6F5B               	movwf	91,b	;volatile
  7996                           
  7997                           ;buttons.c: 104:     TRISB = 0b00000000;
  7998  002CA6  0E00               	movlw	0
  7999  002CA8  6E93               	movwf	3987,c	;volatile
  8000                           
  8001                           ;buttons.c: 105:     TRISC = 0b00000000;
  8002  002CAA  0E00               	movlw	0
  8003  002CAC  6E94               	movwf	3988,c	;volatile
  8004                           
  8005                           ;buttons.c: 106:     TRISD = 0b00000000;
  8006  002CAE  0E00               	movlw	0
  8007  002CB0  6E95               	movwf	3989,c	;volatile
  8008                           
  8009                           ; BSR set to: 15
  8010                           ;buttons.c: 108:     TRISA = 0b11111111;
  8011  002CB2  6892               	setf	3986,c	;volatile
  8012                           
  8013                           ;buttons.c: 110:     LATB = 0b00000000;
  8014  002CB4  0E00               	movlw	0
  8015  002CB6  6E8A               	movwf	3978,c	;volatile
  8016                           
  8017                           ;buttons.c: 111:     LATC = 0b00000000;
  8018  002CB8  0E00               	movlw	0
  8019  002CBA  6E8B               	movwf	3979,c	;volatile
  8020                           
  8021                           ;buttons.c: 112:     LATD = 0b00000000;
  8022  002CBC  0E00               	movlw	0
  8023  002CBE  6E8C               	movwf	3980,c	;volatile
  8024                           
  8025                           ; BSR set to: 15
  8026  002CC0  0012               	return		;funcret
  8027  002CC2                     __end_ofi2_BUTTON_Enable:
  8028                           	opt callstack 0
  8029                           
  8030 ;; *************** function _USBCheckHIDRequest *****************
  8031 ;; Defined at:
  8032 ;;		line 161 in file "usb/usb_device_hid.c"
  8033 ;; Parameters:    Size  Location     Type
  8034 ;;		None
  8035 ;; Auto vars:     Size  Location     Type
  8036 ;;		None
  8037 ;; Return value:  Size  Location     Type
  8038 ;;                  1    wreg      void 
  8039 ;; Registers used:
  8040 ;;		wreg, status,2, status,0, cstack
  8041 ;; Tracked objects:
  8042 ;;		On entry : 0/0
  8043 ;;		On exit  : 0/0
  8044 ;;		Unchanged: 0/0
  8045 ;; Data sizes:     COMRAM   BANK0   BANK1   BANK2   BANK3   BANK4  BANK5h  BANK5l   BANK6   BANK7
  8046 ;;      Params:         0       0       0       0       0       0       0       0       0       0
  8047 ;;      Locals:         0       0       0       0       0       0       0       0       0       0
  8048 ;;      Temps:          2       0       0       0       0       0       0       0       0       0
  8049 ;;      Totals:         2       0       0       0       0       0       0       0       0       0
  8050 ;;Total ram usage:        2 bytes
  8051 ;; Hardware stack levels used:    1
  8052 ;; Hardware stack levels required when called:    1
  8053 ;; This function calls:
  8054 ;;		_USBHIDCBSetIdleRateHandler
  8055 ;;		_USBHIDCBSetReportHandler
  8056 ;; This function is called by:
  8057 ;;		_USER_USB_CALLBACK_EVENT_HANDLER
  8058 ;; This function uses a non-reentrant model
  8059 ;;
  8060                           
  8061                           	psect	text38
  8062  001A16                     __ptext38:
  8063                           	opt callstack 0
  8064  001A16                     _USBCheckHIDRequest:
  8065                           	opt callstack 22
  8066                           
  8067                           ;usb/usb_device_hid.c: 163:     if(SetupPkt.Recipient != (0x01)) return;
  8068                           
  8069                           ; BSR set to: 15
  8070                           ;incstack = 0
  8071  001A16  0104               	movlb	4	; () banked
  8072  001A18  5130               	movf	48,w,b	;volatile
  8073  001A1A  0B1F               	andlw	31
  8074  001A1C  06E8               	decf	wreg,f,c
  8075  001A1E  A4D8               	btfss	status,2,c
  8076  001A20  0012               	return	
  8077                           
  8078                           ; BSR set to: 4
  8079                           ;usb/usb_device_hid.c: 164:     if(SetupPkt.bIntfID != 0x00) return;
  8080  001A22  5134               	movf	52,w,b	;volatile
  8081  001A24  A4D8               	btfss	status,2,c
  8082  001A26  0012               	return	
  8083                           
  8084                           ; BSR set to: 4
  8085                           ;usb/usb_device_hid.c: 171:     if(SetupPkt.bRequest == 6)
  8086  001A28  0E06               	movlw	6
  8087  001A2A  1931               	xorwf	49,w,b	;volatile
  8088  001A2C  B4D8               	btfsc	status,2,c
  8089  001A2E  D01A               	goto	i2l3759
  8090  001A30  D028               	goto	i2l3761
  8091  001A32                     i2l3743:
  8092                           
  8093                           ; BSR set to: 4
  8094                           ;usb/usb_device_hid.c: 176:                 if(USBActiveConfiguration == 1)
  8095  001A32  042B               	decf	_USBActiveConfiguration,w,c	;volatile
  8096  001A34  A4D8               	btfss	status,2,c
  8097  001A36  D025               	goto	i2l3761
  8098                           
  8099                           ; BSR set to: 4
  8100                           ;usb/usb_device_hid.c: 177:                 {;usb/usb_device_hid.c: 178:                
      +                               { inPipes[0].pSrc.bRom = (const uint8_t*)&configDescriptor1 + 18; inPipes[0].wCount
      +                          .Val = sizeof(USB_HID_DSC)+3; inPipes[0].info.Val = 0x40 | 0x80 | 0x00; };
  8101  001A38  0E1B               	movlw	low (_configDescriptor1+18)
  8102  001A3A  0100               	movlb	0	; () banked
  8103  001A3C  6FA8               	movwf	_inPipes& (0+255),b	;volatile
  8104  001A3E  0E08               	movlw	high (_configDescriptor1+18)
  8105  001A40  6FA9               	movwf	(_inPipes+1)& (0+255),b	;volatile
  8106                           
  8107                           ; BSR set to: 0
  8108  001A42  0E00               	movlw	0
  8109  001A44  6FAD               	movwf	(_inPipes+5)& (0+255),b	;volatile
  8110  001A46  0E09               	movlw	9
  8111  001A48  D00B               	goto	L11
  8112  001A4A                     i2l3749:
  8113                           
  8114                           ; BSR set to: 0
  8115  001A4A  0EC0               	movlw	192
  8116  001A4C  6FAB               	movwf	(_inPipes+3)& (0+255),b	;volatile
  8117  001A4E  D019               	goto	i2l3761
  8118  001A50                     i2l3751:
  8119                           
  8120                           ; BSR set to: 4
  8121                           ;usb/usb_device_hid.c: 186:                 {;usb/usb_device_hid.c: 187:                
      +                               { inPipes[0].pSrc.bRom = (const uint8_t*)&hid_rpt01; inPipes[0].wCount.Val = 63; in
      +                          Pipes[0].info.Val = 0x40 | 0x80 | 0x00; };
  8122  001A50  0E49               	movlw	low _hid_rpt01
  8123  001A52  0100               	movlb	0	; () banked
  8124  001A54  6FA8               	movwf	_inPipes& (0+255),b	;volatile
  8125  001A56  0E08               	movlw	high _hid_rpt01
  8126  001A58  6FA9               	movwf	(_inPipes+1)& (0+255),b	;volatile
  8127                           
  8128                           ; BSR set to: 0
  8129  001A5A  0E00               	movlw	0
  8130  001A5C  6FAD               	movwf	(_inPipes+5)& (0+255),b	;volatile
  8131  001A5E  0E3F               	movlw	63
  8132  001A60                     L11:
  8133  001A60  6FAC               	movwf	(_inPipes+4)& (0+255),b	;volatile
  8134  001A62  D7F3               	goto	i2l3749
  8135  001A64                     i2l3759:
  8136                           
  8137                           ; BSR set to: 4
  8138  001A64  5133               	movf	51,w,b	;volatile
  8139  001A66  6E2E               	movwf	??_USBCheckHIDRequest& (0+255),c
  8140  001A68  6A2F               	clrf	(??_USBCheckHIDRequest+1)& (0+255),c
  8141                           
  8142                           ; Switch on 2 bytes has been partitioned into a top level switch of size 1, and 1 sub-sw
      +                          itches
  8143                           ; Switch size 1, requested type "simple"
  8144                           ; Number of cases is 1, Range of values is 0 to 0
  8145                           ; switch strategies available:
  8146                           ; Name         Instructions Cycles
  8147                           ; simple_byte            4     3 (average)
  8148                           ;	Chosen strategy is simple_byte
  8149  001A6A  502F               	movf	??_USBCheckHIDRequest+1,w,c
  8150  001A6C  0A00               	xorlw	0	; case 0
  8151  001A6E  A4D8               	btfss	status,2,c
  8152  001A70  D008               	goto	i2l3761
  8153                           
  8154                           ; BSR set to: 4
  8155                           ; Switch size 1, requested type "simple"
  8156                           ; Number of cases is 3, Range of values is 33 to 35
  8157                           ; switch strategies available:
  8158                           ; Name         Instructions Cycles
  8159                           ; simple_byte           10     6 (average)
  8160                           ;	Chosen strategy is simple_byte
  8161  001A72  502E               	movf	??_USBCheckHIDRequest,w,c
  8162  001A74  0A21               	xorlw	33	; case 33
  8163  001A76  B4D8               	btfsc	status,2,c
  8164  001A78  D7DC               	goto	i2l3743
  8165  001A7A  0A03               	xorlw	3	; case 34
  8166  001A7C  B4D8               	btfsc	status,2,c
  8167  001A7E  D7E8               	goto	i2l3751
  8168  001A80  0A01               	xorlw	1	; case 35
  8169  001A82                     i2l3761:
  8170                           
  8171                           ;usb/usb_device_hid.c: 209:     if(SetupPkt.RequestType != (0x20>>5))
  8172  001A82  0104               	movlb	4	; () banked
  8173  001A84  3930               	swapf	48,w,b	;volatile
  8174  001A86  32E8               	rrcf	wreg,f,c
  8175  001A88  0B03               	andlw	3
  8176  001A8A  06E8               	decf	wreg,f,c
  8177  001A8C  A4D8               	btfss	status,2,c
  8178  001A8E  0012               	return	
  8179  001A90  D02D               	goto	i2l3791
  8180  001A92                     i2l3765:
  8181                           
  8182                           ; BSR set to: 4
  8183                           ;usb/usb_device_hid.c: 223:                 USBHIDCBSetReportHandler();
  8184  001A92  EC99  F016         	call	_USBHIDCBSetReportHandler	;wreg free
  8185                           
  8186                           ;usb/usb_device_hid.c: 225:             break;
  8187  001A96  0012               	return	
  8188  001A98                     i2l3767:
  8189                           
  8190                           ; BSR set to: 4
  8191                           ;usb/usb_device_hid.c: 227:             { inPipes[0].pSrc.bRam = (uint8_t*)&idle_rate; i
      +                          nPipes[0].wCount.Val = 1; inPipes[0].info.Val = 0x40 | 0x80 | 0x01; };
  8192  001A98  0E29               	movlw	low _idle_rate
  8193  001A9A  0100               	movlb	0	; () banked
  8194  001A9C  6FA8               	movwf	_inPipes& (0+255),b	;volatile
  8195  001A9E  0E00               	movlw	high _idle_rate
  8196  001AA0  6FA9               	movwf	(_inPipes+1)& (0+255),b	;volatile
  8197                           
  8198                           ; BSR set to: 0
  8199  001AA2  0E00               	movlw	0
  8200  001AA4  6FAD               	movwf	(_inPipes+5)& (0+255),b	;volatile
  8201  001AA6  0E01               	movlw	1
  8202  001AA8  6FAC               	movwf	(_inPipes+4)& (0+255),b	;volatile
  8203                           
  8204                           ; BSR set to: 0
  8205  001AAA  0EC1               	movlw	193
  8206  001AAC  6FAB               	movwf	(_inPipes+3)& (0+255),b	;volatile
  8207                           
  8208                           ;usb/usb_device_hid.c: 231:             break;
  8209  001AAE  0012               	return	
  8210  001AB0                     i2l3773:
  8211                           
  8212                           ; BSR set to: 4
  8213                           ;usb/usb_device_hid.c: 233:             inPipes[0].info.Val = 0x00 | 0x80;
  8214  001AB0  0E80               	movlw	128
  8215  001AB2  0100               	movlb	0	; () banked
  8216  001AB4  6FAB               	movwf	(_inPipes+3)& (0+255),b	;volatile
  8217                           
  8218                           ; BSR set to: 0
  8219                           ;usb/usb_device_hid.c: 234:             idle_rate = SetupPkt.W_Value.byte.HB;
  8220  001AB6  C433 F029          	movff	1075,_idle_rate	;volatile
  8221                           
  8222                           ; BSR set to: 0
  8223                           ;usb/usb_device_hid.c: 235:             USBHIDCBSetIdleRateHandler(SetupPkt.W_Value.byte
      +                          .LB, idle_rate);
  8224  001ABA  C029  F02C         	movff	_idle_rate,USBHIDCBSetIdleRateHandler@newIdleRate
  8225  001ABE  0104               	movlb	4	; () banked
  8226  001AC0  5132               	movf	50,w,b	;volatile
  8227  001AC2  ECB2  F016         	call	_USBHIDCBSetIdleRateHandler
  8228                           
  8229                           ;usb/usb_device_hid.c: 236:             break;
  8230  001AC6  0012               	return	
  8231  001AC8                     i2l3779:
  8232                           
  8233                           ; BSR set to: 4
  8234                           ;usb/usb_device_hid.c: 238:             { inPipes[0].pSrc.bRam = (uint8_t*)&active_proto
      +                          col; inPipes[0].wCount.Val = 1; inPipes[0].info.Val = 0x00 | 0x80 | 0x01; };
  8235  001AC8  0E28               	movlw	low _active_protocol
  8236  001ACA  0100               	movlb	0	; () banked
  8237  001ACC  6FA8               	movwf	_inPipes& (0+255),b	;volatile
  8238  001ACE  0E00               	movlw	high _active_protocol
  8239  001AD0  6FA9               	movwf	(_inPipes+1)& (0+255),b	;volatile
  8240                           
  8241                           ; BSR set to: 0
  8242  001AD2  0E00               	movlw	0
  8243  001AD4  6FAD               	movwf	(_inPipes+5)& (0+255),b	;volatile
  8244  001AD6  0E01               	movlw	1
  8245  001AD8  6FAC               	movwf	(_inPipes+4)& (0+255),b	;volatile
  8246                           
  8247                           ; BSR set to: 0
  8248  001ADA  0E81               	movlw	129
  8249  001ADC  6FAB               	movwf	(_inPipes+3)& (0+255),b	;volatile
  8250                           
  8251                           ;usb/usb_device_hid.c: 242:             break;
  8252  001ADE  0012               	return	
  8253  001AE0                     i2l3785:
  8254                           
  8255                           ; BSR set to: 4
  8256                           ;usb/usb_device_hid.c: 244:             inPipes[0].info.Val = 0x00 | 0x80;
  8257  001AE0  0E80               	movlw	128
  8258  001AE2  0100               	movlb	0	; () banked
  8259  001AE4  6FAB               	movwf	(_inPipes+3)& (0+255),b	;volatile
  8260                           
  8261                           ; BSR set to: 0
  8262                           ;usb/usb_device_hid.c: 245:             active_protocol = SetupPkt.W_Value.byte.LB;
  8263  001AE6  C432 F028          	movff	1074,_active_protocol	;volatile
  8264                           
  8265                           ;usb/usb_device_hid.c: 246:             break;
  8266  001AEA  0012               	return	
  8267  001AEC                     i2l3791:
  8268                           
  8269                           ; BSR set to: 4
  8270  001AEC  5131               	movf	49,w,b	;volatile
  8271  001AEE  6E2E               	movwf	??_USBCheckHIDRequest& (0+255),c
  8272  001AF0  6A2F               	clrf	(??_USBCheckHIDRequest+1)& (0+255),c
  8273                           
  8274                           ; Switch on 2 bytes has been partitioned into a top level switch of size 1, and 1 sub-sw
      +                          itches
  8275                           ; Switch size 1, requested type "simple"
  8276                           ; Number of cases is 1, Range of values is 0 to 0
  8277                           ; switch strategies available:
  8278                           ; Name         Instructions Cycles
  8279                           ; simple_byte            4     3 (average)
  8280                           ;	Chosen strategy is simple_byte
  8281  001AF2  502F               	movf	??_USBCheckHIDRequest+1,w,c
  8282  001AF4  0A00               	xorlw	0	; case 0
  8283  001AF6  A4D8               	btfss	status,2,c
  8284  001AF8  0012               	return	
  8285                           
  8286                           ; BSR set to: 4
  8287                           ; Switch size 1, requested type "simple"
  8288                           ; Number of cases is 6, Range of values is 1 to 11
  8289                           ; switch strategies available:
  8290                           ; Name         Instructions Cycles
  8291                           ; simple_byte           19    10 (average)
  8292                           ;	Chosen strategy is simple_byte
  8293  001AFA  502E               	movf	??_USBCheckHIDRequest,w,c
  8294  001AFC  0A01               	xorlw	1	; case 1
  8295  001AFE  B4D8               	btfsc	status,2,c
  8296  001B00  0012               	return	
  8297  001B02  0A03               	xorlw	3	; case 2
  8298  001B04  B4D8               	btfsc	status,2,c
  8299  001B06  D7C8               	goto	i2l3767
  8300  001B08  0A01               	xorlw	1	; case 3
  8301  001B0A  B4D8               	btfsc	status,2,c
  8302  001B0C  D7DD               	goto	i2l3779
  8303  001B0E  0A0A               	xorlw	10	; case 9
  8304  001B10  B4D8               	btfsc	status,2,c
  8305  001B12  D7BF               	goto	i2l3765
  8306  001B14  0A03               	xorlw	3	; case 10
  8307  001B16  B4D8               	btfsc	status,2,c
  8308  001B18  D7CB               	goto	i2l3773
  8309  001B1A  0A01               	xorlw	1	; case 11
  8310  001B1C  A4D8               	btfss	status,2,c
  8311  001B1E  0012               	return	
  8312  001B20  D7DF               	goto	i2l3785
  8313  001B22                     __end_of_USBCheckHIDRequest:
  8314                           	opt callstack 0
  8315                           
  8316 ;; *************** function _USBHIDCBSetReportHandler *****************
  8317 ;; Defined at:
  8318 ;;		line 740 in file "device_keyboard.c"
  8319 ;; Parameters:    Size  Location     Type
  8320 ;;		None
  8321 ;; Auto vars:     Size  Location     Type
  8322 ;;		None
  8323 ;; Return value:  Size  Location     Type
  8324 ;;                  1    wreg      void 
  8325 ;; Registers used:
  8326 ;;		wreg, status,2, status,0
  8327 ;; Tracked objects:
  8328 ;;		On entry : 0/0
  8329 ;;		On exit  : 0/0
  8330 ;;		Unchanged: 0/0
  8331 ;; Data sizes:     COMRAM   BANK0   BANK1   BANK2   BANK3   BANK4  BANK5h  BANK5l   BANK6   BANK7
  8332 ;;      Params:         0       0       0       0       0       0       0       0       0       0
  8333 ;;      Locals:         0       0       0       0       0       0       0       0       0       0
  8334 ;;      Temps:          0       0       0       0       0       0       0       0       0       0
  8335 ;;      Totals:         0       0       0       0       0       0       0       0       0       0
  8336 ;;Total ram usage:        0 bytes
  8337 ;; Hardware stack levels used:    1
  8338 ;; This function calls:
  8339 ;;		Nothing
  8340 ;; This function is called by:
  8341 ;;		_USBCheckHIDRequest
  8342 ;; This function uses a non-reentrant model
  8343 ;;
  8344                           
  8345                           	psect	text39
  8346  002D32                     __ptext39:
  8347                           	opt callstack 0
  8348  002D32                     _USBHIDCBSetReportHandler:
  8349                           	opt callstack 22
  8350                           
  8351                           ;device_keyboard.c: 745:     {outPipes[0].pDst.bRam = (uint8_t*)&CtrlTrfData;outPipes[0]
      +                          .wCount.Val = 8;outPipes[0].pFunc = USBHIDCBSetReportComplete;outPipes[0].info.bits.busy
      +                           = 1; };
  8352                           
  8353                           ;incstack = 0
  8354  002D32  0E38               	movlw	56
  8355  002D34  0100               	movlb	0	; () banked
  8356  002D36  6FA0               	movwf	_outPipes& (0+255),b	;volatile
  8357  002D38  0E04               	movlw	4
  8358  002D3A  6FA1               	movwf	(_outPipes+1)& (0+255),b	;volatile
  8359                           
  8360                           ; BSR set to: 0
  8361  002D3C  0E00               	movlw	0
  8362  002D3E  6FA5               	movwf	(_outPipes+5)& (0+255),b	;volatile
  8363  002D40  0E08               	movlw	8
  8364  002D42  6FA4               	movwf	(_outPipes+4)& (0+255),b	;volatile
  8365                           
  8366                           ; BSR set to: 0
  8367  002D44  0E76               	movlw	low _USBHIDCBSetReportComplete
  8368  002D46  6FA6               	movwf	(_outPipes+6)& (0+255),b	;volatile
  8369  002D48  0E2D               	movlw	high _USBHIDCBSetReportComplete
  8370  002D4A  6FA7               	movwf	(_outPipes+7)& (0+255),b	;volatile
  8371                           
  8372                           ; BSR set to: 0
  8373  002D4C  8FA3               	bsf	(_outPipes+3)& (0+255),7,b	;volatile
  8374                           
  8375                           ; BSR set to: 0
  8376  002D4E  0012               	return		;funcret
  8377  002D50                     __end_of_USBHIDCBSetReportHandler:
  8378                           	opt callstack 0
  8379                           
  8380 ;; *************** function _USBHIDCBSetIdleRateHandler *****************
  8381 ;; Defined at:
  8382 ;;		line 751 in file "device_keyboard.c"
  8383 ;; Parameters:    Size  Location     Type
  8384 ;;  reportID        1    wreg     unsigned char 
  8385 ;;  newIdleRate     1    0[COMRAM] unsigned char 
  8386 ;; Auto vars:     Size  Location     Type
  8387 ;;  reportID        1    1[COMRAM] unsigned char 
  8388 ;; Return value:  Size  Location     Type
  8389 ;;                  1    wreg      void 
  8390 ;; Registers used:
  8391 ;;		wreg, status,2
  8392 ;; Tracked objects:
  8393 ;;		On entry : 0/0
  8394 ;;		On exit  : 0/0
  8395 ;;		Unchanged: 0/0
  8396 ;; Data sizes:     COMRAM   BANK0   BANK1   BANK2   BANK3   BANK4  BANK5h  BANK5l   BANK6   BANK7
  8397 ;;      Params:         1       0       0       0       0       0       0       0       0       0
  8398 ;;      Locals:         1       0       0       0       0       0       0       0       0       0
  8399 ;;      Temps:          0       0       0       0       0       0       0       0       0       0
  8400 ;;      Totals:         2       0       0       0       0       0       0       0       0       0
  8401 ;;Total ram usage:        2 bytes
  8402 ;; Hardware stack levels used:    1
  8403 ;; This function calls:
  8404 ;;		Nothing
  8405 ;; This function is called by:
  8406 ;;		_USBCheckHIDRequest
  8407 ;; This function uses a non-reentrant model
  8408 ;;
  8409                           
  8410                           	psect	text40
  8411  002D64                     __ptext40:
  8412                           	opt callstack 0
  8413  002D64                     _USBHIDCBSetIdleRateHandler:
  8414                           	opt callstack 22
  8415                           
  8416                           ; BSR set to: 0
  8417                           ;incstack = 0
  8418                           ;USBHIDCBSetIdleRateHandler@reportID stored from wreg
  8419  002D64  6E2D               	movwf	USBHIDCBSetIdleRateHandler@reportID,c
  8420                           
  8421                           ;device_keyboard.c: 751: void USBHIDCBSetIdleRateHandler(uint8_t reportID, uint8_t newId
      +                          leRate);device_keyboard.c: 752: {;device_keyboard.c: 756:     if(reportID == 0)
  8422  002D66  502D               	movf	USBHIDCBSetIdleRateHandler@reportID,w,c
  8423  002D68  A4D8               	btfss	status,2,c
  8424  002D6A  0012               	return	
  8425                           
  8426                           ;device_keyboard.c: 757:     {;device_keyboard.c: 758:         keyboardIdleRate = newIdl
      +                          eRate;
  8427  002D6C  C02C  F0D3         	movff	USBHIDCBSetIdleRateHandler@newIdleRate,_keyboardIdleRate
  8428  002D70  0100               	movlb	0	; () banked
  8429  002D72  6BD4               	clrf	(_keyboardIdleRate+1)& (0+255),b
  8430  002D74  0012               	return		;funcret
  8431  002D76                     __end_of_USBHIDCBSetIdleRateHandler:
  8432                           	opt callstack 0
  8433                           
  8434 ;; *************** function _APP_LEDUpdateUSBStatus *****************
  8435 ;; Defined at:
  8436 ;;		line 49 in file "status_led.c"
  8437 ;; Parameters:    Size  Location     Type
  8438 ;;		None
  8439 ;; Auto vars:     Size  Location     Type
  8440 ;;		None
  8441 ;; Return value:  Size  Location     Type
  8442 ;;                  1    wreg      void 
  8443 ;; Registers used:
  8444 ;;		wreg, status,2, status,0
  8445 ;; Tracked objects:
  8446 ;;		On entry : 0/0
  8447 ;;		On exit  : 0/0
  8448 ;;		Unchanged: 0/0
  8449 ;; Data sizes:     COMRAM   BANK0   BANK1   BANK2   BANK3   BANK4  BANK5h  BANK5l   BANK6   BANK7
  8450 ;;      Params:         0       0       0       0       0       0       0       0       0       0
  8451 ;;      Locals:         0       0       0       0       0       0       0       0       0       0
  8452 ;;      Temps:          2       0       0       0       0       0       0       0       0       0
  8453 ;;      Totals:         2       0       0       0       0       0       0       0       0       0
  8454 ;;Total ram usage:        2 bytes
  8455 ;; Hardware stack levels used:    1
  8456 ;; This function calls:
  8457 ;;		Nothing
  8458 ;; This function is called by:
  8459 ;;		_USER_USB_CALLBACK_EVENT_HANDLER
  8460 ;; This function uses a non-reentrant model
  8461 ;;
  8462                           
  8463                           	psect	text41
  8464  002788                     __ptext41:
  8465                           	opt callstack 0
  8466  002788                     _APP_LEDUpdateUSBStatus:
  8467                           	opt callstack 23
  8468                           
  8469                           ;status_led.c: 51:     static uint16_t ledCount = 0;;status_led.c: 53:     if(UCONbits.S
      +                          USPND == 1)
  8470                           
  8471                           ;incstack = 0
  8472  002788  B260               	btfsc	3936,1,c	;volatile
  8473  00278A  0012               	return	
  8474  00278C  D024               	goto	i2l3835
  8475  00278E                     i2l3809:
  8476                           
  8477                           ;status_led.c: 64:             if(ledCount == 1)
  8478  00278E  0408               	decf	APP_LEDUpdateUSBStatus@ledCount,w,c
  8479  002790  1009               	iorwf	APP_LEDUpdateUSBStatus@ledCount+1,w,c
  8480  002792  B4D8               	btfsc	status,2,c
  8481  002794  D02C               	goto	i2l3837
  8482  002796  0E4B               	movlw	75
  8483  002798  1808               	xorwf	APP_LEDUpdateUSBStatus@ledCount,w,c
  8484  00279A  1009               	iorwf	APP_LEDUpdateUSBStatus@ledCount+1,w,c
  8485  00279C  B4D8               	btfsc	status,2,c
  8486  00279E  D027               	goto	i2l3837
  8487  0027A0  5009               	movf	APP_LEDUpdateUSBStatus@ledCount+1,w,c
  8488  0027A2  E104               	bnz	i2u218_40
  8489  0027A4  0E97               	movlw	151
  8490  0027A6  5C08               	subwf	APP_LEDUpdateUSBStatus@ledCount,w,c
  8491  0027A8  A0D8               	btfss	status,0,c
  8492  0027AA  D021               	goto	i2l3837
  8493  0027AC                     i2u218_40:
  8494                           
  8495                           ;status_led.c: 73:             {;status_led.c: 74:                 ledCount = 0;
  8496  0027AC  0E00               	movlw	0
  8497  0027AE  6E09               	movwf	APP_LEDUpdateUSBStatus@ledCount+1,c
  8498  0027B0  0E00               	movlw	0
  8499  0027B2  6E08               	movwf	APP_LEDUpdateUSBStatus@ledCount,c
  8500                           
  8501                           ;status_led.c: 76:             break;
  8502  0027B4  D01C               	goto	i2l3837
  8503  0027B6                     i2l3821:
  8504                           
  8505                           ;status_led.c: 81:             if(ledCount == 1)
  8506  0027B6  0408               	decf	APP_LEDUpdateUSBStatus@ledCount,w,c
  8507  0027B8  1009               	iorwf	APP_LEDUpdateUSBStatus@ledCount+1,w,c
  8508  0027BA  B4D8               	btfsc	status,2,c
  8509  0027BC  D018               	goto	i2l3837
  8510  0027BE  0E32               	movlw	50
  8511  0027C0  1808               	xorwf	APP_LEDUpdateUSBStatus@ledCount,w,c
  8512  0027C2  1009               	iorwf	APP_LEDUpdateUSBStatus@ledCount+1,w,c
  8513  0027C4  B4D8               	btfsc	status,2,c
  8514  0027C6  D013               	goto	i2l3837
  8515  0027C8  0EB7               	movlw	183
  8516  0027CA  5C08               	subwf	APP_LEDUpdateUSBStatus@ledCount,w,c
  8517  0027CC  0E03               	movlw	3
  8518  0027CE  5809               	subwfb	APP_LEDUpdateUSBStatus@ledCount+1,w,c
  8519  0027D0  B0D8               	btfsc	status,0,c
  8520  0027D2  D7EC               	goto	i2u218_40
  8521  0027D4  D00C               	goto	i2l3837
  8522  0027D6                     i2l3835:
  8523  0027D6  5025               	movf	_USBDeviceState,w,c	;volatile
  8524  0027D8  6E2C               	movwf	??_APP_LEDUpdateUSBStatus& (0+255),c
  8525  0027DA  6A2D               	clrf	(??_APP_LEDUpdateUSBStatus+1)& (0+255),c
  8526                           
  8527                           ; Switch on 2 bytes has been partitioned into a top level switch of size 1, and 1 sub-sw
      +                          itches
  8528                           ; Switch size 1, requested type "simple"
  8529                           ; Number of cases is 1, Range of values is 0 to 0
  8530                           ; switch strategies available:
  8531                           ; Name         Instructions Cycles
  8532                           ; simple_byte            4     3 (average)
  8533                           ;	Chosen strategy is simple_byte
  8534  0027DC  502D               	movf	??_APP_LEDUpdateUSBStatus+1,w,c
  8535  0027DE  0A00               	xorlw	0	; case 0
  8536  0027E0  A4D8               	btfss	status,2,c
  8537  0027E2  D7E9               	goto	i2l3821
  8538                           
  8539                           ; Switch size 1, requested type "simple"
  8540                           ; Number of cases is 1, Range of values is 32 to 32
  8541                           ; switch strategies available:
  8542                           ; Name         Instructions Cycles
  8543                           ; simple_byte            4     3 (average)
  8544                           ;	Chosen strategy is simple_byte
  8545  0027E4  502C               	movf	??_APP_LEDUpdateUSBStatus,w,c
  8546  0027E6  0A20               	xorlw	32	; case 32
  8547  0027E8  B4D8               	btfsc	status,2,c
  8548  0027EA  D7D1               	goto	i2l3809
  8549  0027EC  D7E4               	goto	i2l3821
  8550  0027EE                     i2l3837:
  8551                           
  8552                           ;status_led.c: 97:     ledCount++;
  8553  0027EE  4A08               	infsnz	APP_LEDUpdateUSBStatus@ledCount,f,c
  8554  0027F0  2A09               	incf	APP_LEDUpdateUSBStatus@ledCount+1,f,c
  8555  0027F2  0012               	return		;funcret
  8556  0027F4                     __end_of_APP_LEDUpdateUSBStatus:
  8557                           	opt callstack 0
  8558                           
  8559 ;; *************** function _APP_KeyboardInit *****************
  8560 ;; Defined at:
  8561 ;;		line 310 in file "device_keyboard.c"
  8562 ;; Parameters:    Size  Location     Type
  8563 ;;		None
  8564 ;; Auto vars:     Size  Location     Type
  8565 ;;		None
  8566 ;; Return value:  Size  Location     Type
  8567 ;;                  1    wreg      void 
  8568 ;; Registers used:
  8569 ;;		wreg, fsr2l, fsr2h, status,2, status,0, prodl, prodh, cstack
  8570 ;; Tracked objects:
  8571 ;;		On entry : 0/0
  8572 ;;		On exit  : 0/0
  8573 ;;		Unchanged: 0/0
  8574 ;; Data sizes:     COMRAM   BANK0   BANK1   BANK2   BANK3   BANK4  BANK5h  BANK5l   BANK6   BANK7
  8575 ;;      Params:         0       0       0       0       0       0       0       0       0       0
  8576 ;;      Locals:         0       0       0       0       0       0       0       0       0       0
  8577 ;;      Temps:          0       0       0       0       0       0       0       0       0       0
  8578 ;;      Totals:         0       0       0       0       0       0       0       0       0       0
  8579 ;;Total ram usage:        0 bytes
  8580 ;; Hardware stack levels used:    1
  8581 ;; Hardware stack levels required when called:    2
  8582 ;; This function calls:
  8583 ;;		_USBEnableEndpoint
  8584 ;;		i2_USBTransferOnePacket
  8585 ;; This function is called by:
  8586 ;;		_USER_USB_CALLBACK_EVENT_HANDLER
  8587 ;; This function uses a non-reentrant model
  8588 ;;
  8589                           
  8590                           	psect	text42
  8591  002704                     __ptext42:
  8592                           	opt callstack 0
  8593  002704                     _APP_KeyboardInit:
  8594                           	opt callstack 21
  8595                           
  8596                           ;device_keyboard.c: 314:     keyboard.lastINTransmission = 0;
  8597                           
  8598                           ;incstack = 0
  8599  002704  0E00               	movlw	0
  8600  002706  0100               	movlb	0	; () banked
  8601  002708  6FBA               	movwf	_keyboard& (0+255),b
  8602  00270A  0E00               	movlw	0
  8603  00270C  6FBB               	movwf	(_keyboard+1)& (0+255),b
  8604                           
  8605                           ;device_keyboard.c: 315:     ep2_handle = 0;
  8606  00270E  0E00               	movlw	0
  8607  002710  6FCF               	movwf	_ep2_handle& (0+255),b
  8608  002712  0E00               	movlw	0
  8609  002714  6FD0               	movwf	(_ep2_handle+1)& (0+255),b
  8610                           
  8611                           ; BSR set to: 0
  8612                           ;device_keyboard.c: 319:     keyboardIdleRate = 500;
  8613  002716  0E01               	movlw	1
  8614  002718  6FD4               	movwf	(_keyboardIdleRate+1)& (0+255),b
  8615  00271A  0EF4               	movlw	244
  8616  00271C  6FD3               	movwf	_keyboardIdleRate& (0+255),b
  8617                           
  8618                           ;device_keyboard.c: 324:     while(OldSOFCount != SOFCounter)
  8619  00271E  D004               	goto	i2l3847
  8620  002720                     i2l589:
  8621                           
  8622                           ;device_keyboard.c: 325:     {;device_keyboard.c: 326:         OldSOFCount = SOFCounter;
  8623  002720  C00C  F00A         	movff	_SOFCounter,_OldSOFCount	;volatile
  8624  002724  C00D  F00B         	movff	_SOFCounter+1,_OldSOFCount+1	;volatile
  8625  002728                     i2l3847:
  8626                           
  8627                           ;device_keyboard.c: 324:     while(OldSOFCount != SOFCounter)
  8628  002728  500C               	movf	_SOFCounter,w,c	;volatile
  8629  00272A  180A               	xorwf	_OldSOFCount,w,c
  8630  00272C  E1F9               	bnz	i2l589
  8631  00272E  500D               	movf	_SOFCounter+1,w,c	;volatile
  8632  002730  180B               	xorwf	_OldSOFCount+1,w,c
  8633  002732  A4D8               	btfss	status,2,c
  8634  002734  D7F5               	goto	i2l589
  8635                           
  8636                           ;device_keyboard.c: 330:     USBEnableEndpoint(1, 0x02|0x04|0x10|0x08);
  8637  002736  0E1E               	movlw	30
  8638  002738  6E34               	movwf	USBEnableEndpoint@options,c
  8639  00273A  0E01               	movlw	1
  8640  00273C  ECE6  F015         	call	_USBEnableEndpoint
  8641                           
  8642                           ;device_keyboard.c: 331:     USBEnableEndpoint(2, 0x02|0x04|0x10|0x08);
  8643  002740  0E1E               	movlw	30
  8644  002742  6E34               	movwf	USBEnableEndpoint@options,c
  8645  002744  0E02               	movlw	2
  8646  002746  ECE6  F015         	call	_USBEnableEndpoint
  8647                           
  8648                           ;device_keyboard.c: 334:     keyboard.lastOUTTransmission = USBTransferOnePacket(1,0,(ui
      +                          nt8_t*)&outputReport,sizeof(outputReport));
  8649  00274A  0E00               	movlw	0
  8650  00274C  6E2C               	movwf	i2USBTransferOnePacket@dir,c
  8651  00274E  0E08               	movlw	8
  8652  002750  6E2D               	movwf	i2USBTransferOnePacket@data,c
  8653  002752  0E05               	movlw	5
  8654  002754  6E2E               	movwf	i2USBTransferOnePacket@data+1,c
  8655  002756  0E01               	movlw	1
  8656  002758  6E2F               	movwf	i2USBTransferOnePacket@len,c
  8657  00275A  0E01               	movlw	1
  8658  00275C  EC14  F00E         	call	i2_USBTransferOnePacket
  8659  002760  C02C  F0BC         	movff	?i2_USBTransferOnePacket,_keyboard+2
  8660  002764  C02D  F0BD         	movff	?i2_USBTransferOnePacket+1,_keyboard+3
  8661                           
  8662                           ;device_keyboard.c: 335:     ep2_out_handle = USBTransferOnePacket(2,0,(uint8_t*)&e2outR
      +                          eport,sizeof(e2outReport));
  8663  002768  0E00               	movlw	0
  8664  00276A  6E2C               	movwf	i2USBTransferOnePacket@dir,c
  8665  00276C  0E18               	movlw	24
  8666  00276E  6E2D               	movwf	i2USBTransferOnePacket@data,c
  8667  002770  0E05               	movlw	5
  8668  002772  6E2E               	movwf	i2USBTransferOnePacket@data+1,c
  8669  002774  0E08               	movlw	8
  8670  002776  6E2F               	movwf	i2USBTransferOnePacket@len,c
  8671  002778  0E02               	movlw	2
  8672  00277A  EC14  F00E         	call	i2_USBTransferOnePacket
  8673  00277E  C02C  F0CD         	movff	?i2_USBTransferOnePacket,_ep2_out_handle
  8674  002782  C02D  F0CE         	movff	?i2_USBTransferOnePacket+1,_ep2_out_handle+1
  8675  002786  0012               	return		;funcret
  8676  002788                     __end_of_APP_KeyboardInit:
  8677                           	opt callstack 0
  8678                           
  8679 ;; *************** function i2_USBTransferOnePacket *****************
  8680 ;; Defined at:
  8681 ;;		line 999 in file "usb/usb_device.c"
  8682 ;; Parameters:    Size  Location     Type
  8683 ;;  ep              1    wreg     unsigned char 
  8684 ;;  dir             1    0[COMRAM] unsigned char 
  8685 ;;  data            2    1[COMRAM] PTR unsigned char 
  8686 ;;		 -> e2Report(8), inputReport(8), e2outReport(8), outputReport(1), 
  8687 ;;  len             1    3[COMRAM] unsigned char 
  8688 ;; Auto vars:     Size  Location     Type
  8689 ;;  ep              1    8[COMRAM] unsigned char 
  8690 ;;  USBTransferO    2    9[COMRAM] PTR volatile struct __BD
  8691 ;;		 -> RAM(2047), NULL(0), BDT(48), 
  8692 ;; Return value:  Size  Location     Type
  8693 ;;                  2    0[COMRAM] PTR void 
  8694 ;; Registers used:
  8695 ;;		wreg, fsr2l, fsr2h, status,2, status,0, prodl, prodh
  8696 ;; Tracked objects:
  8697 ;;		On entry : 0/0
  8698 ;;		On exit  : 0/0
  8699 ;;		Unchanged: 0/0
  8700 ;; Data sizes:     COMRAM   BANK0   BANK1   BANK2   BANK3   BANK4  BANK5h  BANK5l   BANK6   BANK7
  8701 ;;      Params:         4       0       0       0       0       0       0       0       0       0
  8702 ;;      Locals:         3       0       0       0       0       0       0       0       0       0
  8703 ;;      Temps:          4       0       0       0       0       0       0       0       0       0
  8704 ;;      Totals:        11       0       0       0       0       0       0       0       0       0
  8705 ;;Total ram usage:       11 bytes
  8706 ;; Hardware stack levels used:    1
  8707 ;; This function calls:
  8708 ;;		Nothing
  8709 ;; This function is called by:
  8710 ;;		_APP_KeyboardInit
  8711 ;; This function uses a non-reentrant model
  8712 ;;
  8713                           
  8714                           	psect	text43
  8715  001C28                     __ptext43:
  8716                           	opt callstack 0
  8717  001C28                     i2_USBTransferOnePacket:
  8718                           	opt callstack 22
  8719                           
  8720                           ;incstack = 0
  8721                           ;i2USBTransferOnePacket@ep stored from wreg
  8722  001C28  6E34               	movwf	i2USBTransferOnePacket@ep,c
  8723                           
  8724                           ;usb/usb_device.c: 999: void* USBTransferOnePacket(uint8_t ep,uint8_t dir,uint8_t* data,
      +                          uint8_t len);usb/usb_device.c: 1000: {;usb/usb_device.c: 1001:     volatile BDT_ENTRY* h
      +                          andle;;usb/usb_device.c: 1004:     if(dir != 0)
  8725  001C2A  502C               	movf	i2USBTransferOnePacket@dir,w,c
  8726  001C2C  B4D8               	btfsc	status,2,c
  8727  001C2E  D007               	goto	i2l3689
  8728                           
  8729                           ;usb/usb_device.c: 1005:     {;usb/usb_device.c: 1007:         handle = pBDTEntryIn[ep];
  8730  001C30  5034               	movf	i2USBTransferOnePacket@ep,w,c
  8731  001C32  0D02               	mullw	2
  8732  001C34  0EAE               	movlw	low _pBDTEntryIn
  8733  001C36  24F3               	addwf	prodl,w,c
  8734  001C38  6ED9               	movwf	fsr2l,c
  8735  001C3A  0E00               	movlw	high _pBDTEntryIn
  8736  001C3C  D006               	goto	L12
  8737  001C3E                     i2l3689:
  8738                           
  8739                           ;usb/usb_device.c: 1010:     {;usb/usb_device.c: 1012:         handle = pBDTEntryOut[ep]
      +                          ;
  8740  001C3E  5034               	movf	i2USBTransferOnePacket@ep,w,c
  8741  001C40  0D02               	mullw	2
  8742  001C42  0EB4               	movlw	low _pBDTEntryOut
  8743  001C44  24F3               	addwf	prodl,w,c
  8744  001C46  6ED9               	movwf	fsr2l,c
  8745  001C48  0E00               	movlw	high _pBDTEntryOut
  8746  001C4A                     L12:
  8747  001C4A  20F4               	addwfc	prodh,w,c
  8748  001C4C  6EDA               	movwf	fsr2h,c
  8749  001C4E  CFDE F035          	movff	postinc2,i2USBTransferOnePacket@handle
  8750  001C52  CFDD F036          	movff	postdec2,i2USBTransferOnePacket@handle+1
  8751                           
  8752                           ;usb/usb_device.c: 1017:     if(handle == 0)
  8753  001C56  5035               	movf	i2USBTransferOnePacket@handle,w,c
  8754  001C58  1036               	iorwf	i2USBTransferOnePacket@handle+1,w,c
  8755  001C5A  A4D8               	btfss	status,2,c
  8756  001C5C  D005               	goto	i2l3697
  8757                           
  8758                           ;usb/usb_device.c: 1018:     {;usb/usb_device.c: 1019:         return 0;
  8759  001C5E  0E00               	movlw	0
  8760  001C60  6E2C               	movwf	?i2_USBTransferOnePacket,c
  8761  001C62  0E00               	movlw	0
  8762  001C64  6E2D               	movwf	?i2_USBTransferOnePacket+1,c
  8763  001C66  0012               	return	
  8764  001C68                     i2l3697:
  8765                           
  8766                           ;usb/usb_device.c: 1033:     handle->ADR = ((uint16_t)(data));
  8767  001C68  EE20 F002          	lfsr	2,2
  8768  001C6C  5035               	movf	i2USBTransferOnePacket@handle,w,c
  8769  001C6E  26D9               	addwf	fsr2l,f,c
  8770  001C70  5036               	movf	i2USBTransferOnePacket@handle+1,w,c
  8771  001C72  22DA               	addwfc	fsr2h,f,c
  8772  001C74  C02D  FFDE         	movff	i2USBTransferOnePacket@data,postinc2
  8773  001C78  C02E  FFDD         	movff	i2USBTransferOnePacket@data+1,postdec2
  8774                           
  8775                           ;usb/usb_device.c: 1034:     handle->CNT = len;
  8776  001C7C  EE20 F001          	lfsr	2,1
  8777  001C80  5035               	movf	i2USBTransferOnePacket@handle,w,c
  8778  001C82  26D9               	addwf	fsr2l,f,c
  8779  001C84  5036               	movf	i2USBTransferOnePacket@handle+1,w,c
  8780  001C86  22DA               	addwfc	fsr2h,f,c
  8781  001C88  C02F  FFDF         	movff	i2USBTransferOnePacket@len,indf2
  8782                           
  8783                           ;usb/usb_device.c: 1035:     handle->STAT.Val &= 0x40;
  8784  001C8C  C035  FFD9         	movff	i2USBTransferOnePacket@handle,fsr2l
  8785  001C90  C036  FFDA         	movff	i2USBTransferOnePacket@handle+1,fsr2h
  8786  001C94  0E40               	movlw	64
  8787  001C96  16DF               	andwf	indf2,f,c
  8788                           
  8789                           ;usb/usb_device.c: 1036:     handle->STAT.Val |= (0x08 & 0x08);
  8790  001C98  C035  FFD9         	movff	i2USBTransferOnePacket@handle,fsr2l
  8791  001C9C  C036  FFDA         	movff	i2USBTransferOnePacket@handle+1,fsr2h
  8792  001CA0  0E00               	movlw	0
  8793  001CA2  86DB               	bsf	plusw2,3,c
  8794                           
  8795                           ;usb/usb_device.c: 1037:     handle->STAT.Val |= 0x80;
  8796  001CA4  C035  FFD9         	movff	i2USBTransferOnePacket@handle,fsr2l
  8797  001CA8  C036  FFDA         	movff	i2USBTransferOnePacket@handle+1,fsr2h
  8798  001CAC  0E00               	movlw	0
  8799  001CAE  8EDB               	bsf	plusw2,7,c
  8800                           
  8801                           ;usb/usb_device.c: 1040:     if(dir != 0)
  8802  001CB0  502C               	movf	i2USBTransferOnePacket@dir,w,c
  8803  001CB2  B4D8               	btfsc	status,2,c
  8804  001CB4  D018               	goto	i2l3709
  8805                           
  8806                           ;usb/usb_device.c: 1041:     {;usb/usb_device.c: 1043:         pBDTEntryIn[ep] = (BDT_EN
      +                          TRY*)(((uint16_t)pBDTEntryIn[ep]) ^ 0x0004);
  8807  001CB6  5034               	movf	i2USBTransferOnePacket@ep,w,c
  8808  001CB8  0D02               	mullw	2
  8809  001CBA  0EAE               	movlw	low _pBDTEntryIn
  8810  001CBC  24F3               	addwf	prodl,w,c
  8811  001CBE  6ED9               	movwf	fsr2l,c
  8812  001CC0  0E00               	movlw	high _pBDTEntryIn
  8813  001CC2  20F4               	addwfc	prodh,w,c
  8814  001CC4  6EDA               	movwf	fsr2h,c
  8815  001CC6  CFDE F030          	movff	postinc2,??i2_USBTransferOnePacket
  8816  001CCA  CFDD F031          	movff	postdec2,??i2_USBTransferOnePacket+1
  8817  001CCE  0E04               	movlw	4
  8818  001CD0  1830               	xorwf	??i2_USBTransferOnePacket,w,c
  8819  001CD2  6E32               	movwf	(??i2_USBTransferOnePacket+2)& (0+255),c
  8820  001CD4  5031               	movf	??i2_USBTransferOnePacket+1,w,c
  8821  001CD6  6E33               	movwf	(??i2_USBTransferOnePacket+3)& (0+255),c
  8822  001CD8  5034               	movf	i2USBTransferOnePacket@ep,w,c
  8823  001CDA  0D02               	mullw	2
  8824  001CDC  0EAE               	movlw	low _pBDTEntryIn
  8825  001CDE  24F3               	addwf	prodl,w,c
  8826  001CE0  6ED9               	movwf	fsr2l,c
  8827  001CE2  0E00               	movlw	high _pBDTEntryIn
  8828  001CE4  D017               	goto	L13
  8829  001CE6                     i2l3709:
  8830                           
  8831                           ;usb/usb_device.c: 1046:     {;usb/usb_device.c: 1048:         pBDTEntryOut[ep] = (BDT_E
      +                          NTRY*)(((uint16_t)pBDTEntryOut[ep]) ^ 0x0004);
  8832  001CE6  5034               	movf	i2USBTransferOnePacket@ep,w,c
  8833  001CE8  0D02               	mullw	2
  8834  001CEA  0EB4               	movlw	low _pBDTEntryOut
  8835  001CEC  24F3               	addwf	prodl,w,c
  8836  001CEE  6ED9               	movwf	fsr2l,c
  8837  001CF0  0E00               	movlw	high _pBDTEntryOut
  8838  001CF2  20F4               	addwfc	prodh,w,c
  8839  001CF4  6EDA               	movwf	fsr2h,c
  8840  001CF6  CFDE F030          	movff	postinc2,??i2_USBTransferOnePacket
  8841  001CFA  CFDD F031          	movff	postdec2,??i2_USBTransferOnePacket+1
  8842  001CFE  0E04               	movlw	4
  8843  001D00  1830               	xorwf	??i2_USBTransferOnePacket,w,c
  8844  001D02  6E32               	movwf	(??i2_USBTransferOnePacket+2)& (0+255),c
  8845  001D04  5031               	movf	??i2_USBTransferOnePacket+1,w,c
  8846  001D06  6E33               	movwf	(??i2_USBTransferOnePacket+3)& (0+255),c
  8847  001D08  5034               	movf	i2USBTransferOnePacket@ep,w,c
  8848  001D0A  0D02               	mullw	2
  8849  001D0C  0EB4               	movlw	low _pBDTEntryOut
  8850  001D0E  24F3               	addwf	prodl,w,c
  8851  001D10  6ED9               	movwf	fsr2l,c
  8852  001D12  0E00               	movlw	high _pBDTEntryOut
  8853  001D14                     L13:
  8854  001D14  20F4               	addwfc	prodh,w,c
  8855  001D16  6EDA               	movwf	fsr2h,c
  8856  001D18  C032  FFDE         	movff	??i2_USBTransferOnePacket+2,postinc2
  8857  001D1C  C033  FFDD         	movff	??i2_USBTransferOnePacket+3,postdec2
  8858                           
  8859                           ;usb/usb_device.c: 1050:     return (void*)handle;
  8860  001D20  C035  F02C         	movff	i2USBTransferOnePacket@handle,?i2_USBTransferOnePacket
  8861  001D24  C036  F02D         	movff	i2USBTransferOnePacket@handle+1,?i2_USBTransferOnePacket+1
  8862  001D28  0012               	return		;funcret
  8863  001D2A                     __end_ofi2_USBTransferOnePacket:
  8864                           	opt callstack 0
  8865                           
  8866 ;; *************** function _USBEnableEndpoint *****************
  8867 ;; Defined at:
  8868 ;;		line 882 in file "usb/usb_device.c"
  8869 ;; Parameters:    Size  Location     Type
  8870 ;;  ep              1    wreg     unsigned char 
  8871 ;;  options         1    8[COMRAM] unsigned char 
  8872 ;; Auto vars:     Size  Location     Type
  8873 ;;  ep              1   11[COMRAM] unsigned char 
  8874 ;;  p               2    9[COMRAM] PTR unsigned char 
  8875 ;;		 -> UEP0(1), 
  8876 ;; Return value:  Size  Location     Type
  8877 ;;                  1    wreg      void 
  8878 ;; Registers used:
  8879 ;;		wreg, fsr2l, fsr2h, status,2, status,0, prodl, prodh, cstack
  8880 ;; Tracked objects:
  8881 ;;		On entry : 0/0
  8882 ;;		On exit  : 0/0
  8883 ;;		Unchanged: 0/0
  8884 ;; Data sizes:     COMRAM   BANK0   BANK1   BANK2   BANK3   BANK4  BANK5h  BANK5l   BANK6   BANK7
  8885 ;;      Params:         1       0       0       0       0       0       0       0       0       0
  8886 ;;      Locals:         3       0       0       0       0       0       0       0       0       0
  8887 ;;      Temps:          0       0       0       0       0       0       0       0       0       0
  8888 ;;      Totals:         4       0       0       0       0       0       0       0       0       0
  8889 ;;Total ram usage:        4 bytes
  8890 ;; Hardware stack levels used:    1
  8891 ;; Hardware stack levels required when called:    1
  8892 ;; This function calls:
  8893 ;;		_USBConfigureEndpoint
  8894 ;; This function is called by:
  8895 ;;		_APP_KeyboardInit
  8896 ;; This function uses a non-reentrant model
  8897 ;;
  8898                           
  8899                           	psect	text44
  8900  002BCC                     __ptext44:
  8901                           	opt callstack 0
  8902  002BCC                     _USBEnableEndpoint:
  8903                           	opt callstack 21
  8904                           
  8905                           ;incstack = 0
  8906                           ;USBEnableEndpoint@ep stored from wreg
  8907  002BCC  6E37               	movwf	USBEnableEndpoint@ep,c
  8908                           
  8909                           ;usb/usb_device.c: 882: void USBEnableEndpoint(uint8_t ep, uint8_t options);usb/usb_devi
      +                          ce.c: 883: {;usb/usb_device.c: 884:     unsigned char* p;;usb/usb_device.c: 888:     if(
      +                          options & 0x04)
  8910  002BCE  A434               	btfss	USBEnableEndpoint@options,2,c
  8911  002BD0  D005               	goto	i2l3665
  8912                           
  8913                           ;usb/usb_device.c: 889:     {;usb/usb_device.c: 890:         USBConfigureEndpoint(ep, 0)
      +                          ;
  8914  002BD2  0E00               	movlw	0
  8915  002BD4  6E2C               	movwf	USBConfigureEndpoint@direction,c
  8916  002BD6  5037               	movf	USBEnableEndpoint@ep,w,c
  8917  002BD8  ECAE  F012         	call	_USBConfigureEndpoint
  8918  002BDC                     i2l3665:
  8919                           
  8920                           ;usb/usb_device.c: 892:     if(options & 0x02)
  8921  002BDC  A234               	btfss	USBEnableEndpoint@options,1,c
  8922  002BDE  D005               	goto	i2l3669
  8923                           
  8924                           ;usb/usb_device.c: 893:     {;usb/usb_device.c: 894:         USBConfigureEndpoint(ep, 1)
      +                          ;
  8925  002BE0  0E01               	movlw	1
  8926  002BE2  6E2C               	movwf	USBConfigureEndpoint@direction,c
  8927  002BE4  5037               	movf	USBEnableEndpoint@ep,w,c
  8928  002BE6  ECAE  F012         	call	_USBConfigureEndpoint
  8929  002BEA                     i2l3669:
  8930                           
  8931                           ;usb/usb_device.c: 903:         p = (unsigned char*)(&UEP0+ep);
  8932  002BEA  0E6A               	movlw	106
  8933  002BEC  2437               	addwf	USBEnableEndpoint@ep,w,c
  8934  002BEE  6E35               	movwf	USBEnableEndpoint@p,c
  8935  002BF0  6A36               	clrf	USBEnableEndpoint@p+1,c
  8936  002BF2  0E0F               	movlw	15
  8937  002BF4  2236               	addwfc	USBEnableEndpoint@p+1,f,c
  8938                           
  8939                           ;usb/usb_device.c: 905:     *p = options;
  8940  002BF6  C035  FFD9         	movff	USBEnableEndpoint@p,fsr2l
  8941  002BFA  C036  FFDA         	movff	USBEnableEndpoint@p+1,fsr2h
  8942  002BFE  C034  FFDF         	movff	USBEnableEndpoint@options,indf2
  8943  002C02  0012               	return		;funcret
  8944  002C04                     __end_of_USBEnableEndpoint:
  8945                           	opt callstack 0
  8946                           
  8947 ;; *************** function _USBConfigureEndpoint *****************
  8948 ;; Defined at:
  8949 ;;		line 1547 in file "usb/usb_device.c"
  8950 ;; Parameters:    Size  Location     Type
  8951 ;;  EPNum           1    wreg     unsigned char 
  8952 ;;  direction       1    0[COMRAM] unsigned char 
  8953 ;; Auto vars:     Size  Location     Type
  8954 ;;  EPNum           1    5[COMRAM] unsigned char 
  8955 ;;  handle          2    6[COMRAM] PTR volatile struct __BD
  8956 ;;		 -> BDT(48), 
  8957 ;; Return value:  Size  Location     Type
  8958 ;;                  1    wreg      void 
  8959 ;; Registers used:
  8960 ;;		wreg, fsr2l, fsr2h, status,2, status,0, prodl, prodh
  8961 ;; Tracked objects:
  8962 ;;		On entry : 0/0
  8963 ;;		On exit  : 0/0
  8964 ;;		Unchanged: 0/0
  8965 ;; Data sizes:     COMRAM   BANK0   BANK1   BANK2   BANK3   BANK4  BANK5h  BANK5l   BANK6   BANK7
  8966 ;;      Params:         1       0       0       0       0       0       0       0       0       0
  8967 ;;      Locals:         3       0       0       0       0       0       0       0       0       0
  8968 ;;      Temps:          4       0       0       0       0       0       0       0       0       0
  8969 ;;      Totals:         8       0       0       0       0       0       0       0       0       0
  8970 ;;Total ram usage:        8 bytes
  8971 ;; Hardware stack levels used:    1
  8972 ;; This function calls:
  8973 ;;		Nothing
  8974 ;; This function is called by:
  8975 ;;		_USBEnableEndpoint
  8976 ;; This function uses a non-reentrant model
  8977 ;;
  8978                           
  8979                           	psect	text45
  8980  00255C                     __ptext45:
  8981                           	opt callstack 0
  8982  00255C                     _USBConfigureEndpoint:
  8983                           	opt callstack 21
  8984                           
  8985                           ;incstack = 0
  8986                           ;USBConfigureEndpoint@EPNum stored from wreg
  8987  00255C  6E31               	movwf	USBConfigureEndpoint@EPNum,c
  8988                           
  8989                           ;usb/usb_device.c: 1547: static void USBConfigureEndpoint(uint8_t EPNum, uint8_t directi
      +                          on);usb/usb_device.c: 1548: {;usb/usb_device.c: 1549:     volatile BDT_ENTRY* handle;;us
      +                          b/usb_device.c: 1553:     handle = (volatile BDT_ENTRY*)&BDT[0];
  8990  00255E  0E00               	movlw	0
  8991  002560  6E32               	movwf	USBConfigureEndpoint@handle,c
  8992  002562  0E04               	movlw	4
  8993  002564  6E33               	movwf	USBConfigureEndpoint@handle+1,c
  8994                           
  8995                           ;usb/usb_device.c: 1554:     handle += (4*EPNum+2*direction+0u);
  8996  002566  502C               	movf	USBConfigureEndpoint@direction,w,c
  8997  002568  6E2D               	movwf	??_USBConfigureEndpoint& (0+255),c
  8998  00256A  6A2E               	clrf	(??_USBConfigureEndpoint+1)& (0+255),c
  8999  00256C  90D8               	bcf	status,0,c
  9000  00256E  362D               	rlcf	??_USBConfigureEndpoint,f,c
  9001  002570  362E               	rlcf	??_USBConfigureEndpoint+1,f,c
  9002  002572  5031               	movf	USBConfigureEndpoint@EPNum,w,c
  9003  002574  6E2F               	movwf	(??_USBConfigureEndpoint+2)& (0+255),c
  9004  002576  6A30               	clrf	(??_USBConfigureEndpoint+3)& (0+255),c
  9005  002578  90D8               	bcf	status,0,c
  9006  00257A  362F               	rlcf	??_USBConfigureEndpoint+2,f,c
  9007  00257C  3630               	rlcf	??_USBConfigureEndpoint+3,f,c
  9008  00257E  90D8               	bcf	status,0,c
  9009  002580  362F               	rlcf	??_USBConfigureEndpoint+2,f,c
  9010  002582  3630               	rlcf	??_USBConfigureEndpoint+3,f,c
  9011  002584  502D               	movf	??_USBConfigureEndpoint,w,c
  9012  002586  262F               	addwf	??_USBConfigureEndpoint+2,f,c
  9013  002588  502E               	movf	??_USBConfigureEndpoint+1,w,c
  9014  00258A  2230               	addwfc	??_USBConfigureEndpoint+3,f,c
  9015  00258C  90D8               	bcf	status,0,c
  9016  00258E  362F               	rlcf	??_USBConfigureEndpoint+2,f,c
  9017  002590  3630               	rlcf	??_USBConfigureEndpoint+3,f,c
  9018  002592  90D8               	bcf	status,0,c
  9019  002594  362F               	rlcf	??_USBConfigureEndpoint+2,f,c
  9020  002596  3630               	rlcf	??_USBConfigureEndpoint+3,f,c
  9021  002598  502F               	movf	??_USBConfigureEndpoint+2,w,c
  9022  00259A  2632               	addwf	USBConfigureEndpoint@handle,f,c
  9023  00259C  5030               	movf	??_USBConfigureEndpoint+3,w,c
  9024  00259E  2233               	addwfc	USBConfigureEndpoint@handle+1,f,c
  9025                           
  9026                           ;usb/usb_device.c: 1556:     handle->STAT.UOWN = 0;
  9027  0025A0  C032  FFD9         	movff	USBConfigureEndpoint@handle,fsr2l
  9028  0025A4  C033  FFDA         	movff	USBConfigureEndpoint@handle+1,fsr2h
  9029  0025A8  9EDF               	bcf	indf2,7,c
  9030                           
  9031                           ;usb/usb_device.c: 1561:     if(direction == 0)
  9032  0025AA  502C               	movf	USBConfigureEndpoint@direction,w,c
  9033  0025AC  A4D8               	btfss	status,2,c
  9034  0025AE  D007               	goto	i2l3655
  9035                           
  9036                           ;usb/usb_device.c: 1562:     {;usb/usb_device.c: 1563:         pBDTEntryOut[EPNum] = han
      +                          dle;
  9037  0025B0  5031               	movf	USBConfigureEndpoint@EPNum,w,c
  9038  0025B2  0D02               	mullw	2
  9039  0025B4  0EB4               	movlw	low _pBDTEntryOut
  9040  0025B6  24F3               	addwf	prodl,w,c
  9041  0025B8  6ED9               	movwf	fsr2l,c
  9042  0025BA  0E00               	movlw	high _pBDTEntryOut
  9043  0025BC  D006               	goto	L14
  9044  0025BE                     i2l3655:
  9045                           
  9046                           ;usb/usb_device.c: 1566:     {;usb/usb_device.c: 1567:         pBDTEntryIn[EPNum] = hand
      +                          le;
  9047  0025BE  5031               	movf	USBConfigureEndpoint@EPNum,w,c
  9048  0025C0  0D02               	mullw	2
  9049  0025C2  0EAE               	movlw	low _pBDTEntryIn
  9050  0025C4  24F3               	addwf	prodl,w,c
  9051  0025C6  6ED9               	movwf	fsr2l,c
  9052  0025C8  0E00               	movlw	high _pBDTEntryIn
  9053  0025CA                     L14:
  9054  0025CA  20F4               	addwfc	prodh,w,c
  9055  0025CC  6EDA               	movwf	fsr2h,c
  9056  0025CE  C032  FFDE         	movff	USBConfigureEndpoint@handle,postinc2
  9057  0025D2  C033  FFDD         	movff	USBConfigureEndpoint@handle+1,postdec2
  9058                           
  9059                           ;usb/usb_device.c: 1571:         handle->STAT.DTS = 0;
  9060  0025D6  C032  FFD9         	movff	USBConfigureEndpoint@handle,fsr2l
  9061  0025DA  C033  FFDA         	movff	USBConfigureEndpoint@handle+1,fsr2h
  9062  0025DE  9CDF               	bcf	indf2,6,c
  9063                           
  9064                           ;usb/usb_device.c: 1572:         (handle+1)->STAT.DTS = 1;
  9065  0025E0  EE20 F004          	lfsr	2,4
  9066  0025E4  5032               	movf	USBConfigureEndpoint@handle,w,c
  9067  0025E6  26D9               	addwf	fsr2l,f,c
  9068  0025E8  5033               	movf	USBConfigureEndpoint@handle+1,w,c
  9069  0025EA  22DA               	addwfc	fsr2h,f,c
  9070  0025EC  8CDF               	bsf	indf2,6,c
  9071  0025EE  0012               	return		;funcret
  9072  0025F0                     __end_of_USBConfigureEndpoint:
  9073                           	opt callstack 0
  9074                           
  9075 ;; *************** function _USBCtrlTrfOutHandler *****************
  9076 ;; Defined at:
  9077 ;;		line 2545 in file "usb/usb_device.c"
  9078 ;; Parameters:    Size  Location     Type
  9079 ;;		None
  9080 ;; Auto vars:     Size  Location     Type
  9081 ;;		None
  9082 ;; Return value:  Size  Location     Type
  9083 ;;                  1    wreg      void 
  9084 ;; Registers used:
  9085 ;;		wreg, fsr1l, fsr1h, fsr2l, fsr2h, status,2, status,0, pclath, tosl, cstack
  9086 ;; Tracked objects:
  9087 ;;		On entry : 0/0
  9088 ;;		On exit  : 0/0
  9089 ;;		Unchanged: 0/0
  9090 ;; Data sizes:     COMRAM   BANK0   BANK1   BANK2   BANK3   BANK4  BANK5h  BANK5l   BANK6   BANK7
  9091 ;;      Params:         0       0       0       0       0       0       0       0       0       0
  9092 ;;      Locals:         0       0       0       0       0       0       0       0       0       0
  9093 ;;      Temps:          0       0       0       0       0       0       0       0       0       0
  9094 ;;      Totals:         0       0       0       0       0       0       0       0       0       0
  9095 ;;Total ram usage:        0 bytes
  9096 ;; Hardware stack levels used:    1
  9097 ;; Hardware stack levels required when called:    4
  9098 ;; This function calls:
  9099 ;;		_USBCtrlTrfRxService
  9100 ;; This function is called by:
  9101 ;;		_USBCtrlEPService
  9102 ;; This function uses a non-reentrant model
  9103 ;;
  9104                           
  9105                           	psect	text46
  9106  0027F4                     __ptext46:
  9107                           	opt callstack 0
  9108  0027F4                     _USBCtrlTrfOutHandler:
  9109                           	opt callstack 19
  9110                           
  9111                           ;usb/usb_device.c: 2547:     if(controlTransferState == 2)
  9112                           
  9113                           ;incstack = 0
  9114  0027F4  0E02               	movlw	2
  9115  0027F6  1823               	xorwf	_controlTransferState,w,c	;volatile
  9116  0027F8  A4D8               	btfss	status,2,c
  9117  0027FA  D003               	goto	i2l4461
  9118                           
  9119                           ;usb/usb_device.c: 2548:     {;usb/usb_device.c: 2549:         USBCtrlTrfRxService();
  9120  0027FC  EC28  F00A         	call	_USBCtrlTrfRxService	;wreg free
  9121                           
  9122                           ;usb/usb_device.c: 2550:     }
  9123  002800  0012               	return	
  9124  002802                     i2l4461:
  9125                           
  9126                           ;usb/usb_device.c: 2552:     {;usb/usb_device.c: 2555:         controlTransferState = 0;
  9127  002802  0E00               	movlw	0
  9128  002804  6E23               	movwf	_controlTransferState,c	;volatile
  9129                           
  9130                           ;usb/usb_device.c: 2562:         if(BothEP0OutUOWNsSet == 0)
  9131  002806  501F               	movf	_BothEP0OutUOWNsSet,w,c	;volatile
  9132  002808  A4D8               	btfss	status,2,c
  9133  00280A  D01F               	goto	i2l4469
  9134                           
  9135                           ;usb/usb_device.c: 2563:         {;usb/usb_device.c: 2564:             pBDTEntryEP0OutNe
      +                          xt->CNT = 8;
  9136  00280C  EE20 F001          	lfsr	2,1
  9137  002810  5010               	movf	_pBDTEntryEP0OutNext,w,c
  9138  002812  26D9               	addwf	fsr2l,f,c
  9139  002814  5011               	movf	_pBDTEntryEP0OutNext+1,w,c
  9140  002816  22DA               	addwfc	fsr2h,f,c
  9141  002818  0E08               	movlw	8
  9142  00281A  6EDF               	movwf	indf2,c
  9143                           
  9144                           ;usb/usb_device.c: 2565:             pBDTEntryEP0OutNext->ADR = ((uint16_t)(&SetupPkt));
  9145  00281C  EE20 F002          	lfsr	2,2
  9146  002820  5010               	movf	_pBDTEntryEP0OutNext,w,c
  9147  002822  26D9               	addwf	fsr2l,f,c
  9148  002824  5011               	movf	_pBDTEntryEP0OutNext+1,w,c
  9149  002826  22DA               	addwfc	fsr2h,f,c
  9150  002828  0E30               	movlw	48
  9151  00282A  6EDE               	movwf	postinc2,c
  9152  00282C  0E04               	movlw	4
  9153  00282E  6EDD               	movwf	postdec2,c
  9154                           
  9155                           ;usb/usb_device.c: 2566:             pBDTEntryEP0OutNext->STAT.Val = 0x00|(0x08 & 0x08)|
      +                          0x04;
  9156  002830  C010  FFD9         	movff	_pBDTEntryEP0OutNext,fsr2l
  9157  002834  C011  FFDA         	movff	_pBDTEntryEP0OutNext+1,fsr2h
  9158  002838  0E0C               	movlw	12
  9159  00283A  6EDF               	movwf	indf2,c
  9160                           
  9161                           ;usb/usb_device.c: 2567:             pBDTEntryEP0OutNext->STAT.Val |= 0x80;
  9162  00283C  C010  FFD9         	movff	_pBDTEntryEP0OutNext,fsr2l
  9163  002840  C011  FFDA         	movff	_pBDTEntryEP0OutNext+1,fsr2h
  9164  002844  0E00               	movlw	0
  9165  002846  8EDB               	bsf	plusw2,7,c
  9166                           
  9167                           ;usb/usb_device.c: 2568:         }
  9168  002848  0012               	return	
  9169  00284A                     i2l4469:
  9170                           
  9171                           ;usb/usb_device.c: 2570:         {;usb/usb_device.c: 2571:             BothEP0OutUOWNsSe
      +                          t = 0;
  9172  00284A  0E00               	movlw	0
  9173  00284C  6E1F               	movwf	_BothEP0OutUOWNsSet,c	;volatile
  9174  00284E  0012               	return		;funcret
  9175  002850                     __end_of_USBCtrlTrfOutHandler:
  9176                           	opt callstack 0
  9177                           
  9178 ;; *************** function _USBCtrlTrfRxService *****************
  9179 ;; Defined at:
  9180 ;;		line 1856 in file "usb/usb_device.c"
  9181 ;; Parameters:    Size  Location     Type
  9182 ;;		None
  9183 ;; Auto vars:     Size  Location     Type
  9184 ;;  byteToRead      1    4[COMRAM] unsigned char 
  9185 ;;  i               1    3[COMRAM] unsigned char 
  9186 ;; Return value:  Size  Location     Type
  9187 ;;                  1    wreg      void 
  9188 ;; Registers used:
  9189 ;;		wreg, fsr1l, fsr1h, fsr2l, fsr2h, status,2, status,0, pclath, tosl, cstack
  9190 ;; Tracked objects:
  9191 ;;		On entry : 0/0
  9192 ;;		On exit  : 0/0
  9193 ;;		Unchanged: 0/0
  9194 ;; Data sizes:     COMRAM   BANK0   BANK1   BANK2   BANK3   BANK4  BANK5h  BANK5l   BANK6   BANK7
  9195 ;;      Params:         0       0       0       0       0       0       0       0       0       0
  9196 ;;      Locals:         2       0       0       0       0       0       0       0       0       0
  9197 ;;      Temps:          0       0       0       0       0       0       0       0       0       0
  9198 ;;      Totals:         2       0       0       0       0       0       0       0       0       0
  9199 ;;Total ram usage:        2 bytes
  9200 ;; Hardware stack levels used:    1
  9201 ;; Hardware stack levels required when called:    3
  9202 ;; This function calls:
  9203 ;;		_USBCtrlEPAllowStatusStage
  9204 ;;		_USBHIDCBSetReportComplete
  9205 ;; This function is called by:
  9206 ;;		_USBCtrlTrfOutHandler
  9207 ;; This function uses a non-reentrant model
  9208 ;;
  9209                           
  9210                           	psect	text47
  9211  001450                     __ptext47:
  9212                           	opt callstack 0
  9213  001450                     _USBCtrlTrfRxService:
  9214                           	opt callstack 19
  9215                           
  9216                           ;usb/usb_device.c: 1858:     uint8_t byteToRead;;usb/usb_device.c: 1859:     uint8_t i;;
      +                          usb/usb_device.c: 1863:     byteToRead = pBDTEntryEP0OutCurrent->CNT;
  9217                           
  9218                           ;incstack = 0
  9219  001450  EE20 F001          	lfsr	2,1
  9220  001454  5012               	movf	_pBDTEntryEP0OutCurrent,w,c
  9221  001456  26D9               	addwf	fsr2l,f,c
  9222  001458  5013               	movf	_pBDTEntryEP0OutCurrent+1,w,c
  9223  00145A  22DA               	addwfc	fsr2h,f,c
  9224  00145C  50DF               	movf	indf2,w,c
  9225  00145E  6E30               	movwf	USBCtrlTrfRxService@byteToRead,c
  9226                           
  9227                           ;usb/usb_device.c: 1869:     if(byteToRead > outPipes[0].wCount.Val)
  9228  001460  5030               	movf	USBCtrlTrfRxService@byteToRead,w,c
  9229  001462  0100               	movlb	0	; () banked
  9230  001464  5DA4               	subwf	(_outPipes+4)& (0+255),w,b	;volatile
  9231  001466  0E00               	movlw	0
  9232  001468  59A5               	subwfb	(_outPipes+5)& (0+255),w,b	;volatile
  9233  00146A  A0D8               	btfss	status,0,c
  9234                           
  9235                           ; BSR set to: 0
  9236                           ;usb/usb_device.c: 1870:     {;usb/usb_device.c: 1871:         byteToRead = outPipes[0].
      +                          wCount.Val;
  9237  00146C  C0A4  F030         	movff	_outPipes+4,USBCtrlTrfRxService@byteToRead	;volatile
  9238                           
  9239                           ; BSR set to: 0
  9240                           ;usb/usb_device.c: 1874:     outPipes[0].wCount.Val -= byteToRead;
  9241  001470  5030               	movf	USBCtrlTrfRxService@byteToRead,w,c
  9242  001472  5FA4               	subwf	(_outPipes+4)& (0+255),f,b	;volatile
  9243  001474  0E00               	movlw	0
  9244  001476  5BA5               	subwfb	(_outPipes+5)& (0+255),f,b	;volatile
  9245                           
  9246                           ; BSR set to: 0
  9247                           ;usb/usb_device.c: 1878:     for(i=0;i<byteToRead;i++)
  9248  001478  0E00               	movlw	0
  9249  00147A  6E2F               	movwf	USBCtrlTrfRxService@i,c
  9250  00147C  D00F               	goto	i2l4337
  9251  00147E                     i2l4331:
  9252                           
  9253                           ; BSR set to: 0
  9254                           ;usb/usb_device.c: 1879:     {;usb/usb_device.c: 1880:         *outPipes[0].pDst.bRam++ 
      +                          = CtrlTrfData[i];
  9255  00147E  0E38               	movlw	56
  9256  001480  242F               	addwf	USBCtrlTrfRxService@i,w,c
  9257  001482  6ED9               	movwf	fsr2l,c
  9258  001484  6ADA               	clrf	fsr2h,c
  9259  001486  0E04               	movlw	4
  9260  001488  22DA               	addwfc	fsr2h,f,c
  9261  00148A  C0A0  FFE1         	movff	_outPipes,fsr1l	;volatile
  9262  00148E  C0A1  FFE2         	movff	_outPipes+1,fsr1h	;volatile
  9263  001492  CFDF FFE7          	movff	indf2,indf1
  9264                           
  9265                           ; BSR set to: 0
  9266  001496  4BA0               	infsnz	_outPipes& (0+255),f,b	;volatile
  9267  001498  2BA1               	incf	(_outPipes+1)& (0+255),f,b	;volatile
  9268                           
  9269                           ; BSR set to: 0
  9270                           ;usb/usb_device.c: 1881:     }
  9271  00149A  2A2F               	incf	USBCtrlTrfRxService@i,f,c
  9272  00149C                     i2l4337:
  9273                           
  9274                           ; BSR set to: 0
  9275  00149C  5030               	movf	USBCtrlTrfRxService@byteToRead,w,c
  9276  00149E  5C2F               	subwf	USBCtrlTrfRxService@i,w,c
  9277  0014A0  A0D8               	btfss	status,0,c
  9278  0014A2  D7ED               	goto	i2l4331
  9279                           
  9280                           ; BSR set to: 0
  9281                           ;usb/usb_device.c: 1885:     if(outPipes[0].wCount.Val > 0)
  9282  0014A4  51A4               	movf	(_outPipes+4)& (0+255),w,b	;volatile
  9283  0014A6  11A5               	iorwf	(_outPipes+5)& (0+255),w,b	;volatile
  9284  0014A8  B4D8               	btfsc	status,2,c
  9285  0014AA  D032               	goto	i2l4353
  9286                           
  9287                           ; BSR set to: 0
  9288                           ;usb/usb_device.c: 1886:     {;usb/usb_device.c: 1887:         pBDTEntryEP0OutNext->CNT 
      +                          = 8;
  9289  0014AC  EE20 F001          	lfsr	2,1
  9290  0014B0  5010               	movf	_pBDTEntryEP0OutNext,w,c
  9291  0014B2  26D9               	addwf	fsr2l,f,c
  9292  0014B4  5011               	movf	_pBDTEntryEP0OutNext+1,w,c
  9293  0014B6  22DA               	addwfc	fsr2h,f,c
  9294  0014B8  0E08               	movlw	8
  9295  0014BA  6EDF               	movwf	indf2,c
  9296                           
  9297                           ;usb/usb_device.c: 1888:         pBDTEntryEP0OutNext->ADR = ((uint16_t)(&CtrlTrfData));
  9298  0014BC  EE20 F002          	lfsr	2,2
  9299  0014C0  5010               	movf	_pBDTEntryEP0OutNext,w,c
  9300  0014C2  26D9               	addwf	fsr2l,f,c
  9301  0014C4  5011               	movf	_pBDTEntryEP0OutNext+1,w,c
  9302  0014C6  22DA               	addwfc	fsr2h,f,c
  9303  0014C8  0E38               	movlw	56
  9304  0014CA  6EDE               	movwf	postinc2,c
  9305  0014CC  0E04               	movlw	4
  9306  0014CE  6EDD               	movwf	postdec2,c
  9307                           
  9308                           ; BSR set to: 0
  9309                           ;usb/usb_device.c: 1889:         if(pBDTEntryEP0OutCurrent->STAT.DTS == 0)
  9310  0014D0  C012  FFD9         	movff	_pBDTEntryEP0OutCurrent,fsr2l
  9311  0014D4  C013  FFDA         	movff	_pBDTEntryEP0OutCurrent+1,fsr2h
  9312  0014D8  BCDF               	btfsc	indf2,6,c
  9313  0014DA  D00D               	goto	i2l4349
  9314                           
  9315                           ; BSR set to: 0
  9316                           ;usb/usb_device.c: 1890:         {;usb/usb_device.c: 1891:             pBDTEntryEP0OutNe
      +                          xt->STAT.Val = 0x40|(0x08 & 0x08);
  9317  0014DC  C010  FFD9         	movff	_pBDTEntryEP0OutNext,fsr2l
  9318  0014E0  C011  FFDA         	movff	_pBDTEntryEP0OutNext+1,fsr2h
  9319  0014E4  0E48               	movlw	72
  9320  0014E6  6EDF               	movwf	indf2,c
  9321                           
  9322                           ; BSR set to: 0
  9323                           ;usb/usb_device.c: 1892:             pBDTEntryEP0OutNext->STAT.Val |= 0x80;
  9324  0014E8  C010  FFD9         	movff	_pBDTEntryEP0OutNext,fsr2l
  9325  0014EC  C011  FFDA         	movff	_pBDTEntryEP0OutNext+1,fsr2h
  9326  0014F0  0E00               	movlw	0
  9327  0014F2  8EDB               	bsf	plusw2,7,c
  9328                           
  9329                           ;usb/usb_device.c: 1893:         }
  9330  0014F4  0012               	return	
  9331  0014F6                     i2l4349:
  9332                           
  9333                           ; BSR set to: 0
  9334                           ;usb/usb_device.c: 1895:         {;usb/usb_device.c: 1896:             pBDTEntryEP0OutNe
      +                          xt->STAT.Val = 0x00|(0x08 & 0x08);
  9335  0014F6  C010  FFD9         	movff	_pBDTEntryEP0OutNext,fsr2l
  9336  0014FA  C011  FFDA         	movff	_pBDTEntryEP0OutNext+1,fsr2h
  9337  0014FE  0E08               	movlw	8
  9338  001500  6EDF               	movwf	indf2,c
  9339                           
  9340                           ; BSR set to: 0
  9341                           ;usb/usb_device.c: 1897:             pBDTEntryEP0OutNext->STAT.Val |= 0x80;
  9342  001502  C010  FFD9         	movff	_pBDTEntryEP0OutNext,fsr2l
  9343  001506  C011  FFDA         	movff	_pBDTEntryEP0OutNext+1,fsr2h
  9344  00150A  0E00               	movlw	0
  9345  00150C  8EDB               	bsf	plusw2,7,c
  9346  00150E  0012               	return	
  9347  001510                     i2l4353:
  9348                           
  9349                           ; BSR set to: 0
  9350                           ;usb/usb_device.c: 1901:     {;usb/usb_device.c: 1905:         pBDTEntryEP0OutNext->CNT 
      +                          = 8;
  9351  001510  EE20 F001          	lfsr	2,1
  9352  001514  5010               	movf	_pBDTEntryEP0OutNext,w,c
  9353  001516  26D9               	addwf	fsr2l,f,c
  9354  001518  5011               	movf	_pBDTEntryEP0OutNext+1,w,c
  9355  00151A  22DA               	addwfc	fsr2h,f,c
  9356  00151C  0E08               	movlw	8
  9357  00151E  6EDF               	movwf	indf2,c
  9358                           
  9359                           ;usb/usb_device.c: 1906:         pBDTEntryEP0OutNext->ADR = ((uint16_t)(&SetupPkt));
  9360  001520  EE20 F002          	lfsr	2,2
  9361  001524  5010               	movf	_pBDTEntryEP0OutNext,w,c
  9362  001526  26D9               	addwf	fsr2l,f,c
  9363  001528  5011               	movf	_pBDTEntryEP0OutNext+1,w,c
  9364  00152A  22DA               	addwfc	fsr2h,f,c
  9365  00152C  0E30               	movlw	48
  9366  00152E  6EDE               	movwf	postinc2,c
  9367  001530  0E04               	movlw	4
  9368  001532  6EDD               	movwf	postdec2,c
  9369                           
  9370                           ; BSR set to: 0
  9371                           ;usb/usb_device.c: 1910:         pBDTEntryEP0OutNext->STAT.Val = 0x04;
  9372  001534  C010  FFD9         	movff	_pBDTEntryEP0OutNext,fsr2l
  9373  001538  C011  FFDA         	movff	_pBDTEntryEP0OutNext+1,fsr2h
  9374  00153C  0E04               	movlw	4
  9375  00153E  6EDF               	movwf	indf2,c
  9376                           
  9377                           ; BSR set to: 0
  9378                           ;usb/usb_device.c: 1911:         pBDTEntryEP0OutNext->STAT.Val |= 0x80;
  9379  001540  C010  FFD9         	movff	_pBDTEntryEP0OutNext,fsr2l
  9380  001544  C011  FFDA         	movff	_pBDTEntryEP0OutNext+1,fsr2h
  9381  001548  0E00               	movlw	0
  9382  00154A  8EDB               	bsf	plusw2,7,c
  9383                           
  9384                           ; BSR set to: 0
  9385                           ;usb/usb_device.c: 1918:         if(outPipes[0].pFunc != ((void*)0))
  9386  00154C  51A6               	movf	(_outPipes+6)& (0+255),w,b	;volatile
  9387  00154E  11A7               	iorwf	(_outPipes+7)& (0+255),w,b	;volatile
  9388  001550  B4D8               	btfsc	status,2,c
  9389  001552  D00E               	goto	i2u291_49
  9390                           
  9391                           ; BSR set to: 0
  9392                           ;usb/usb_device.c: 1919:         {
  9393  001554  EE20  F0A6         	lfsr	2,_outPipes+6	;volatile
  9394  001558  D801               	call	i2u291_48
  9395  00155A  D00A               	goto	i2u291_49
  9396  00155C                     i2u291_48:
  9397  00155C  0005               	push	
  9398  00155E  6EFA               	movwf	pclath,c
  9399  001560  50DE               	movf	postinc2,w,c
  9400  001562  6EFD               	movwf	tosl,c
  9401  001564  50DE               	movf	postinc2,w,c
  9402  001566  6EFE               	movwf	tosh,c
  9403  001568  50F8               	movf	tblptru,w,c
  9404  00156A  6EFF               	movwf	tosu,c
  9405  00156C  50FA               	movf	pclath,w,c
  9406  00156E  0012               	return		;indir
  9407  001570                     i2u291_49:
  9408  001570  0100               	movlb	0	; () banked
  9409  001572  9FA3               	bcf	(_outPipes+3)& (0+255),7,b	;volatile
  9410                           
  9411                           ; BSR set to: 0
  9412                           ;usb/usb_device.c: 1945:         if(USBDeferStatusStagePacket == 0)
  9413  001574  501D               	movf	_USBDeferStatusStagePacket,w,c	;volatile
  9414  001576  A4D8               	btfss	status,2,c
  9415  001578  0012               	return	
  9416                           
  9417                           ; BSR set to: 0
  9418                           ;usb/usb_device.c: 1946:         {;usb/usb_device.c: 1947:             USBCtrlEPAllowSta
      +                          tusStage();
  9419  00157A  ECBC  F010         	call	_USBCtrlEPAllowStatusStage	;wreg free
  9420  00157E  0012               	return		;funcret
  9421  001580                     __end_of_USBCtrlTrfRxService:
  9422                           	opt callstack 0
  9423                           
  9424 ;; *************** function _USBCtrlEPAllowStatusStage *****************
  9425 ;; Defined at:
  9426 ;;		line 1420 in file "usb/usb_device.c"
  9427 ;; Parameters:    Size  Location     Type
  9428 ;;		None
  9429 ;; Auto vars:     Size  Location     Type
  9430 ;;		None
  9431 ;; Return value:  Size  Location     Type
  9432 ;;                  1    wreg      void 
  9433 ;; Registers used:
  9434 ;;		wreg, fsr2l, fsr2h, status,2, status,0
  9435 ;; Tracked objects:
  9436 ;;		On entry : 0/0
  9437 ;;		On exit  : 0/0
  9438 ;;		Unchanged: 0/0
  9439 ;; Data sizes:     COMRAM   BANK0   BANK1   BANK2   BANK3   BANK4  BANK5h  BANK5l   BANK6   BANK7
  9440 ;;      Params:         0       0       0       0       0       0       0       0       0       0
  9441 ;;      Locals:         0       0       0       0       0       0       0       0       0       0
  9442 ;;      Temps:          0       0       0       0       0       0       0       0       0       0
  9443 ;;      Totals:         0       0       0       0       0       0       0       0       0       0
  9444 ;;Total ram usage:        0 bytes
  9445 ;; Hardware stack levels used:    1
  9446 ;; This function calls:
  9447 ;;		Nothing
  9448 ;; This function is called by:
  9449 ;;		_USBDeviceTasks
  9450 ;;		_USBCtrlEPServiceComplete
  9451 ;;		_USBCtrlTrfRxService
  9452 ;; This function uses a non-reentrant model
  9453 ;;
  9454                           
  9455                           	psect	text48
  9456  002178                     __ptext48:
  9457                           	opt callstack 0
  9458  002178                     _USBCtrlEPAllowStatusStage:
  9459                           	opt callstack 21
  9460                           
  9461                           ;usb/usb_device.c: 1427:     if(USBStatusStageEnabledFlag1 == 0)
  9462                           
  9463                           ;incstack = 0
  9464  002178  501C               	movf	_USBStatusStageEnabledFlag1,w,c	;volatile
  9465  00217A  A4D8               	btfss	status,2,c
  9466  00217C  0012               	return	
  9467                           
  9468                           ;usb/usb_device.c: 1428:     {;usb/usb_device.c: 1429:         USBStatusStageEnabledFlag
      +                          1 = 1;
  9469  00217E  0E01               	movlw	1
  9470  002180  6E1C               	movwf	_USBStatusStageEnabledFlag1,c	;volatile
  9471                           
  9472                           ;usb/usb_device.c: 1430:         if(USBStatusStageEnabledFlag2 == 0)
  9473  002182  501B               	movf	_USBStatusStageEnabledFlag2,w,c	;volatile
  9474  002184  A4D8               	btfss	status,2,c
  9475  002186  0012               	return	
  9476                           
  9477                           ;usb/usb_device.c: 1431:         {;usb/usb_device.c: 1432:             USBStatusStageEna
      +                          bledFlag2 = 1;
  9478  002188  0E01               	movlw	1
  9479  00218A  6E1B               	movwf	_USBStatusStageEnabledFlag2,c	;volatile
  9480                           
  9481                           ;usb/usb_device.c: 1436:             if(controlTransferState == 2)
  9482  00218C  0E02               	movlw	2
  9483  00218E  1823               	xorwf	_controlTransferState,w,c	;volatile
  9484  002190  A4D8               	btfss	status,2,c
  9485  002192  D016               	goto	i2l4031
  9486                           
  9487                           ;usb/usb_device.c: 1437:             {;usb/usb_device.c: 1438:                 pBDTEntry
      +                          In[0]->CNT = 0;
  9488  002194  0100               	movlb	0	; () banked
  9489  002196  EE20 F001          	lfsr	2,1
  9490  00219A  51AE               	movf	_pBDTEntryIn& (0+255),w,b
  9491  00219C  26D9               	addwf	fsr2l,f,c
  9492  00219E  51AF               	movf	(_pBDTEntryIn+1)& (0+255),w,b
  9493  0021A0  22DA               	addwfc	fsr2h,f,c
  9494  0021A2  0E00               	movlw	0
  9495  0021A4  6EDF               	movwf	indf2,c
  9496                           
  9497                           ; BSR set to: 0
  9498                           ;usb/usb_device.c: 1439:                 pBDTEntryIn[0]->STAT.Val = 0x40|(0x08 & 0x08);
  9499  0021A6  C0AE  FFD9         	movff	_pBDTEntryIn,fsr2l
  9500  0021AA  C0AF  FFDA         	movff	_pBDTEntryIn+1,fsr2h
  9501  0021AE  0E48               	movlw	72
  9502  0021B0  6EDF               	movwf	indf2,c
  9503                           
  9504                           ; BSR set to: 0
  9505                           ;usb/usb_device.c: 1440:                 pBDTEntryIn[0]->STAT.Val |= 0x80;
  9506  0021B2  C0AE  FFD9         	movff	_pBDTEntryIn,fsr2l
  9507  0021B6  C0AF  FFDA         	movff	_pBDTEntryIn+1,fsr2h
  9508  0021BA  0E00               	movlw	0
  9509  0021BC  8EDB               	bsf	plusw2,7,c
  9510                           
  9511                           ;usb/usb_device.c: 1441:             }
  9512  0021BE  0012               	return	
  9513  0021C0                     i2l4031:
  9514  0021C0  0423               	decf	_controlTransferState,w,c	;volatile
  9515  0021C2  A4D8               	btfss	status,2,c
  9516  0021C4  0012               	return	
  9517                           
  9518                           ;usb/usb_device.c: 1443:             {;usb/usb_device.c: 1444:                 BothEP0Ou
      +                          tUOWNsSet = 0;
  9519  0021C6  0E00               	movlw	0
  9520  0021C8  6E1F               	movwf	_BothEP0OutUOWNsSet,c	;volatile
  9521                           
  9522                           ;usb/usb_device.c: 1449:                     pBDTEntryEP0OutCurrent->CNT = 8;
  9523  0021CA  EE20 F001          	lfsr	2,1
  9524  0021CE  5012               	movf	_pBDTEntryEP0OutCurrent,w,c
  9525  0021D0  26D9               	addwf	fsr2l,f,c
  9526  0021D2  5013               	movf	_pBDTEntryEP0OutCurrent+1,w,c
  9527  0021D4  22DA               	addwfc	fsr2h,f,c
  9528  0021D6  0E08               	movlw	8
  9529  0021D8  6EDF               	movwf	indf2,c
  9530                           
  9531                           ;usb/usb_device.c: 1450:                     pBDTEntryEP0OutCurrent->ADR = ((uint16_t)(&
      +                          SetupPkt));
  9532  0021DA  EE20 F002          	lfsr	2,2
  9533  0021DE  5012               	movf	_pBDTEntryEP0OutCurrent,w,c
  9534  0021E0  26D9               	addwf	fsr2l,f,c
  9535  0021E2  5013               	movf	_pBDTEntryEP0OutCurrent+1,w,c
  9536  0021E4  22DA               	addwfc	fsr2h,f,c
  9537  0021E6  0E30               	movlw	48
  9538  0021E8  6EDE               	movwf	postinc2,c
  9539  0021EA  0E04               	movlw	4
  9540  0021EC  6EDD               	movwf	postdec2,c
  9541                           
  9542                           ;usb/usb_device.c: 1451:                     pBDTEntryEP0OutCurrent->STAT.Val = 0x04;
  9543  0021EE  C012  FFD9         	movff	_pBDTEntryEP0OutCurrent,fsr2l
  9544  0021F2  C013  FFDA         	movff	_pBDTEntryEP0OutCurrent+1,fsr2h
  9545  0021F6  0E04               	movlw	4
  9546  0021F8  6EDF               	movwf	indf2,c
  9547                           
  9548                           ;usb/usb_device.c: 1452:                     pBDTEntryEP0OutCurrent->STAT.Val |= 0x80;
  9549  0021FA  C012  FFD9         	movff	_pBDTEntryEP0OutCurrent,fsr2l
  9550  0021FE  C013  FFDA         	movff	_pBDTEntryEP0OutCurrent+1,fsr2h
  9551  002202  0E00               	movlw	0
  9552  002204  8EDB               	bsf	plusw2,7,c
  9553                           
  9554                           ;usb/usb_device.c: 1453:                     BothEP0OutUOWNsSet = 1;
  9555  002206  0E01               	movlw	1
  9556  002208  6E1F               	movwf	_BothEP0OutUOWNsSet,c	;volatile
  9557                           
  9558                           ;usb/usb_device.c: 1457:                 pBDTEntryEP0OutNext->CNT = 8;
  9559  00220A  EE20 F001          	lfsr	2,1
  9560  00220E  5010               	movf	_pBDTEntryEP0OutNext,w,c
  9561  002210  26D9               	addwf	fsr2l,f,c
  9562  002212  5011               	movf	_pBDTEntryEP0OutNext+1,w,c
  9563  002214  22DA               	addwfc	fsr2h,f,c
  9564  002216  0E08               	movlw	8
  9565  002218  6EDF               	movwf	indf2,c
  9566                           
  9567                           ;usb/usb_device.c: 1458:                 pBDTEntryEP0OutNext->ADR = ((uint16_t)(&SetupPk
      +                          t));
  9568  00221A  EE20 F002          	lfsr	2,2
  9569  00221E  5010               	movf	_pBDTEntryEP0OutNext,w,c
  9570  002220  26D9               	addwf	fsr2l,f,c
  9571  002222  5011               	movf	_pBDTEntryEP0OutNext+1,w,c
  9572  002224  22DA               	addwfc	fsr2h,f,c
  9573  002226  0E30               	movlw	48
  9574  002228  6EDE               	movwf	postinc2,c
  9575  00222A  0E04               	movlw	4
  9576  00222C  6EDD               	movwf	postdec2,c
  9577                           
  9578                           ;usb/usb_device.c: 1459:                 pBDTEntryEP0OutNext->STAT.Val = 0x80;
  9579  00222E  C010  FFD9         	movff	_pBDTEntryEP0OutNext,fsr2l
  9580  002232  C011  FFDA         	movff	_pBDTEntryEP0OutNext+1,fsr2h
  9581  002236  0E80               	movlw	128
  9582  002238  6EDF               	movwf	indf2,c
  9583  00223A  0012               	return	
  9584  00223C                     __end_of_USBCtrlEPAllowStatusStage:
  9585                           	opt callstack 0
  9586                           
  9587 ;; *************** function _USBCtrlTrfInHandler *****************
  9588 ;; Defined at:
  9589 ;;		line 2599 in file "usb/usb_device.c"
  9590 ;; Parameters:    Size  Location     Type
  9591 ;;		None
  9592 ;; Auto vars:     Size  Location     Type
  9593 ;;  lastDTS         1    3[COMRAM] unsigned char 
  9594 ;; Return value:  Size  Location     Type
  9595 ;;                  1    wreg      void 
  9596 ;; Registers used:
  9597 ;;		wreg, fsr1l, fsr1h, fsr2l, fsr2h, status,2, status,0, pclath, tosl, tblptrl, tblptrh, tblptru, cstack
  9598 ;; Tracked objects:
  9599 ;;		On entry : 0/0
  9600 ;;		On exit  : 0/0
  9601 ;;		Unchanged: 0/0
  9602 ;; Data sizes:     COMRAM   BANK0   BANK1   BANK2   BANK3   BANK4  BANK5h  BANK5l   BANK6   BANK7
  9603 ;;      Params:         0       0       0       0       0       0       0       0       0       0
  9604 ;;      Locals:         1       0       0       0       0       0       0       0       0       0
  9605 ;;      Temps:          0       0       0       0       0       0       0       0       0       0
  9606 ;;      Totals:         1       0       0       0       0       0       0       0       0       0
  9607 ;;Total ram usage:        1 bytes
  9608 ;; Hardware stack levels used:    1
  9609 ;; Hardware stack levels required when called:    3
  9610 ;; This function calls:
  9611 ;;		_USBCtrlTrfTxService
  9612 ;;		_USBHIDCBSetReportComplete
  9613 ;; This function is called by:
  9614 ;;		_USBCtrlEPService
  9615 ;; This function uses a non-reentrant model
  9616 ;;
  9617                           
  9618                           	psect	text49
  9619  001D2A                     __ptext49:
  9620                           	opt callstack 0
  9621  001D2A                     _USBCtrlTrfInHandler:
  9622                           	opt callstack 20
  9623                           
  9624                           ;usb/usb_device.c: 2601:     uint8_t lastDTS;;usb/usb_device.c: 2603:     lastDTS = pBDT
      +                          EntryIn[0]->STAT.DTS;
  9625                           
  9626                           ;incstack = 0
  9627  001D2A  C0AE  FFD9         	movff	_pBDTEntryIn,fsr2l
  9628  001D2E  C0AF  FFDA         	movff	_pBDTEntryIn+1,fsr2h
  9629  001D32  0100               	movlb	0	; () banked
  9630  001D34  0E00               	movlw	0
  9631  001D36  BCDF               	btfsc	indf2,6,c
  9632  001D38  0E01               	movlw	1
  9633  001D3A  6E2F               	movwf	USBCtrlTrfInHandler@lastDTS,c
  9634                           
  9635                           ; BSR set to: 0
  9636                           ;usb/usb_device.c: 2606:     pBDTEntryIn[0] = (volatile BDT_ENTRY*)(((uint16_t)pBDTEntry
      +                          In[0]) ^ 0x0004);
  9637  001D3C  0E04               	movlw	4
  9638  001D3E  19AE               	xorwf	_pBDTEntryIn& (0+255),w,b
  9639  001D40  6FAE               	movwf	_pBDTEntryIn& (0+255),b
  9640  001D42  51AF               	movf	(_pBDTEntryIn+1)& (0+255),w,b
  9641  001D44  6FAF               	movwf	(_pBDTEntryIn+1)& (0+255),b
  9642                           
  9643                           ; BSR set to: 0
  9644                           ;usb/usb_device.c: 2611:     if(USBDeviceState == ADR_PENDING_STATE)
  9645  001D46  0E08               	movlw	8
  9646  001D48  1825               	xorwf	_USBDeviceState,w,c	;volatile
  9647  001D4A  A4D8               	btfss	status,2,c
  9648  001D4C  D00B               	goto	i2l4485
  9649                           
  9650                           ; BSR set to: 0
  9651                           ;usb/usb_device.c: 2612:     {;usb/usb_device.c: 2613:         UADDR = (SetupPkt.bDevADR
      +                           & 0x7F);
  9652  001D4E  0104               	movlb	4	; () banked
  9653  001D50  5132               	movf	50,w,b	;volatile
  9654  001D52  0B7F               	andlw	127
  9655  001D54  6E63               	movwf	3939,c	;volatile
  9656                           
  9657                           ; BSR set to: 4
  9658                           ;usb/usb_device.c: 2614:         if(UADDR != 0u)
  9659  001D56  5063               	movf	3939,w,c	;volatile
  9660  001D58  B4D8               	btfsc	status,2,c
  9661  001D5A  D002               	goto	i2l4483
  9662                           
  9663                           ; BSR set to: 4
  9664                           ;usb/usb_device.c: 2615:         {;usb/usb_device.c: 2616:             USBDeviceState=AD
      +                          DRESS_STATE;
  9665  001D5C  0E10               	movlw	16
  9666  001D5E  D001               	goto	L15
  9667  001D60                     i2l4483:
  9668                           
  9669                           ; BSR set to: 4
  9670                           ;usb/usb_device.c: 2619:         {;usb/usb_device.c: 2620:             USBDeviceState=DE
      +                          FAULT_STATE;
  9671  001D60  0E04               	movlw	4
  9672  001D62                     L15:
  9673  001D62  6E25               	movwf	_USBDeviceState,c	;volatile
  9674  001D64                     i2l4485:
  9675                           
  9676                           ;usb/usb_device.c: 2625:     if(controlTransferState == 1)
  9677  001D64  0423               	decf	_controlTransferState,w,c	;volatile
  9678  001D66  A4D8               	btfss	status,2,c
  9679  001D68  D03B               	goto	i2l367
  9680                           
  9681                           ;usb/usb_device.c: 2626:     {;usb/usb_device.c: 2627:         pBDTEntryIn[0]->ADR = ((u
      +                          int16_t)(CtrlTrfData));
  9682  001D6A  0100               	movlb	0	; () banked
  9683  001D6C  EE20 F002          	lfsr	2,2
  9684  001D70  51AE               	movf	_pBDTEntryIn& (0+255),w,b
  9685  001D72  26D9               	addwf	fsr2l,f,c
  9686  001D74  51AF               	movf	(_pBDTEntryIn+1)& (0+255),w,b
  9687  001D76  22DA               	addwfc	fsr2h,f,c
  9688  001D78  0E38               	movlw	56
  9689  001D7A  6EDE               	movwf	postinc2,c
  9690  001D7C  0E04               	movlw	4
  9691  001D7E  6EDD               	movwf	postdec2,c
  9692                           
  9693                           ; BSR set to: 0
  9694                           ;usb/usb_device.c: 2628:         USBCtrlTrfTxService();
  9695  001D80  EC56  F010         	call	_USBCtrlTrfTxService	;wreg free
  9696                           
  9697                           ;usb/usb_device.c: 2634:         if(shortPacketStatus == 2)
  9698  001D84  0E02               	movlw	2
  9699  001D86  1824               	xorwf	_shortPacketStatus,w,c	;volatile
  9700  001D88  A4D8               	btfss	status,2,c
  9701  001D8A  D00D               	goto	i2l4497
  9702                           
  9703                           ;usb/usb_device.c: 2635:         {;usb/usb_device.c: 2638:             pBDTEntryIn[0]->S
      +                          TAT.Val = 0x04;
  9704  001D8C  C0AE  FFD9         	movff	_pBDTEntryIn,fsr2l
  9705  001D90  C0AF  FFDA         	movff	_pBDTEntryIn+1,fsr2h
  9706  001D94  0E04               	movlw	4
  9707  001D96  6EDF               	movwf	indf2,c
  9708                           
  9709                           ;usb/usb_device.c: 2639:             pBDTEntryIn[0]->STAT.Val |= 0x80;
  9710  001D98  C0AE  FFD9         	movff	_pBDTEntryIn,fsr2l
  9711  001D9C  C0AF  FFDA         	movff	_pBDTEntryIn+1,fsr2h
  9712  001DA0  0E00               	movlw	0
  9713  001DA2  8EDB               	bsf	plusw2,7,c
  9714                           
  9715                           ;usb/usb_device.c: 2640:         }
  9716  001DA4  0012               	return	
  9717  001DA6                     i2l4497:
  9718                           
  9719                           ;usb/usb_device.c: 2642:         {;usb/usb_device.c: 2643:             if(lastDTS == 0)
  9720  001DA6  502F               	movf	USBCtrlTrfInHandler@lastDTS,w,c
  9721  001DA8  A4D8               	btfss	status,2,c
  9722  001DAA  D00D               	goto	i2l4503
  9723                           
  9724                           ;usb/usb_device.c: 2644:             {;usb/usb_device.c: 2645:                 pBDTEntry
      +                          In[0]->STAT.Val = 0x40|(0x08 & 0x08);
  9725  001DAC  C0AE  FFD9         	movff	_pBDTEntryIn,fsr2l
  9726  001DB0  C0AF  FFDA         	movff	_pBDTEntryIn+1,fsr2h
  9727  001DB4  0E48               	movlw	72
  9728  001DB6  6EDF               	movwf	indf2,c
  9729                           
  9730                           ;usb/usb_device.c: 2646:                 pBDTEntryIn[0]->STAT.Val |= 0x80;
  9731  001DB8  C0AE  FFD9         	movff	_pBDTEntryIn,fsr2l
  9732  001DBC  C0AF  FFDA         	movff	_pBDTEntryIn+1,fsr2h
  9733  001DC0  0E00               	movlw	0
  9734  001DC2  8EDB               	bsf	plusw2,7,c
  9735                           
  9736                           ;usb/usb_device.c: 2647:             }
  9737  001DC4  0012               	return	
  9738  001DC6                     i2l4503:
  9739                           
  9740                           ;usb/usb_device.c: 2649:             {;usb/usb_device.c: 2650:                 pBDTEntry
      +                          In[0]->STAT.Val = 0x00|(0x08 & 0x08);
  9741  001DC6  C0AE  FFD9         	movff	_pBDTEntryIn,fsr2l
  9742  001DCA  C0AF  FFDA         	movff	_pBDTEntryIn+1,fsr2h
  9743  001DCE  0E08               	movlw	8
  9744  001DD0  6EDF               	movwf	indf2,c
  9745                           
  9746                           ;usb/usb_device.c: 2651:                 pBDTEntryIn[0]->STAT.Val |= 0x80;
  9747  001DD2  C0AE  FFD9         	movff	_pBDTEntryIn,fsr2l
  9748  001DD6  C0AF  FFDA         	movff	_pBDTEntryIn+1,fsr2h
  9749  001DDA  0E00               	movlw	0
  9750  001DDC  8EDB               	bsf	plusw2,7,c
  9751  001DDE  0012               	return	
  9752  001DE0                     i2l367:
  9753                           
  9754                           ;usb/usb_device.c: 2656:  {;usb/usb_device.c: 2660:         if(outPipes[0].info.bits.bus
      +                          y == 1)
  9755  001DE0  0100               	movlb	0	; () banked
  9756  001DE2  AFA3               	btfss	(_outPipes+3)& (0+255),7,b	;volatile
  9757  001DE4  D014               	goto	i2l4513
  9758                           
  9759                           ; BSR set to: 0
  9760                           ;usb/usb_device.c: 2661:         {;usb/usb_device.c: 2662:             if(outPipes[0].pF
      +                          unc != ((void*)0))
  9761  001DE6  51A6               	movf	(_outPipes+6)& (0+255),w,b	;volatile
  9762  001DE8  11A7               	iorwf	(_outPipes+7)& (0+255),w,b	;volatile
  9763  001DEA  B4D8               	btfsc	status,2,c
  9764  001DEC  D00E               	goto	i2u305_49
  9765                           
  9766                           ; BSR set to: 0
  9767                           ;usb/usb_device.c: 2663:             {;usb/usb_device.c: 2664:                 outPipes[
      +                          0].pFunc();
  9768  001DEE  EE20  F0A6         	lfsr	2,_outPipes+6	;volatile
  9769  001DF2  D801               	call	i2u305_48
  9770  001DF4  D00A               	goto	i2u305_49
  9771  001DF6                     i2u305_48:
  9772  001DF6  0005               	push	
  9773  001DF8  6EFA               	movwf	pclath,c
  9774  001DFA  50DE               	movf	postinc2,w,c
  9775  001DFC  6EFD               	movwf	tosl,c
  9776  001DFE  50DE               	movf	postinc2,w,c
  9777  001E00  6EFE               	movwf	tosh,c
  9778  001E02  50F8               	movf	tblptru,w,c
  9779  001E04  6EFF               	movwf	tosu,c
  9780  001E06  50FA               	movf	pclath,w,c
  9781  001E08  0012               	return		;indir
  9782  001E0A                     i2u305_49:
  9783                           
  9784                           ;usb/usb_device.c: 2666:             outPipes[0].info.bits.busy = 0;
  9785  001E0A  0100               	movlb	0	; () banked
  9786  001E0C  9FA3               	bcf	(_outPipes+3)& (0+255),7,b	;volatile
  9787  001E0E                     i2l4513:
  9788                           
  9789                           ; BSR set to: 0
  9790                           ;usb/usb_device.c: 2669:         controlTransferState = 0;
  9791  001E0E  0E00               	movlw	0
  9792  001E10  6E23               	movwf	_controlTransferState,c	;volatile
  9793  001E12  0012               	return		;funcret
  9794  001E14                     __end_of_USBCtrlTrfInHandler:
  9795                           	opt callstack 0
  9796                           
  9797 ;; *************** function _USBHIDCBSetReportComplete *****************
  9798 ;; Defined at:
  9799 ;;		line 730 in file "device_keyboard.c"
  9800 ;; Parameters:    Size  Location     Type
  9801 ;;		None
  9802 ;; Auto vars:     Size  Location     Type
  9803 ;;		None
  9804 ;; Return value:  Size  Location     Type
  9805 ;;                  1    wreg      void 
  9806 ;; Registers used:
  9807 ;;		wreg, status,2, status,0, cstack
  9808 ;; Tracked objects:
  9809 ;;		On entry : 0/0
  9810 ;;		On exit  : 0/0
  9811 ;;		Unchanged: 0/0
  9812 ;; Data sizes:     COMRAM   BANK0   BANK1   BANK2   BANK3   BANK4  BANK5h  BANK5l   BANK6   BANK7
  9813 ;;      Params:         0       0       0       0       0       0       0       0       0       0
  9814 ;;      Locals:         0       0       0       0       0       0       0       0       0       0
  9815 ;;      Temps:          0       0       0       0       0       0       0       0       0       0
  9816 ;;      Totals:         0       0       0       0       0       0       0       0       0       0
  9817 ;;Total ram usage:        0 bytes
  9818 ;; Hardware stack levels used:    1
  9819 ;; Hardware stack levels required when called:    2
  9820 ;; This function calls:
  9821 ;;		i2_KeyboardProcessOutputReport
  9822 ;; This function is called by:
  9823 ;;		_USBHIDCBSetReportHandler
  9824 ;;		_USBCtrlTrfRxService
  9825 ;;		_USBCtrlTrfInHandler
  9826 ;; This function uses a non-reentrant model
  9827 ;;
  9828                           
  9829                           	psect	text50
  9830  002D76                     __ptext50:
  9831                           	opt callstack 0
  9832  002D76                     _USBHIDCBSetReportComplete:
  9833                           	opt callstack 19
  9834                           
  9835                           ;device_keyboard.c: 734:     outputReport.value = CtrlTrfData[0];
  9836                           
  9837                           ;incstack = 0
  9838  002D76  C438 F508          	movff	1080,1288	;volatile
  9839                           
  9840                           ;device_keyboard.c: 737:     KeyboardProcessOutputReport();
  9841  002D7A  EC8D  F015         	call	i2_KeyboardProcessOutputReport	;wreg free
  9842  002D7E  0012               	return		;funcret
  9843  002D80                     __end_of_USBHIDCBSetReportComplete:
  9844                           	opt callstack 0
  9845                           
  9846 ;; *************** function i2_KeyboardProcessOutputReport *****************
  9847 ;; Defined at:
  9848 ;;		line 700 in file "device_keyboard.c"
  9849 ;; Parameters:    Size  Location     Type
  9850 ;;		None
  9851 ;; Auto vars:     Size  Location     Type
  9852 ;;		None
  9853 ;; Return value:  Size  Location     Type
  9854 ;;                  1    wreg      void 
  9855 ;; Registers used:
  9856 ;;		wreg, status,2, status,0, cstack
  9857 ;; Tracked objects:
  9858 ;;		On entry : 0/0
  9859 ;;		On exit  : 0/0
  9860 ;;		Unchanged: 0/0
  9861 ;; Data sizes:     COMRAM   BANK0   BANK1   BANK2   BANK3   BANK4  BANK5h  BANK5l   BANK6   BANK7
  9862 ;;      Params:         0       0       0       0       0       0       0       0       0       0
  9863 ;;      Locals:         0       0       0       0       0       0       0       0       0       0
  9864 ;;      Temps:          0       0       0       0       0       0       0       0       0       0
  9865 ;;      Totals:         0       0       0       0       0       0       0       0       0       0
  9866 ;;Total ram usage:        0 bytes
  9867 ;; Hardware stack levels used:    1
  9868 ;; Hardware stack levels required when called:    1
  9869 ;; This function calls:
  9870 ;;		i2_LED_Off
  9871 ;;		i2_LED_On
  9872 ;; This function is called by:
  9873 ;;		_USBHIDCBSetReportComplete
  9874 ;; This function uses a non-reentrant model
  9875 ;;
  9876                           
  9877                           	psect	text51
  9878  002B1A                     __ptext51:
  9879                           	opt callstack 0
  9880  002B1A                     i2_KeyboardProcessOutputReport:
  9881                           	opt callstack 19
  9882                           
  9883                           ;device_keyboard.c: 702:     if(outputReport.leds.capsLock)
  9884                           
  9885                           ;incstack = 0
  9886  002B1A  0105               	movlb	5	; () banked
  9887  002B1C  A308               	btfss	8,1,b	;volatile
  9888  002B1E  D004               	goto	i2l3971
  9889                           
  9890                           ; BSR set to: 5
  9891                           ;device_keyboard.c: 703:     {;device_keyboard.c: 704:         LED_On(LED_E1);
  9892  002B20  0E01               	movlw	1
  9893  002B22  ECAC  F015         	call	i2_LED_On
  9894                           
  9895                           ;device_keyboard.c: 705:     }
  9896  002B26  D003               	goto	i2l3973
  9897  002B28                     i2l3971:
  9898                           
  9899                           ; BSR set to: 5
  9900                           ;device_keyboard.c: 707:     {;device_keyboard.c: 708:         LED_Off(LED_E1);
  9901  002B28  0E01               	movlw	1
  9902  002B2A  ECC9  F015         	call	i2_LED_Off
  9903  002B2E                     i2l3973:
  9904                           
  9905                           ;device_keyboard.c: 711:     if(outputReport.leds.numLock)
  9906  002B2E  0105               	movlb	5	; () banked
  9907  002B30  A108               	btfss	8,0,b	;volatile
  9908  002B32  D004               	goto	i2l3977
  9909                           
  9910                           ; BSR set to: 5
  9911                           ;device_keyboard.c: 712:     {;device_keyboard.c: 713:         LED_On(LED_E2);
  9912  002B34  0E02               	movlw	2
  9913  002B36  ECAC  F015         	call	i2_LED_On
  9914                           
  9915                           ;device_keyboard.c: 714:     }
  9916  002B3A  D003               	goto	i2l3979
  9917  002B3C                     i2l3977:
  9918                           
  9919                           ; BSR set to: 5
  9920                           ;device_keyboard.c: 716:     {;device_keyboard.c: 717:         LED_Off(LED_E2);
  9921  002B3C  0E02               	movlw	2
  9922  002B3E  ECC9  F015         	call	i2_LED_Off
  9923  002B42                     i2l3979:
  9924                           
  9925                           ;device_keyboard.c: 720:     if(outputReport.leds.scrollLock)
  9926  002B42  0105               	movlb	5	; () banked
  9927  002B44  A508               	btfss	8,2,b	;volatile
  9928  002B46  D004               	goto	i2l3983
  9929                           
  9930                           ; BSR set to: 5
  9931                           ;device_keyboard.c: 721:     {;device_keyboard.c: 722:         LED_On(LED_E3);
  9932  002B48  0E03               	movlw	3
  9933  002B4A  ECAC  F015         	call	i2_LED_On
  9934                           
  9935                           ;device_keyboard.c: 723:     }
  9936  002B4E  0012               	return	
  9937  002B50                     i2l3983:
  9938                           
  9939                           ; BSR set to: 5
  9940                           ;device_keyboard.c: 725:     {;device_keyboard.c: 726:         LED_Off(LED_E3);
  9941  002B50  0E03               	movlw	3
  9942  002B52  ECC9  F015         	call	i2_LED_Off
  9943  002B56  0012               	return		;funcret
  9944  002B58                     __end_ofi2_KeyboardProcessOutputReport:
  9945                           	opt callstack 0
  9946                           
  9947 ;; *************** function i2_LED_On *****************
  9948 ;; Defined at:
  9949 ;;		line 67 in file "leds.c"
  9950 ;; Parameters:    Size  Location     Type
  9951 ;;  led             1    wreg     enum E2
  9952 ;; Auto vars:     Size  Location     Type
  9953 ;;  led             1    2[COMRAM] enum E2
  9954 ;; Return value:  Size  Location     Type
  9955 ;;                  1    wreg      void 
  9956 ;; Registers used:
  9957 ;;		wreg, status,2, status,0
  9958 ;; Tracked objects:
  9959 ;;		On entry : 0/0
  9960 ;;		On exit  : 0/0
  9961 ;;		Unchanged: 0/0
  9962 ;; Data sizes:     COMRAM   BANK0   BANK1   BANK2   BANK3   BANK4  BANK5h  BANK5l   BANK6   BANK7
  9963 ;;      Params:         0       0       0       0       0       0       0       0       0       0
  9964 ;;      Locals:         1       0       0       0       0       0       0       0       0       0
  9965 ;;      Temps:          2       0       0       0       0       0       0       0       0       0
  9966 ;;      Totals:         3       0       0       0       0       0       0       0       0       0
  9967 ;;Total ram usage:        3 bytes
  9968 ;; Hardware stack levels used:    1
  9969 ;; This function calls:
  9970 ;;		Nothing
  9971 ;; This function is called by:
  9972 ;;		i2_KeyboardProcessOutputReport
  9973 ;; This function uses a non-reentrant model
  9974 ;;
  9975                           
  9976                           	psect	text52
  9977  002B58                     __ptext52:
  9978                           	opt callstack 0
  9979  002B58                     i2_LED_On:
  9980                           	opt callstack 19
  9981                           
  9982                           ;incstack = 0
  9983                           ;i2LED_On@led stored from wreg
  9984  002B58  6E2E               	movwf	i2LED_On@led,c
  9985                           
  9986                           ;leds.c: 67: void LED_On(LED led);leds.c: 68: {;leds.c: 69:     switch(led)
  9987  002B5A  D006               	goto	i2l3877
  9988  002B5C                     i2l794:
  9989                           
  9990                           ;leds.c: 72:             LATEbits.LATE0 = 1;
  9991  002B5C  808D               	bsf	3981,0,c	;volatile
  9992                           
  9993                           ;leds.c: 73:             break;
  9994  002B5E  0012               	return	
  9995  002B60                     i2l796:
  9996                           
  9997                           ;leds.c: 76:             LATEbits.LATE1 = 1;
  9998  002B60  828D               	bsf	3981,1,c	;volatile
  9999                           
 10000                           ;leds.c: 77:             break;
 10001  002B62  0012               	return	
 10002  002B64                     i2l797:
 10003                           
 10004                           ;leds.c: 80:             LATEbits.LATE2 = 1;
 10005  002B64  848D               	bsf	3981,2,c	;volatile
 10006                           
 10007                           ;leds.c: 81:             break;
 10008  002B66  0012               	return	
 10009  002B68                     i2l3877:
 10010  002B68  502E               	movf	i2LED_On@led,w,c
 10011  002B6A  6E2C               	movwf	??i2_LED_On& (0+255),c
 10012  002B6C  6A2D               	clrf	(??i2_LED_On+1)& (0+255),c
 10013                           
 10014                           ; Switch on 2 bytes has been partitioned into a top level switch of size 1, and 1 sub-sw
      +                          itches
 10015                           ; Switch size 1, requested type "simple"
 10016                           ; Number of cases is 1, Range of values is 0 to 0
 10017                           ; switch strategies available:
 10018                           ; Name         Instructions Cycles
 10019                           ; simple_byte            4     3 (average)
 10020                           ;	Chosen strategy is simple_byte
 10021  002B6E  502D               	movf	??i2_LED_On+1,w,c
 10022  002B70  0A00               	xorlw	0	; case 0
 10023  002B72  A4D8               	btfss	status,2,c
 10024  002B74  0012               	return	
 10025                           
 10026                           ; Switch size 1, requested type "simple"
 10027                           ; Number of cases is 4, Range of values is 0 to 3
 10028                           ; switch strategies available:
 10029                           ; Name         Instructions Cycles
 10030                           ; simple_byte           13     7 (average)
 10031                           ;	Chosen strategy is simple_byte
 10032  002B76  502C               	movf	??i2_LED_On,w,c
 10033  002B78  0A00               	xorlw	0	; case 0
 10034  002B7A  B4D8               	btfsc	status,2,c
 10035  002B7C  0012               	return	
 10036  002B7E  0A01               	xorlw	1	; case 1
 10037  002B80  B4D8               	btfsc	status,2,c
 10038  002B82  D7EC               	goto	i2l794
 10039  002B84  0A03               	xorlw	3	; case 2
 10040  002B86  B4D8               	btfsc	status,2,c
 10041  002B88  D7EB               	goto	i2l796
 10042  002B8A  0A01               	xorlw	1	; case 3
 10043  002B8C  A4D8               	btfss	status,2,c
 10044  002B8E  0012               	return	
 10045  002B90  D7E9               	goto	i2l797
 10046  002B92                     __end_ofi2_LED_On:
 10047                           	opt callstack 0
 10048                           
 10049 ;; *************** function i2_LED_Off *****************
 10050 ;; Defined at:
 10051 ;;		line 104 in file "leds.c"
 10052 ;; Parameters:    Size  Location     Type
 10053 ;;  led             1    wreg     enum E2
 10054 ;; Auto vars:     Size  Location     Type
 10055 ;;  led             1    2[COMRAM] enum E2
 10056 ;; Return value:  Size  Location     Type
 10057 ;;                  1    wreg      void 
 10058 ;; Registers used:
 10059 ;;		wreg, status,2, status,0
 10060 ;; Tracked objects:
 10061 ;;		On entry : 0/0
 10062 ;;		On exit  : 0/0
 10063 ;;		Unchanged: 0/0
 10064 ;; Data sizes:     COMRAM   BANK0   BANK1   BANK2   BANK3   BANK4  BANK5h  BANK5l   BANK6   BANK7
 10065 ;;      Params:         0       0       0       0       0       0       0       0       0       0
 10066 ;;      Locals:         1       0       0       0       0       0       0       0       0       0
 10067 ;;      Temps:          2       0       0       0       0       0       0       0       0       0
 10068 ;;      Totals:         3       0       0       0       0       0       0       0       0       0
 10069 ;;Total ram usage:        3 bytes
 10070 ;; Hardware stack levels used:    1
 10071 ;; This function calls:
 10072 ;;		Nothing
 10073 ;; This function is called by:
 10074 ;;		i2_KeyboardProcessOutputReport
 10075 ;; This function uses a non-reentrant model
 10076 ;;
 10077                           
 10078                           	psect	text53
 10079  002B92                     __ptext53:
 10080                           	opt callstack 0
 10081  002B92                     i2_LED_Off:
 10082                           	opt callstack 19
 10083                           
 10084                           ;incstack = 0
 10085                           ;i2LED_Off@led stored from wreg
 10086  002B92  6E2E               	movwf	i2LED_Off@led,c
 10087                           
 10088                           ;leds.c: 104: void LED_Off(LED led);leds.c: 105: {;leds.c: 106:     switch(led)
 10089  002B94  D006               	goto	i2l3887
 10090  002B96                     i2l803:
 10091                           
 10092                           ;leds.c: 109:             LATEbits.LATE0 = 0;
 10093  002B96  908D               	bcf	3981,0,c	;volatile
 10094                           
 10095                           ;leds.c: 110:             break;
 10096  002B98  0012               	return	
 10097  002B9A                     i2l805:
 10098                           
 10099                           ;leds.c: 113:             LATEbits.LATE1 = 0;
 10100  002B9A  928D               	bcf	3981,1,c	;volatile
 10101                           
 10102                           ;leds.c: 114:             break;
 10103  002B9C  0012               	return	
 10104  002B9E                     i2l806:
 10105                           
 10106                           ;leds.c: 117:             LATEbits.LATE2 = 0;
 10107  002B9E  948D               	bcf	3981,2,c	;volatile
 10108                           
 10109                           ;leds.c: 118:             break;
 10110  002BA0  0012               	return	
 10111  002BA2                     i2l3887:
 10112  002BA2  502E               	movf	i2LED_Off@led,w,c
 10113  002BA4  6E2C               	movwf	??i2_LED_Off& (0+255),c
 10114  002BA6  6A2D               	clrf	(??i2_LED_Off+1)& (0+255),c
 10115                           
 10116                           ; Switch on 2 bytes has been partitioned into a top level switch of size 1, and 1 sub-sw
      +                          itches
 10117                           ; Switch size 1, requested type "simple"
 10118                           ; Number of cases is 1, Range of values is 0 to 0
 10119                           ; switch strategies available:
 10120                           ; Name         Instructions Cycles
 10121                           ; simple_byte            4     3 (average)
 10122                           ;	Chosen strategy is simple_byte
 10123  002BA8  502D               	movf	??i2_LED_Off+1,w,c
 10124  002BAA  0A00               	xorlw	0	; case 0
 10125  002BAC  A4D8               	btfss	status,2,c
 10126  002BAE  0012               	return	
 10127                           
 10128                           ; Switch size 1, requested type "simple"
 10129                           ; Number of cases is 4, Range of values is 0 to 3
 10130                           ; switch strategies available:
 10131                           ; Name         Instructions Cycles
 10132                           ; simple_byte           13     7 (average)
 10133                           ;	Chosen strategy is simple_byte
 10134  002BB0  502C               	movf	??i2_LED_Off,w,c
 10135  002BB2  0A00               	xorlw	0	; case 0
 10136  002BB4  B4D8               	btfsc	status,2,c
 10137  002BB6  0012               	return	
 10138  002BB8  0A01               	xorlw	1	; case 1
 10139  002BBA  B4D8               	btfsc	status,2,c
 10140  002BBC  D7EC               	goto	i2l803
 10141  002BBE  0A03               	xorlw	3	; case 2
 10142  002BC0  B4D8               	btfsc	status,2,c
 10143  002BC2  D7EB               	goto	i2l805
 10144  002BC4  0A01               	xorlw	1	; case 3
 10145  002BC6  A4D8               	btfss	status,2,c
 10146  002BC8  0012               	return	
 10147  002BCA  D7E9               	goto	i2l806
 10148  002BCC                     __end_ofi2_LED_Off:
 10149                           	opt callstack 0
 10150                           
 10151 ;; *************** function _USBCtrlTrfTxService *****************
 10152 ;; Defined at:
 10153 ;;		line 1775 in file "usb/usb_device.c"
 10154 ;; Parameters:    Size  Location     Type
 10155 ;;		None
 10156 ;; Auto vars:     Size  Location     Type
 10157 ;;  byteToSend      1    0[COMRAM] unsigned char 
 10158 ;; Return value:  Size  Location     Type
 10159 ;;                  1    wreg      void 
 10160 ;; Registers used:
 10161 ;;		wreg, fsr1l, fsr1h, fsr2l, fsr2h, status,2, status,0, tblptrl, tblptrh, tblptru
 10162 ;; Tracked objects:
 10163 ;;		On entry : 0/0
 10164 ;;		On exit  : 0/0
 10165 ;;		Unchanged: 0/0
 10166 ;; Data sizes:     COMRAM   BANK0   BANK1   BANK2   BANK3   BANK4  BANK5h  BANK5l   BANK6   BANK7
 10167 ;;      Params:         0       0       0       0       0       0       0       0       0       0
 10168 ;;      Locals:         1       0       0       0       0       0       0       0       0       0
 10169 ;;      Temps:          0       0       0       0       0       0       0       0       0       0
 10170 ;;      Totals:         1       0       0       0       0       0       0       0       0       0
 10171 ;;Total ram usage:        1 bytes
 10172 ;; Hardware stack levels used:    1
 10173 ;; This function calls:
 10174 ;;		Nothing
 10175 ;; This function is called by:
 10176 ;;		_USBCtrlEPAllowDataStage
 10177 ;;		_USBCtrlTrfInHandler
 10178 ;; This function uses a non-reentrant model
 10179 ;;
 10180                           
 10181                           	psect	text54
 10182  0020AC                     __ptext54:
 10183                           	opt callstack 0
 10184  0020AC                     _USBCtrlTrfTxService:
 10185                           	opt callstack 20
 10186                           
 10187                           ;usb/usb_device.c: 1777:     uint8_t byteToSend;;usb/usb_device.c: 1781:     byteToSend 
      +                          = 8;
 10188                           
 10189                           ;incstack = 0
 10190  0020AC  0E08               	movlw	8
 10191  0020AE  6E2C               	movwf	USBCtrlTrfTxService@byteToSend,c
 10192                           
 10193                           ;usb/usb_device.c: 1782:     if(inPipes[0].wCount.Val < (uint8_t)8)
 10194  0020B0  0100               	movlb	0	; () banked
 10195  0020B2  51AD               	movf	(_inPipes+5)& (0+255),w,b	;volatile
 10196  0020B4  E110               	bnz	i2l3937
 10197  0020B6  0E08               	movlw	8
 10198  0020B8  5DAC               	subwf	(_inPipes+4)& (0+255),w,b	;volatile
 10199  0020BA  B0D8               	btfsc	status,0,c
 10200  0020BC  D00C               	goto	i2l3937
 10201                           
 10202                           ; BSR set to: 0
 10203                           ;usb/usb_device.c: 1783:     {;usb/usb_device.c: 1784:         byteToSend = inPipes[0].w
      +                          Count.Val;
 10204  0020BE  C0AC  F02C         	movff	_inPipes+4,USBCtrlTrfTxService@byteToSend	;volatile
 10205                           
 10206                           ; BSR set to: 0
 10207                           ;usb/usb_device.c: 1791:         if(shortPacketStatus == 0)
 10208  0020C2  5024               	movf	_shortPacketStatus,w,c	;volatile
 10209  0020C4  A4D8               	btfss	status,2,c
 10210  0020C6  D002               	goto	i2l3933
 10211                           
 10212                           ; BSR set to: 0
 10213                           ;usb/usb_device.c: 1792:         {;usb/usb_device.c: 1793:             shortPacketStatus
      +                           = 1;
 10214  0020C8  0E01               	movlw	1
 10215  0020CA  D004               	goto	L16
 10216  0020CC                     i2l3933:
 10217                           
 10218                           ; BSR set to: 0
 10219  0020CC  0424               	decf	_shortPacketStatus,w,c	;volatile
 10220  0020CE  A4D8               	btfss	status,2,c
 10221  0020D0  D002               	goto	i2l3937
 10222                           
 10223                           ; BSR set to: 0
 10224                           ;usb/usb_device.c: 1796:         {;usb/usb_device.c: 1797:             shortPacketStatus
      +                           = 2;
 10225  0020D2  0E02               	movlw	2
 10226  0020D4                     L16:
 10227  0020D4  6E24               	movwf	_shortPacketStatus,c	;volatile
 10228  0020D6                     i2l3937:
 10229                           
 10230                           ; BSR set to: 0
 10231                           ;usb/usb_device.c: 1803:     inPipes[0].wCount.Val -= byteToSend;
 10232  0020D6  502C               	movf	USBCtrlTrfTxService@byteToSend,w,c
 10233  0020D8  5FAC               	subwf	(_inPipes+4)& (0+255),f,b	;volatile
 10234  0020DA  0E00               	movlw	0
 10235  0020DC  5BAD               	subwfb	(_inPipes+5)& (0+255),f,b	;volatile
 10236                           
 10237                           ; BSR set to: 0
 10238                           ;usb/usb_device.c: 1808:     pBDTEntryIn[0]->CNT = byteToSend;
 10239  0020DE  EE20 F001          	lfsr	2,1
 10240  0020E2  51AE               	movf	_pBDTEntryIn& (0+255),w,b
 10241  0020E4  26D9               	addwf	fsr2l,f,c
 10242  0020E6  51AF               	movf	(_pBDTEntryIn+1)& (0+255),w,b
 10243  0020E8  22DA               	addwfc	fsr2h,f,c
 10244  0020EA  C02C  FFDF         	movff	USBCtrlTrfTxService@byteToSend,indf2
 10245                           
 10246                           ; BSR set to: 0
 10247                           ;usb/usb_device.c: 1812:     pDst = (volatile uint8_t*)CtrlTrfData;
 10248  0020EE  0E38               	movlw	56
 10249  0020F0  6E0E               	movwf	_pDst,c
 10250  0020F2  0E04               	movlw	4
 10251  0020F4  6E0F               	movwf	_pDst+1,c
 10252                           
 10253                           ; BSR set to: 0
 10254                           ;usb/usb_device.c: 1813:     if(inPipes[0].info.bits.ctrl_trf_mem == 0x00)
 10255  0020F6  A1AB               	btfss	(_inPipes+3)& (0+255),0,b	;volatile
 10256  0020F8  D01C               	goto	i2l3955
 10257  0020FA  D03A               	goto	i2l3965
 10258  0020FC                     i2l3947:
 10259                           
 10260                           ; BSR set to: 0
 10261                           ;usb/usb_device.c: 1816:         {;usb/usb_device.c: 1817:             *pDst++ = *inPipe
      +                          s[0].pSrc.bRom++;
 10262  0020FC  C0A8  FFF6         	movff	_inPipes,tblptrl	;volatile
 10263  002100  C0A9  FFF7         	movff	_inPipes+1,tblptrh	;volatile
 10264  002104  6AF8               	clrf	tblptru,c
 10265  002106  C00E  FFD9         	movff	_pDst,fsr2l
 10266  00210A  C00F  FFDA         	movff	_pDst+1,fsr2h
 10267  00210E  0E07               	movlw	(high __ramtop+-1)
 10268  002110  64F7               	cpfsgt	tblptrh,c
 10269  002112  D003               	bra	i2u229_47
 10270  002114  0008               	tblrd		*
 10271  002116  50F5               	movf	tablat,w,c
 10272  002118  D005               	bra	i2u229_40
 10273  00211A                     i2u229_47:
 10274  00211A  CFF6 FFE1          	movff	tblptrl,fsr1l
 10275  00211E  CFF7 FFE2          	movff	tblptrh,fsr1h
 10276  002122  50E7               	movf	indf1,w,c
 10277  002124                     i2u229_40:
 10278  002124  6EDF               	movwf	indf2,c
 10279  002126  0100               	movlb	0	; () banked
 10280  002128  4BA8               	infsnz	_inPipes& (0+255),f,b	;volatile
 10281  00212A  2BA9               	incf	(_inPipes+1)& (0+255),f,b	;volatile
 10282                           
 10283                           ; BSR set to: 0
 10284  00212C  4A0E               	infsnz	_pDst,f,c
 10285  00212E  2A0F               	incf	_pDst+1,f,c
 10286                           
 10287                           ; BSR set to: 0
 10288                           ;usb/usb_device.c: 1818:             byteToSend--;
 10289  002130  062C               	decf	USBCtrlTrfTxService@byteToSend,f,c
 10290  002132                     i2l3955:
 10291                           
 10292                           ; BSR set to: 0
 10293                           ;usb/usb_device.c: 1815:         while(byteToSend)
 10294  002132  502C               	movf	USBCtrlTrfTxService@byteToSend,w,c
 10295  002134  B4D8               	btfsc	status,2,c
 10296  002136  0012               	return	
 10297  002138  D7E1               	goto	i2l3947
 10298  00213A                     i2l3957:
 10299                           
 10300                           ; BSR set to: 0
 10301                           ;usb/usb_device.c: 1824:         {;usb/usb_device.c: 1825:             *pDst++ = *inPipe
      +                          s[0].pSrc.bRam++;
 10302  00213A  C0A8  FFF6         	movff	_inPipes,tblptrl	;volatile
 10303  00213E  C0A9  FFF7         	movff	_inPipes+1,tblptrh	;volatile
 10304  002142  6AF8               	clrf	tblptru,c
 10305  002144  C00E  FFD9         	movff	_pDst,fsr2l
 10306  002148  C00F  FFDA         	movff	_pDst+1,fsr2h
 10307  00214C  0E07               	movlw	(high __ramtop+-1)
 10308  00214E  64F7               	cpfsgt	tblptrh,c
 10309  002150  D003               	bra	i2u231_47
 10310  002152  0008               	tblrd		*
 10311  002154  50F5               	movf	tablat,w,c
 10312  002156  D005               	bra	i2u231_40
 10313  002158                     i2u231_47:
 10314  002158  CFF6 FFE1          	movff	tblptrl,fsr1l
 10315  00215C  CFF7 FFE2          	movff	tblptrh,fsr1h
 10316  002160  50E7               	movf	indf1,w,c
 10317  002162                     i2u231_40:
 10318  002162  6EDF               	movwf	indf2,c
 10319  002164  0100               	movlb	0	; () banked
 10320  002166  4BA8               	infsnz	_inPipes& (0+255),f,b	;volatile
 10321  002168  2BA9               	incf	(_inPipes+1)& (0+255),f,b	;volatile
 10322                           
 10323                           ; BSR set to: 0
 10324  00216A  4A0E               	infsnz	_pDst,f,c
 10325  00216C  2A0F               	incf	_pDst+1,f,c
 10326                           
 10327                           ; BSR set to: 0
 10328                           ;usb/usb_device.c: 1826:             byteToSend--;
 10329  00216E  062C               	decf	USBCtrlTrfTxService@byteToSend,f,c
 10330  002170                     i2l3965:
 10331                           
 10332                           ; BSR set to: 0
 10333                           ;usb/usb_device.c: 1823:         while(byteToSend)
 10334  002170  502C               	movf	USBCtrlTrfTxService@byteToSend,w,c
 10335  002172  B4D8               	btfsc	status,2,c
 10336  002174  0012               	return	
 10337  002176  D7E1               	goto	i2l3957
 10338  002178                     __end_of_USBCtrlTrfTxService:
 10339                           	opt callstack 0
 10340                           
 10341                           	psect	text55
 10342  000000                     __ptext55:
 10343                           	opt callstack 0
 10344                           
 10345                           	psect	rparam
 10346  0000                     
 10347                           	psect	temp
 10348  000057                     btemp:
 10349                           	opt callstack 0
 10350  000057                     	ds	1
 10351  0000                     int$flags	set	btemp
 10352  0000                     wtemp8	set	btemp+1
 10353  0000                     ttemp5	set	btemp+1
 10354  0000                     ttemp6	set	btemp+4
 10355  0000                     ttemp7	set	btemp+8
 10356                           tosu	equ	0xFFF
 10357                           tosh	equ	0xFFE
 10358                           tosl	equ	0xFFD
 10359                           stkptr	equ	0xFFC
 10360                           pclatu	equ	0xFFB
 10361                           pclath	equ	0xFFA
 10362                           pcl	equ	0xFF9
 10363                           tblptru	equ	0xFF8
 10364                           tblptrh	equ	0xFF7
 10365                           tblptrl	equ	0xFF6
 10366                           tablat	equ	0xFF5
 10367                           prodh	equ	0xFF4
 10368                           prodl	equ	0xFF3
 10369                           indf0	equ	0xFEF
 10370                           postinc0	equ	0xFEE
 10371                           postdec0	equ	0xFED
 10372                           preinc0	equ	0xFEC
 10373                           plusw0	equ	0xFEB
 10374                           fsr0h	equ	0xFEA
 10375                           fsr0l	equ	0xFE9
 10376                           wreg	equ	0xFE8
 10377                           indf1	equ	0xFE7
 10378                           postinc1	equ	0xFE6
 10379                           postdec1	equ	0xFE5
 10380                           preinc1	equ	0xFE4
 10381                           plusw1	equ	0xFE3
 10382                           fsr1h	equ	0xFE2
 10383                           fsr1l	equ	0xFE1
 10384                           bsr	equ	0xFE0
 10385                           indf2	equ	0xFDF
 10386                           postinc2	equ	0xFDE
 10387                           postdec2	equ	0xFDD
 10388                           preinc2	equ	0xFDC
 10389                           plusw2	equ	0xFDB
 10390                           fsr2h	equ	0xFDA
 10391                           fsr2l	equ	0xFD9
 10392                           status	equ	0xFD8


Data Sizes:
    Strings     0
    Constant    237
    Data        408
    BSS         208
    Persistent  0
    Stack       0

Auto Spaces:
    Space          Size  Autos    Used
    COMRAM           94     43      86
    BANK0           160     42     159
    BANK1           256      0      48
    BANK2           256      0       0
    BANK3           256      0       0
    BANK4           192      0       0
    BANK5h          224      0       0
    BANK5l            7      0       0
    BANK6           256      0       0
    BANK7           256      0       0

Pointer List with Targets:

    USER_USB_CALLBACK_EVENT_HANDLER@pdata	PTR void  size(2) Largest target is 2047
		 -> RAM(DATA[2047]), USTATcopy(COMRAM[1]), USBActiveConfiguration(COMRAM[1]), NULL(NULL[0]), 
		 -> BDT(BIGRAMl[48]), 

    memset@dest	PTR void  size(2) Largest target is 48
		 -> inputReport(BIGRAMhl[8]), USBAlternateInterface(COMRAM[2]), BDT(BIGRAMl[48]), UEP1(SFR_1[1]), 

    memset@s	PTR unsigned char  size(2) Largest target is 48
		 -> inputReport(BIGRAMhl[8]), USBAlternateInterface(COMRAM[2]), BDT(BIGRAMl[48]), UEP1(SFR_1[1]), 

    memcpy@d1	PTR void  size(2) Largest target is 8
		 -> SetupPkt(BIGRAMhl[8]), 

    memcpy@d	PTR unsigned char  size(2) Largest target is 8
		 -> SetupPkt(BIGRAMhl[8]), 

    memcpy@s1	PTR const void  size(2) Largest target is 2047
		 -> CtrlTrfData(BIGRAMhl[8]), RAM(DATA[2047]), SetupPkt(BIGRAMhl[8]), 

    memcpy@s	PTR const unsigned char  size(2) Largest target is 2047
		 -> CtrlTrfData(BIGRAMhl[8]), RAM(DATA[2047]), SetupPkt(BIGRAMhl[8]), 

    ep2_out_handle	PTR void  size(2) Largest target is 2047
		 -> RAM(DATA[2047]), NULL(NULL[0]), BDT(BIGRAMl[48]), 

    ep2_handle	PTR void  size(2) Largest target is 2047
		 -> RAM(DATA[2047]), NULL(NULL[0]), BDT(BIGRAMl[48]), 

    S2154$lastOUTTransmission	PTR void  size(2) Largest target is 2047
		 -> RAM(DATA[2047]), NULL(NULL[0]), BDT(BIGRAMl[48]), 

    keyboard.lastOUTTransmission	PTR void  size(2) Largest target is 2047
		 -> RAM(DATA[2047]), NULL(NULL[0]), BDT(BIGRAMl[48]), 

    S2154$lastINTransmission	PTR void  size(2) Largest target is 2047
		 -> RAM(DATA[2047]), NULL(NULL[0]), BDT(BIGRAMl[48]), 

    keyboard.lastINTransmission	PTR void  size(2) Largest target is 2047
		 -> RAM(DATA[2047]), NULL(NULL[0]), BDT(BIGRAMl[48]), 

    USBStdFeatureReqHandler@pUEP	PTR unsigned char  size(2) Largest target is 1
		 -> UEP0(SFR_1[1]), 

    USBStdFeatureReqHandler@p	PTR struct __BDT size(2) Largest target is 2047
		 -> RAM(DATA[2047]), NULL(NULL[0]), BDT(BIGRAMl[48]), 

    sp__memcpy	PTR void  size(2) Largest target is 8
		 -> SetupPkt(BIGRAMhl[8]), 

    USBStdGetStatusHandler@p	PTR struct __BDT size(2) Largest target is 2047
		 -> RAM(DATA[2047]), NULL(NULL[0]), BDT(BIGRAMl[48]), 

    pDst	PTR volatile unsigned char  size(2) Largest target is 8
		 -> CtrlTrfData(BIGRAMhl[8]), NULL(NULL[0]), 

    USBConfigureEndpoint@handle	PTR volatile struct __BDT size(2) Largest target is 48
		 -> BDT(BIGRAMl[48]), 

    pBDTEntryEP0OutCurrent	PTR volatile struct __BDT size(2) Largest target is 48
		 -> NULL(NULL[0]), BDT(BIGRAMl[48]), 

    pBDTEntryEP0OutNext	PTR volatile struct __BDT size(2) Largest target is 2047
		 -> RAM(DATA[2047]), NULL(NULL[0]), BDT(BIGRAMl[48]), 

    USBTransferOnePacket@data	PTR unsigned char  size(2) Largest target is 8
		 -> e2Report(BIGRAMhhl[8]), inputReport(BIGRAMhl[8]), e2outReport(BIGRAMhhh[8]), outputReport(BIGRAMhhl[1]), 

    sp__USBTransferOnePacket	PTR void  size(2) Largest target is 2047
		 -> RAM(DATA[2047]), NULL(NULL[0]), BDT(BIGRAMl[48]), 

    USBTransferOnePacket@handle	PTR volatile struct __BDT size(2) Largest target is 2047
		 -> RAM(DATA[2047]), NULL(NULL[0]), BDT(BIGRAMl[48]), 

    USBEnableEndpoint@p	PTR unsigned char  size(2) Largest target is 1
		 -> UEP0(SFR_1[1]), 

    pBDTEntryOut	PTR volatile struct __BDT[3] size(2) Largest target is 2047
		 -> RAM(DATA[2047]), NULL(NULL[0]), BDT(BIGRAMl[48]), 

    pBDTEntryIn	PTR volatile struct __BDT[3] size(2) Largest target is 2047
		 -> RAM(DATA[2047]), NULL(NULL[0]), BDT(BIGRAMl[48]), 

    S190$pFunc	PTR FTN()void  size(2) Largest target is 1
		 -> USBHIDCBSetReportComplete(), 

    outPipes.pFunc	PTR FTN()void  size(2) Largest target is 1
		 -> USBHIDCBSetReportComplete(), 

    S180$wRam	PTR unsigned short  size(2) Largest target is 0

    outPipes.pDst.wRam	PTR unsigned short  size(2) Largest target is 0

    S180$bRam	PTR unsigned char  size(2) Largest target is 0

    outPipes.pDst.bRam	PTR unsigned char  size(2) Largest target is 0

    S156$wRom	PTR const unsigned short  size(2) Largest target is 0

    inPipes.pSrc.wRom	PTR const unsigned short  size(2) Largest target is 0

    S156$wRam	PTR unsigned short  size(2) Largest target is 0

    inPipes.pSrc.wRam	PTR unsigned short  size(2) Largest target is 0

    S156$bRom	PTR const unsigned char  size(2) Largest target is 0

    inPipes.pSrc.bRom	PTR const unsigned char  size(2) Largest target is 0

    S156$bRam	PTR unsigned char  size(2) Largest target is 0

    inPipes.pSrc.bRam	PTR unsigned char  size(2) Largest target is 0

    sp__memset	PTR void  size(2) Largest target is 48
		 -> inputReport(BIGRAMhl[8]), USBAlternateInterface(COMRAM[2]), BDT(BIGRAMl[48]), UEP1(SFR_1[1]), 

    USB_SD_Ptr	const PTR const unsigned char [3] size(2) Largest target is 52
		 -> sd002(CODE[28]), sd001(CODE[52]), sd000(CODE[4]), 

    USB_CD_Ptr	const PTR const unsigned char [1] size(2) Largest target is 64
		 -> configDescriptor1(CODE[64]), 


Critical Paths under _main in COMRAM

    None.

Critical Paths under _SYS_InterruptHigh in COMRAM

    _SYS_InterruptHigh->_USBDeviceTasks
    _USBDeviceTasks->_USBCtrlEPService
    i2_USBDeviceInit->i2_memset
    _USBWakeFromSuspend->_USER_USB_CALLBACK_EVENT_HANDLER
    _USBSuspend->_USER_USB_CALLBACK_EVENT_HANDLER
    _USBCtrlTrfSetupHandler->_USBCheckStdRequest
    _USBCtrlEPAllowDataStage->_USBCtrlTrfTxService
    _USBCheckStdRequest->_USBStdFeatureReqHandler
    _USBStdSetCfgHandler->_USER_USB_CALLBACK_EVENT_HANDLER
    _USBStdFeatureReqHandler->_USER_USB_CALLBACK_EVENT_HANDLER
    i2_SYSTEM_Initialize->i2_LED_Enable
    _USBCheckHIDRequest->_USBHIDCBSetIdleRateHandler
    _APP_KeyboardInit->_USBEnableEndpoint
    _USBEnableEndpoint->_USBConfigureEndpoint
    _USBCtrlTrfOutHandler->_USBCtrlTrfRxService
    i2_KeyboardProcessOutputReport->i2_LED_Off
    i2_KeyboardProcessOutputReport->i2_LED_On

Critical Paths under _main in BANK0

    _main->_APP_KeyboardTasks
    _USBDeviceInit->_memset
    _SYSTEM_Initialize->_LED_Enable
    _APP_KeyboardTasks->_ProcessKeyboard
    _ProcessKeyboard->_ProcessLine
    _ProcessLine->_AddToSendList
    _KeyboardProcessOutputReport->_LED_Off
    _KeyboardProcessOutputReport->_LED_On

Critical Paths under _SYS_InterruptHigh in BANK0

    None.

Critical Paths under _main in BANK1

    None.

Critical Paths under _SYS_InterruptHigh in BANK1

    None.

Critical Paths under _main in BANK2

    None.

Critical Paths under _SYS_InterruptHigh in BANK2

    None.

Critical Paths under _main in BANK3

    None.

Critical Paths under _SYS_InterruptHigh in BANK3

    None.

Critical Paths under _main in BANK4

    None.

Critical Paths under _SYS_InterruptHigh in BANK4

    None.

Critical Paths under _main in BANK5h

    None.

Critical Paths under _SYS_InterruptHigh in BANK5h

    None.

Critical Paths under _main in BANK5l

    None.

Critical Paths under _SYS_InterruptHigh in BANK5l

    None.

Critical Paths under _main in BANK6

    None.

Critical Paths under _SYS_InterruptHigh in BANK6

    None.

Critical Paths under _main in BANK7

    None.

Critical Paths under _SYS_InterruptHigh in BANK7

    None.

Call Graph Tables:

 ---------------------------------------------------------------------------------
 (Depth) Function   	        Calls       Base Space   Used Autos Params    Refs
 ---------------------------------------------------------------------------------
 (0) _main                                                 0     0      0    9688
                  _APP_KeyboardTasks
                  _SYSTEM_Initialize
                    _USBDeviceAttach
                      _USBDeviceInit
 ---------------------------------------------------------------------------------
 (1) _USBDeviceInit                                        1     1      0    2553
                                             12 BANK0      1     1      0
                             _memset
 ---------------------------------------------------------------------------------
 (1) _USBDeviceAttach                                      0     0      0       0
 ---------------------------------------------------------------------------------
 (1) _SYSTEM_Initialize                                    3     3      0      44
                                              3 BANK0      3     3      0
                      _BUTTON_Enable
                         _LED_Enable
 ---------------------------------------------------------------------------------
 (2) _LED_Enable                                           3     3      0      22
                                              0 BANK0      3     3      0
 ---------------------------------------------------------------------------------
 (2) _BUTTON_Enable                                        0     0      0       0
 ---------------------------------------------------------------------------------
 (1) _APP_KeyboardTasks                                   24    24      0    7091
                                             18 BANK0     24    24      0
        _KeyboardProcessOutputReport
                    _ProcessKeyboard
               _USBTransferOnePacket
                             _memset
 ---------------------------------------------------------------------------------
 (2) _memset                                              12     6      6    2262
                                              0 BANK0     12     6      6
 ---------------------------------------------------------------------------------
 (2) _USBTransferOnePacket                                11     7      4    2195
                                              0 BANK0     11     7      4
 ---------------------------------------------------------------------------------
 (2) _ProcessKeyboard                                      5     5      0    1310
                                             13 BANK0      5     5      0
                        _ProcessLine
                       _SortSendList
 ---------------------------------------------------------------------------------
 (3) _SortSendList                                         7     7      0     294
                                              0 BANK0      7     7      0
 ---------------------------------------------------------------------------------
 (3) _ProcessLine                                         10    10      0     503
                                              3 BANK0     10    10      0
                      _AddToSendList
 ---------------------------------------------------------------------------------
 (4) _AddToSendList                                        3     0      3     135
                                              0 BANK0      3     0      3
 ---------------------------------------------------------------------------------
 (2) _KeyboardProcessOutputReport                          0     0      0      62
                            _LED_Off
                             _LED_On
 ---------------------------------------------------------------------------------
 (3) _LED_On                                               3     3      0      31
                                              0 BANK0      3     3      0
 ---------------------------------------------------------------------------------
 (3) _LED_Off                                              3     3      0      31
                                              0 BANK0      3     3      0
 ---------------------------------------------------------------------------------
 Estimated maximum stack depth 4
 ---------------------------------------------------------------------------------
 (Depth) Function   	        Calls       Base Space   Used Autos Params    Refs
 ---------------------------------------------------------------------------------
 (5) _SYS_InterruptHigh                                   12    12      0   32674
                                             31 COMRAM    12    12      0
                     _USBDeviceTasks
 ---------------------------------------------------------------------------------
 (6) _USBDeviceTasks                                       1     1      0   32674
                                             30 COMRAM     1     1      0
          _USBCtrlEPAllowStatusStage
                   _USBCtrlEPService
      _USBIncrement1msInternalTimers
                    _USBStallHandler
                         _USBSuspend
                 _USBWakeFromSuspend
    _USER_USB_CALLBACK_EVENT_HANDLER
                    i2_USBDeviceInit
 ---------------------------------------------------------------------------------
 (7) i2_USBDeviceInit                                      1     1      0    1233
                                             12 COMRAM     1     1      0
                           i2_memset
 ---------------------------------------------------------------------------------
 (7) _USBWakeFromSuspend                                   0     0      0    4134
    _USER_USB_CALLBACK_EVENT_HANDLER
 ---------------------------------------------------------------------------------
 (7) _USBSuspend                                           0     0      0    4134
    _USER_USB_CALLBACK_EVENT_HANDLER
 ---------------------------------------------------------------------------------
 (7) _USBStallHandler                                      1     1      0       0
                                              0 COMRAM     1     1      0
 ---------------------------------------------------------------------------------
 (7) _USBIncrement1msInternalTimers                        0     0      0       0
 ---------------------------------------------------------------------------------
 (7) _USBCtrlEPService                                     1     1      0   18993
                                             29 COMRAM     1     1      0
                _USBCtrlTrfInHandler
               _USBCtrlTrfOutHandler
             _USBCtrlTrfSetupHandler
                             _memcpy
 ---------------------------------------------------------------------------------
 (8) _memcpy                                              11     5      6     410
                                              0 COMRAM    11     5      6
 ---------------------------------------------------------------------------------
 (8) _USBCtrlTrfSetupHandler                               0     0      0   18266
                 _USBCheckStdRequest
           _USBCtrlEPServiceComplete
    _USER_USB_CALLBACK_EVENT_HANDLER
 ---------------------------------------------------------------------------------
 (9) _USBCtrlEPServiceComplete                             0     0      0      92
            _USBCtrlEPAllowDataStage
          _USBCtrlEPAllowStatusStage
 ---------------------------------------------------------------------------------
 (10) _USBCtrlEPAllowDataStage                             0     0      0      92
                _USBCtrlTrfTxService
 ---------------------------------------------------------------------------------
 (9) _USBCheckStdRequest                                   2     2      0   14040
                                             27 COMRAM     2     2      0
            _USBStdFeatureReqHandler
                _USBStdGetDscHandler
             _USBStdGetStatusHandler
                _USBStdSetCfgHandler
    _USER_USB_CALLBACK_EVENT_HANDLER
 ---------------------------------------------------------------------------------
 (10) _USBStdSetCfgHandler                                 1     1      0    5255
                                             20 COMRAM     1     1      0
    _USER_USB_CALLBACK_EVENT_HANDLER
                           i2_memset
 ---------------------------------------------------------------------------------
 (8) i2_memset                                            12     6      6    1031
                                              0 COMRAM    12     6      6
 ---------------------------------------------------------------------------------
 (10) _USBStdGetStatusHandler                              4     4      0      46
                                              0 COMRAM     4     4      0
 ---------------------------------------------------------------------------------
 (10) _USBStdGetDscHandler                                 2     2      0       0
                                              0 COMRAM     2     2      0
 ---------------------------------------------------------------------------------
 (10) _USBStdFeatureReqHandler                             7     7      0    4605
                                             20 COMRAM     7     7      0
    _USER_USB_CALLBACK_EVENT_HANDLER
 ---------------------------------------------------------------------------------
 (7) _USER_USB_CALLBACK_EVENT_HANDLER                      8     2      6    4134
                                             12 COMRAM     8     2      6
                   _APP_KeyboardInit
             _APP_LEDUpdateUSBStatus
                 _USBCheckHIDRequest
                i2_SYSTEM_Initialize
 ---------------------------------------------------------------------------------
 (8) i2_SYSTEM_Initialize                                  3     3      0      44
                                              3 COMRAM     3     3      0
                    i2_BUTTON_Enable
                       i2_LED_Enable
 ---------------------------------------------------------------------------------
 (9) i2_LED_Enable                                         3     3      0      22
                                              0 COMRAM     3     3      0
 ---------------------------------------------------------------------------------
 (9) i2_BUTTON_Enable                                      0     0      0       0
 ---------------------------------------------------------------------------------
 (8) _USBCheckHIDRequest                                   2     2      0     133
                                              2 COMRAM     2     2      0
         _USBHIDCBSetIdleRateHandler
           _USBHIDCBSetReportHandler
 ---------------------------------------------------------------------------------
 (9) _USBHIDCBSetReportHandler                             0     0      0       0
 ---------------------------------------------------------------------------------
 (9) _USBHIDCBSetIdleRateHandler                           2     1      1     133
                                              0 COMRAM     2     1      1
 ---------------------------------------------------------------------------------
 (8) _APP_LEDUpdateUSBStatus                               2     2      0       0
                                              0 COMRAM     2     2      0
 ---------------------------------------------------------------------------------
 (8) _APP_KeyboardInit                                     0     0      0    1265
                  _USBEnableEndpoint
             i2_USBTransferOnePacket
 ---------------------------------------------------------------------------------
 (9) i2_USBTransferOnePacket                              11     7      4     532
                                              0 COMRAM    11     7      4
 ---------------------------------------------------------------------------------
 (9) _USBEnableEndpoint                                    4     3      1     733
                                              8 COMRAM     4     3      1
               _USBConfigureEndpoint
 ---------------------------------------------------------------------------------
 (10) _USBConfigureEndpoint                                8     7      1     400
                                              0 COMRAM     8     7      1
 ---------------------------------------------------------------------------------
 (8) _USBCtrlTrfOutHandler                                 0     0      0     158
                _USBCtrlTrfRxService
 ---------------------------------------------------------------------------------
 (9) _USBCtrlTrfRxService                                  2     2      0     158
                                              3 COMRAM     2     2      0
          _USBCtrlEPAllowStatusStage
          _USBHIDCBSetReportComplete *
 ---------------------------------------------------------------------------------
 (10) _USBCtrlEPAllowStatusStage                           0     0      0       0
 ---------------------------------------------------------------------------------
 (8) _USBCtrlTrfInHandler                                  1     1      0     159
                                              3 COMRAM     1     1      0
                _USBCtrlTrfTxService
          _USBHIDCBSetReportComplete *
 ---------------------------------------------------------------------------------
 (10) _USBHIDCBSetReportComplete                           0     0      0      44
      i2_KeyboardProcessOutputReport
 ---------------------------------------------------------------------------------
 (11) i2_KeyboardProcessOutputReport                       0     0      0      44
                          i2_LED_Off
                           i2_LED_On
 ---------------------------------------------------------------------------------
 (12) i2_LED_On                                            3     3      0      22
                                              0 COMRAM     3     3      0
 ---------------------------------------------------------------------------------
 (12) i2_LED_Off                                           3     3      0      22
                                              0 COMRAM     3     3      0
 ---------------------------------------------------------------------------------
 (11) _USBCtrlTrfTxService                                 1     1      0      92
                                              0 COMRAM     1     1      0
 ---------------------------------------------------------------------------------
 Estimated maximum stack depth 12
 ---------------------------------------------------------------------------------

 Call Graph Graphs:

 _main (ROOT)
   _APP_KeyboardTasks
     _KeyboardProcessOutputReport
       _LED_Off
       _LED_On
     _ProcessKeyboard
       _ProcessLine
         _AddToSendList
       _SortSendList
     _USBTransferOnePacket
     _memset
   _SYSTEM_Initialize
     _BUTTON_Enable
     _LED_Enable
   _USBDeviceAttach
   _USBDeviceInit
     _memset

 _SYS_InterruptHigh (ROOT)
   _USBDeviceTasks
     _USBCtrlEPAllowStatusStage
     _USBCtrlEPService
       _USBCtrlTrfInHandler
         _USBCtrlTrfTxService
         _USBHIDCBSetReportComplete *
           i2_KeyboardProcessOutputReport
             i2_LED_Off
             i2_LED_On
       _USBCtrlTrfOutHandler
         _USBCtrlTrfRxService
           _USBCtrlEPAllowStatusStage
           _USBHIDCBSetReportComplete *
             i2_KeyboardProcessOutputReport
               i2_LED_Off
               i2_LED_On
       _USBCtrlTrfSetupHandler
         _USBCheckStdRequest
           _USBStdFeatureReqHandler
             _USER_USB_CALLBACK_EVENT_HANDLER
               _APP_KeyboardInit
                 _USBEnableEndpoint
                   _USBConfigureEndpoint
                 i2_USBTransferOnePacket
               _APP_LEDUpdateUSBStatus
               _USBCheckHIDRequest
                 _USBHIDCBSetIdleRateHandler
                 _USBHIDCBSetReportHandler
               i2_SYSTEM_Initialize
                 i2_BUTTON_Enable
                 i2_LED_Enable
           _USBStdGetDscHandler
           _USBStdGetStatusHandler
           _USBStdSetCfgHandler
             _USER_USB_CALLBACK_EVENT_HANDLER
               _APP_KeyboardInit
                 _USBEnableEndpoint
                   _USBConfigureEndpoint
                 i2_USBTransferOnePacket
               _APP_LEDUpdateUSBStatus
               _USBCheckHIDRequest
                 _USBHIDCBSetIdleRateHandler
                 _USBHIDCBSetReportHandler
               i2_SYSTEM_Initialize
                 i2_BUTTON_Enable
                 i2_LED_Enable
             i2_memset
           _USER_USB_CALLBACK_EVENT_HANDLER
             _APP_KeyboardInit
               _USBEnableEndpoint
                 _USBConfigureEndpoint
               i2_USBTransferOnePacket
             _APP_LEDUpdateUSBStatus
             _USBCheckHIDRequest
               _USBHIDCBSetIdleRateHandler
               _USBHIDCBSetReportHandler
             i2_SYSTEM_Initialize
               i2_BUTTON_Enable
               i2_LED_Enable
         _USBCtrlEPServiceComplete
           _USBCtrlEPAllowDataStage
             _USBCtrlTrfTxService
           _USBCtrlEPAllowStatusStage
         _USER_USB_CALLBACK_EVENT_HANDLER
           _APP_KeyboardInit
             _USBEnableEndpoint
               _USBConfigureEndpoint
             i2_USBTransferOnePacket
           _APP_LEDUpdateUSBStatus
           _USBCheckHIDRequest
             _USBHIDCBSetIdleRateHandler
             _USBHIDCBSetReportHandler
           i2_SYSTEM_Initialize
             i2_BUTTON_Enable
             i2_LED_Enable
       _memcpy
     _USBIncrement1msInternalTimers
     _USBStallHandler
     _USBSuspend
       _USER_USB_CALLBACK_EVENT_HANDLER
         _APP_KeyboardInit
           _USBEnableEndpoint
             _USBConfigureEndpoint
           i2_USBTransferOnePacket
         _APP_LEDUpdateUSBStatus
         _USBCheckHIDRequest
           _USBHIDCBSetIdleRateHandler
           _USBHIDCBSetReportHandler
         i2_SYSTEM_Initialize
           i2_BUTTON_Enable
           i2_LED_Enable
     _USBWakeFromSuspend
       _USER_USB_CALLBACK_EVENT_HANDLER
         _APP_KeyboardInit
           _USBEnableEndpoint
             _USBConfigureEndpoint
           i2_USBTransferOnePacket
         _APP_LEDUpdateUSBStatus
         _USBCheckHIDRequest
           _USBHIDCBSetIdleRateHandler
           _USBHIDCBSetReportHandler
         i2_SYSTEM_Initialize
           i2_BUTTON_Enable
           i2_LED_Enable
     _USER_USB_CALLBACK_EVENT_HANDLER
       _APP_KeyboardInit
         _USBEnableEndpoint
           _USBConfigureEndpoint
         i2_USBTransferOnePacket
       _APP_LEDUpdateUSBStatus
       _USBCheckHIDRequest
         _USBHIDCBSetIdleRateHandler
         _USBHIDCBSetReportHandler
       i2_SYSTEM_Initialize
         i2_BUTTON_Enable
         i2_LED_Enable
     i2_USBDeviceInit
       i2_memset

 Address spaces:
Name               Size   Autos  Total    Cost      Usage
BIGRAMl            3FF      0     198      26       39.9%
BIGRAMhhh          2E0      0       0      23        0.0%
EEDATA             100      0       0       0        0.0%
BITBANK7           100      0       0      21        0.0%
BANK7              100      0       0      22        0.0%
BITBANK6           100      0       0      19        0.0%
BANK6              100      0       0      20        0.0%
BITBANK3           100      0       0      11        0.0%
BANK3              100      0       0      12        0.0%
BITBANK2           100      0       0       9        0.0%
BANK2              100      0       0      10        0.0%
BITBANK1           100      0       0       6        0.0%
BANK1              100      0      30       7       18.8%
BANK5h              E0      0       0      17        0.0%
BITBANK5h           E0      0       0      15        0.0%
BIGRAMhl            C0      0       0      25        0.0%
BITBANK4            C0      0       0      13        0.0%
BANK4               C0      0       0      14        0.0%
BITBANK0            A0      0       0       4        0.0%
BANK0               A0     2A      9F       5       99.4%
BITCOMRAM           5E      0       0       0        0.0%
COMRAM              5E     2B      56       1       91.5%
BIGRAMhhl            7      0       0      24        0.0%
BITBANK5l            7      0       0      16        0.0%
BANK5l               7      0       0      18        0.0%
BITSFR_1             0      0       0     200        0.0%
SFR_1                0      0       0     200        0.0%
BITSFR               0      0       0     200        0.0%
SFR                  0      0       0     200        0.0%
STACK                0      0       0       2        0.0%
NULL                 0      0       0       0        0.0%
ABS                  0      0     125       8        0.0%
DATA                 0      0     2BD       3        0.0%
CODE                 0      0       0       0        0.0%


Microchip Technology PIC18 Macro Assembler V2.05 build -831301201 
Symbol Table                                                                                   Tue Apr 27 06:27:41 2021

                                _USB_SD_Ptr 0801                                 ?_LED_Enable 002C  
                             _USBDeviceInit 1580                          _USBCheckHIDRequest 1A16  
          __end_of_USBHIDCBSetReportHandler 2D50                                __CFG_CP0$OFF 000000  
                              __CFG_CP1$OFF 000000                                __CFG_CP2$OFF 000000  
                              __CFG_CP3$OFF 000000        USER_USB_CALLBACK_EVENT_HANDLER@event 0038  
      USER_USB_CALLBACK_EVENT_HANDLER@pdata 003A                                         l230 2C5C  
                                       l231 2C5A                 __end_of_USBStdGetDscHandler 11EA  
                                       l516 28B8                                         l633 24EE  
                                       l625 19E0                                         l641 268E  
                                       l803 2AE2                                         l643 26B6  
                                       l660 08FE                                         l805 2AE6  
                                       l645 26DE                                         l806 2AEA  
                                       l662 093E                                         l830 2950  
                                       l656 08F8                                         l832 2958  
                                       l833 2960                                         l682 0AB6  
                                       l684 0AF2                                         _BDT 000400  
                                       l794 2AA4                                         l699 0C0E  
                                       l796 2AA8                                         l797 2AAC  
                              __CFG_CPB$OFF 000000                                __CFG_CPD$OFF 000000  
                                       _UIE 000F64                                         _UIR 000F65  
                    _APP_LEDUpdateUSBStatus 2788                                  _USBSuspend 2CC2  
                      USBStdSetCfgHandler@i 0040                                         prod 000FF3  
                                       tosl 000FFD                                         wreg 000FE8  
                            _USBDeviceTasks 17D8                         ?_USBCheckHIDRequest 002C  
                            _USBDeviceState 0025                               _BUTTON_Enable 2C66  
              ?_KeyboardProcessOutputReport 002C                       ??_USBCtrlTrfRxService 002F  
                  __size_ofi2_USBDeviceInit 012C                    USBEnableEndpoint@options 0034  
                              __CFG_LVP$OFF 000000                             __end_of_LED_Off 2B1A  
                USBConfigureEndpoint@handle 0032                             ProcessLine@filt 00DF  
                                      l6111 0AEA                                        l6121 0B1E  
                                      l6133 0B46                                        l6053 09BA  
                                      l6037 095A                                        l6029 0906  
                                      l6205 2D5E                                        l6151 0B98  
                                      l6143 0B66                                        l6129 0B3E  
                                      l6065 0A10                                        l6049 099E  
                                      l6171 0C06                                        l6163 0BCA  
                                      l6155 0BA0                                        l6147 0B88  
                                      l6139 0B5A                                        l6075 0A24  
                                      l6059 09D0                                        l6067 0A12  
                                      l6181 0C3A                                        l6191 0C76  
                                      l6159 0BC6                                        l6079 0A4A  
                                      l6169 0C00                                        l6089 0A72  
                                      l6097 0AB0                                        l5731 254A  
                                      l5741 2AB0                                        l5901 2A82  
                                      l5805 1B66                                        l5903 2A88  
                                      l5727 2504                                        l5671 196A  
                                      l5663 190A                                        l5911 28AC  
                                      l5753 2AEE                                        l5681 19D2  
                                      l5817 1BE4                                        l5907 2A96  
                                      l5667 193A                                        l5683 19D4  
                                      l5771 1230                                        l5827 2968  
                                      l5925 28D8                                        l5679 19A0  
                                      l5791 1314                                        l5783 12CC  
                                      l5951 15BE                                        l5785 12FE  
                                      l5777 1294                                        l5963 15E8  
                                      l5797 1B3C                                        l5895 2A6E  
                                      l5897 2A74                                        l5979 1616  
                     ??i2_SYSTEM_Initialize 002F                                        _LATB 000F8A  
                                      _LATC 000F8B                                        _LATD 000F8C  
                                      u4400 0A1A                                        u4500 0B3A  
                                      u4420 0A52                                        u4350 0974  
                                      u4600 0C52                                        u4530 0B90  
                                      u4370 09C2                                        u4620 0C8C  
                                      u4461 0A82                                        u4571 0BF8  
                                      u4637 24DE                       ??_USBCtrlTrfTxService 002C  
                                      _UCFG 000F62                                        _UEP0 000F6A  
                                      _UEP1 000F6B                                        _UEIE 000F66  
                                      _UEIR 000F67                                        _UCON 000F60  
    USBStdFeatureReqHandler@current_ep_data 0044                                        _pDst 000E  
                                      _main 2D50                    ??i2_USBTransferOnePacket 0030  
                                      fsr1h 000FE2                                        fsr2h 000FDA  
                                      indf1 000FE7                                        indf2 000FDF  
                                      fsr1l 000FE1                                        fsr2l 000FD9  
                           _USBDeviceAttach 2C36                                        btemp 0057  
                             __CFG_BORV$190 000000                                        prodh 000FF4  
                                      prodl 000FF3                                        start 0072  
                  __size_ofi2_BUTTON_Enable 002E                               __CFG_IESO$OFF 000000  
                      ??_USBCheckHIDRequest 002E                  __end_of_USBCheckStdRequest 1EF8  
                    ??_USBCtrlTrfOutHandler 0031                               _LocalSOFCount 00D1  
                             __CFG_MCLRE$ON 000000                                ___param_bank 000000  
                 ??_USBStdFeatureReqHandler 0040                                 _CharKeyList 0060  
                  ??_USBStdGetStatusHandler 002C                              ?_USBDeviceInit 002C  
                        __size_ofi2_LED_Off 003A                                       ?_main 002C  
         __size_of_USBCtrlEPServiceComplete 00E0                      __end_of_USBDeviceTasks 18FC  
                 ?_USBCtrlEPServiceComplete 002C                                       i2l321 22E6  
                                     i2l322 2258                                       i2l323 225E  
                                     i2l332 2A5C                                       i2l181 1800  
                                     i2l318 2248                                       i2l407 0E04  
                                     i2l255 1F70                                       i2l191 188C  
                                     i2l193 1894                                       i2l516 290A  
                                     i2l381 1E24                            __end_ofi2_LED_On 2B92  
                                     i2l390 1E72                                       i2l367 1DE0  
                                     i2l803 2B96                                       i2l396 0CD4  
                                     i2l805 2B9A                                       i2l806 2B9E  
                                     i2l830 2998                                       i2l832 29A0  
                                     i2l833 29A8                                       i2l589 2720  
                                     i2l794 2B5C                                       _UADDR 000F63  
                                     i2l796 2B60                                       i2l797 2B64  
                            __pidataBIGRAMl 0F1A                                       _PORTA 000F80  
                                     _TRISA 000F92                                       _TRISB 000F93  
                                     _TRISC 000F94                                       _TRISD 000F95  
                                     _USTAT 000F61                                _outputReport 000508  
                             __CFG_WRT0$OFF 000000          __size_of_USBCtrlEPAllowStatusStage 00C4  
                             __CFG_WRT1$OFF 000000                               __CFG_WRT2$OFF 000000  
                             __CFG_WRT3$OFF 000000          __end_of_USBHIDCBSetIdleRateHandler 2D76  
                            __CFG_EBTR0$OFF 000000                              __CFG_FCMEN$OFF 000000  
                _USBHIDCBSetIdleRateHandler 2D64                              ?_BUTTON_Enable 002C  
                            __CFG_EBTR1$OFF 000000                              __CFG_EBTR2$OFF 000000  
                            __CFG_EBTR3$OFF 000000             __end_of_USBCtrlEPAllowDataStage 239A  
                                     _sd000 08EA                                       _sd001 0888  
                                     _sd002 08BC                               __CFG_WRTB$OFF 000000  
            ?_USBIncrement1msInternalTimers 002C                               __CFG_WRTC$OFF 000000  
                             __CFG_WRTD$OFF 000000                     __end_of_ProcessKeyboard 2704  
                          ProcessKeyboard@n 00E2                              __CFG_EBTRB$OFF 000000  
                           ??_AddToSendList 00D8               ??_KeyboardProcessOutputReport 00D8  
                                     pclath 000FFA                                       tablat 000FF5  
                       __size_of_LED_Enable 004A                                       plusw1 000FE3  
                                     plusw2 000FDB                                       ttemp5 0058  
                                     ttemp6 005B                                       ttemp7 005F  
                                     status 000FD8                              __CFG_T3CMX$RC0 000000  
                                     wtemp8 0058                              __CFG_ICPRT$OFF 000000  
                          __end_ofi2_memset 1450                                  _ModKeyList 0118  
              __size_of_USBStdSetCfgHandler 00D4                             __initialization 2850  
                          SortSendList@5619 00D7                                __end_of_main 2D64  
                             SortSendList@i 00DB                               SortSendList@j 00DA  
                            __CFG_PCLKEN$ON 000000                        AddToSendList@keyCode 00D5  
                 __size_of_USBCtrlEPService 0096                                      ??_main 00FF  
                             __activetblptr 000002                             ?_USBDeviceTasks 002C  
                               ?_USBSuspend 002C                                   ??_LED_Off 00D5  
                  _USBHIDCBSetReportHandler 2D32                              __CFG_SDOMX$RC7 000000  
                           __CFG_CCP2MX$RC1 000000                     __end_of_USBDeviceAttach 2C66  
                                    _ACTCON 000FB5                           ProcessLine@lineNo 00DC  
                                    _ANSELA 000F5B                                      _ANSELB 000F5C  
                                    _ANSELC 000F5D                                      _ANSELD 000F5E  
                    SYSTEM_Initialize@state 00DA                                      i2l4001 13C6  
                                    i2l4031 21C0                                      i2l4015 1446  
                                    i2l4007 13FE                                      _LED_On 2A9E  
                                    i2l4009 1430                                      i2l4115 10C4  
                                    i2l4107 208A                                      i2l4141 11C4  
                                    i2l4061 234A                                      i2l4223 0DA4  
                                    i2l4135 11B4                                      i2l4127 115E  
                                    i2l4119 10D8                                      i2l4303 1F96  
                                    i2l4233 0DEC                                      i2l4217 0D82  
                                    i2l4209 0D3C                                      i2l4137 11BC  
                                    i2l4129 1166                                      i2l4161 2286  
                                    i2l4401 1E8A                                      i2l4065 2366  
                                    i2l4331 147E                                      i2l4235 0E1E  
                                    i2l4171 22C2                                      i2l4261 0EEA  
                                    i2l4245 0E6A                                      i2l4085 201A  
                                    i2l4405 1EA8                                      i2l4421 29EC  
                                    i2l5213 1882                                      i2l5205 185E  
                                    i2l4503 1DC6                                      i2l4263 0EF6  
                                    i2l4255 0EA8                                      i2l4247 0E76  
                                    i2l4513 1E0E                                      i2l4353 1510  
                                    i2l4337 149C                                      i2l4193 0CD0  
                                    i2l5241 18F0                                      i2l5233 18B8  
                                    i2l5161 17F8                                      i2l5153 17EC  
                                    i2l4283 1F1A                                      i2l4349 14F6  
                                    i2l4461 2802                                      i2l3709 1CE6  
                                    i2l3821 27B6                                      i2l3725 29B0  
                                    i2l3901 23B2                                      i2l4429 2A0C  
                                    i2l5181 181C                                      i2l3655 25BE  
                                    i2l3751 1A50                                      i2l3743 1A32  
                                    i2l3903 23BC                                      i2l4391 1E5A  
                                    i2l4375 1E2E                                      i2l4295 1F82  
                                    i2l4711 24B8                                      i2l5239 18D4  
                                    i2l5175 1812                                      i2l3665 2BDC  
                                    i2l3809 278E                                      i2l3761 1A82  
                                    i2l3905 23C8                                      i2l3913 23E0  
                                    i2l4377 1E34                                      i2l4483 1D60  
                                    i2l3835 27D6                                      i2l3907 23D4  
                                    i2l4387 1E4E                                      i2l4379 1E3A  
                                    i2l5187 1840                                      i2l3933 20CC  
                                    i2l4485 1D64                                      i2l4469 284A  
                                    i2l3669 2BEA                                      i2l3837 27EE  
                                    i2l3773 1AB0                                      i2l3765 1A92  
                                    i2l3749 1A4A                                      i2l3853 28FE  
                                    i2l3909 23DA                                      i2l4389 1E54  
                                    i2l4709 24B2                                      i2l4653 2C2A  
                                    i2l3847 2728                                      i2l3767 1A98  
                                    i2l3791 1AEC                                      i2l3759 1A64  
                                    i2l4655 2C2C                                      i2l5199 1854  
                                    i2l3937 20D6                                      i2l4497 1DA6  
                                    i2l3697 1C68                                      i2l3689 1C3E  
                                    i2l3785 1AE0                                      i2l4833 16E6  
                                    i2l3947 20FC                                      i2l3955 2132  
                                    i2l3971 2B28                                      i2l3779 1AC8  
                                    i2l3867 292A                                      i2l4691 2A5A  
                                    i2l3957 213A                                      i2l3965 2170  
                                    i2l3877 2B68                                      i2l3973 2B2E  
                                    i2l4861 1740                                      i2l4845 1710  
                                    i2l3887 2BA2                                      i2l3983 2B50  
                                    i2l3895 239C                                      i2l3977 2B3C  
                                    i2l6633 23F8                                      i2l3979 2B42  
                                    i2l6635 242C                                      i2l3995 1362  
                            _ep2_out_handle 00CD                           __end_ofi2_LED_Off 2BCC  
                                    _OSCCON 000FD3                    i2USBTransferOnePacket@ep 0034  
                         ??i2_USBDeviceInit 0038             __size_ofi2_USBTransferOnePacket 0102  
                         _shortPacketStatus 0024                              __CFG_XINST$OFF 000000  
                          _APP_KeyboardInit 2704                             USBDeviceTasks@i 004A  
               USBStdFeatureReqHandler@pUEP 0042                    USBTransferOnePacket@data 00D6  
                USBCtrlTrfInHandler@lastDTS 002F                             ??_USBDeviceInit 00E1  
                            __CFG_STVREN$ON 000000                           ??i2_BUTTON_Enable 002C  
                         _USBEnableEndpoint 2BCC             __size_of_USBStdGetStatusHandler 00C0  
                                    _memcpy 29DA                               ?i2_LED_Enable 002C  
                                    _memset 11EA                                      clear_0 287A  
                                    clear_1 2886                                      clear_2 2892  
                        ?_USBEnableEndpoint 0034               __size_of_USBTransferOnePacket 0106  
                           ??_BUTTON_Enable 00D5                                __mediumconst 0000  
                                    tblptrh 000FF7                                      tblptrl 000FF6  
                                    tblptru 000FF8                               ??_ProcessLine 00D8  
                               _OldSOFCount 000A                         ??_USBEnableEndpoint 0035  
                        APP_KeyboardTasks@i 00FC                          APP_KeyboardTasks@j 00F4  
                          ?_ProcessKeyboard 002C                                 _CtrlTrfData 000438  
        USBHIDCBSetIdleRateHandler@reportID 002D                        _controlTransferState 0023  
                      __CFG_LS48MHZ$SYS24X4 000000                           _SYSTEM_Initialize 28A6  
                                __accesstop 0060                     __end_of__initialization 2898  
                                _ep2_handle 00CF                             __CFG_PBADEN$OFF 000000  
                        ?_SYSTEM_Initialize 002C                               ___rparam_used 000001  
                  __size_of_USBStallHandler 0042                                   ?i2_LED_On 002C  
                       __size_of_USBSuspend 002C                              __pcstackCOMRAM 002C  
                 __end_of_USBEnableEndpoint 2C04                            __CFG_nPWRTEN$OFF 000000  
                             __end_of_sd000 08EE                               __end_of_sd001 08BC  
                             __end_of_sd002 08D8                         ??_SYSTEM_Initialize 00D8  
                                 LED_On@led 00D7            __size_of_USBCtrlEPAllowDataStage 009E  
                            ??i2_LED_Enable 002C                             _active_protocol 0028  
                         SortSendList@F5618 0005                                ??_LED_Enable 00D5  
             __size_of_USBConfigureEndpoint 0094                 __end_of_USBCtrlTrfInHandler 1E14  
                   ?_APP_LEDUpdateUSBStatus 002C                      i2_USBTransferOnePacket 1C28  
                               _e2outReport 000518                              __CFG_nLPBOR$ON 000000  
                     ProcessKeyboard@n_2367 00E3                       ProcessKeyboard@n_2368 00E4  
                                 ?i2_memset 002C                               _CharListCount 0016  
                  ??_USBCtrlTrfSetupHandler 0049                     _USBTicksSinceSuspendEnd 0018  
                          ?_USBDeviceAttach 002C                   __end_of_SYSTEM_Initialize 28FA  
                    _USBStdGetStatusHandler 223C                                  __pbssBANK0 0060  
                                __pbssBANK1 0100                                     ?_LED_On 002C  
                       __end_of_ProcessLine 255C                                _EP2ListCount 0014  
                        __end_of_LED_Enable 2994                 __size_of_USBWakeFromSuspend 0032  
                               _pBDTEntryIn 00AE            __end_of_USBCtrlEPServiceComplete 1FD8  
                                ??i2_LED_On 002C                           __CFG_PLLSEL$PLL3X 000000  
                      USBCtrlTrfRxService@i 002F                               LED_Enable@led 00D7  
            __end_of_APP_LEDUpdateUSBStatus 27F4                                     ?_memcpy 002C  
                                   ?_memset 00D5                          ProcessLine@readBuf 00DE  
                                _device_dsc 08D8                                i2LED_Off@led 002E  
                          _USBCtrlEPService 2432                                  _ep_data_in 00CA  
                        ProcessLine@tempBuf 00DD                 __end_of_USBCtrlTrfRxService 1580  
                        _USBCheckStdRequest 1E14                           _configDescriptor1 0809  
                                   _LED_Off 2ADC                             __CFG_WDTEN$SWON 000000  
               __end_ofi2_SYSTEM_Initialize 294A                                  ??i2_memset 0032  
    APP_KeyboardTasks@TimeDeltaMilliseconds 00F5                 __end_of_USBCtrlTrfTxService 2178  
                       _USBStdSetCfgHandler 1FD8                                     _OSCCON2 000FD2  
               ?_USBHIDCBSetIdleRateHandler 002C                               _old_ep2report 0090  
                                   _OSCTUNE 000F9B                         ?_USBCheckStdRequest 002C  
              __size_of_USBStdGetDscHandler 0138                                     _UIEbits 000F64  
                                   _UIRbits 000F65                            __CFG_CFGPLLEN$ON 000000  
                           __size_of_LED_On 003E                               _SendListCount 0017  
            APP_LEDUpdateUSBStatus@ledCount 0008                                     __Hparam 0000  
           ??_USBIncrement1msInternalTimers 002C                        ?_USBStdSetCfgHandler 002C  
               __size_of_USBCheckHIDRequest 010C                                     __Lparam 0000  
                         _APP_KeyboardTasks 08F0                           __end_of_hid_rpt01 0888  
                __size_of_USBEnableEndpoint 0038                        ??_USBCheckStdRequest 0047  
             __size_of_USBCtrlTrfOutHandler 005C                          ?_APP_KeyboardTasks 002C  
                          ??_USBDeviceTasks 004A                  ??_USBHIDCBSetReportHandler 002C  
                         ??_USBStallHandler 002C                                __psmallconst 0800  
                          _keyboardIdleRate 00D3                                     __pcinit 2850  
                           __size_of_memcpy 0044                             __size_of_memset 0134  
                 __end_of_configDescriptor1 0849                                     __ramtop 0800  
                                   __ptext0 2D50                                     __ptext1 1580  
                                   __ptext2 2C36                                     __ptext3 28A6  
                                   __ptext4 294A                                     __ptext5 2C66  
                                   __ptext6 08F0                                     __ptext7 11EA  
                                   __ptext8 1B22                                     __ptext9 2680  
                              i2memset@dest 002C                                     _inPipes 00A8  
               _USBDeferOUTDataStagePackets 0019                         ??_APP_KeyboardTasks 00E7  
                              ??_USBSuspend 0040                    __end_of_APP_KeyboardInit 2788  
                           i2_USBDeviceInit 16AC                            i2USBDeviceInit@i 0038  
                               _ProcessLine 24C8                          __end_of_USB_CD_Ptr 0809  
                __size_of_SYSTEM_Initialize 0054             __size_of_USBCtrlTrfSetupHandler 0090  
                      end_of_initialization 2898                       __end_of_AddToSendList 2D14  
                      __end_ofi2_LED_Enable 29DA                          __end_of_USB_SD_Ptr 0807  
                             __pdataBIGRAMl 0520                                     memcpy@d 0032  
                                   memcpy@n 0030                                     memcpy@s 0034  
                       _pBDTEntryEP0OutNext 0010                                     memset@c 00D7  
                                   memset@k 00DD                                     memset@n 00D9  
                                   memset@s 00DF                               __Lmediumconst 0000  
                           _USB1msTickCount 0001                             i2_BUTTON_Enable 2C94  
                  ?_USBStdFeatureReqHandler 002C                   __end_of_APP_KeyboardTasks 0CAC  
                  ProcessKeyboard@latWriter 00E6                                   i2_LED_Off 2B92  
                     ??_USBStdSetCfgHandler 0040                          __end_of_USBSuspend 2CEE  
                   _USBCtrlEPAllowDataStage 22FC                                     postdec1 000FE5  
                                   postdec2 000FDD                                     postinc0 000FEE  
                                   postinc1 000FE6                                     postinc2 000FDE  
                  _USBCtrlEPServiceComplete 1EF8                  _USBStatusStageEnabledFlag1 001C  
                _USBStatusStageEnabledFlag2 001B                          USBEnableEndpoint@p 0035  
                                 _PORTBbits 000F81         __end_of_KeyboardProcessOutputReport 2A9E  
            ?i2_KeyboardProcessOutputReport 002C                 _KeyboardProcessOutputReport 2A60  
                                 _TRISEbits 000F96                               ?_SortSendList 002C  
                        _BothEP0OutUOWNsSet 001F                   USBConfigureEndpoint@EPNum 0031  
                ?_USBCtrlEPAllowStatusStage 002C         USER_USB_CALLBACK_EVENT_HANDLER@size 003C  
                                 _USTATcopy 002A                __end_of_USBTransferOnePacket 1C28  
                            __end_of_LED_On 2ADC                     APP_KeyboardTasks@j_2403 00FE  
                   APP_KeyboardTasks@j_2423 00FD                     APP_KeyboardTasks@j_2415 00F7  
                   APP_KeyboardTasks@j_2424 00FB                     APP_KeyboardTasks@j_2416 00F8  
                   APP_KeyboardTasks@j_2417 00F9                     APP_KeyboardTasks@j_2418 00FA  
                                 _CodeChart 0520                                  ?i2_LED_Off 002C  
                    _USBCtrlTrfSetupHandler 25F0                                _ModListCount 0015  
                         __size_ofi2_LED_On 003A                     ?i2_USBTransferOnePacket 002C  
                     __end_of_USBDeviceInit 16AC       __end_of_USBIncrement1msInternalTimers 2D32  
    __size_of_USBIncrement1msInternalTimers 001E               _USBIncrement1msInternalTimers 2D14  
                                LED_Off@led 00D7                     __end_ofi2_USBDeviceInit 17D8  
                                 i2memset@c 002E                                   i2memset@k 0034  
                                 i2memset@n 0030                                   i2memset@s 0036  
                            __end_of_memcpy 2A1E          __size_of_USBHIDCBSetReportComplete 000A  
                            __end_of_memset 131E                  ?_USBHIDCBSetReportComplete 002C  
                         _USBBusIsSuspended 0021                         start_initialization 2850  
                            ??_SortSendList 00D5                     ?_USBStdGetStatusHandler 002C  
                  i2SYSTEM_Initialize@state 0031                       __end_of_BUTTON_Enable 2C94  
             USBCtrlTrfRxService@byteToRead 0030                              _oldInputReport 0098  
                   __end_ofi2_BUTTON_Enable 2CC2                           __size_ofi2_memset 0132  
              __end_of_USBConfigureEndpoint 25F0             __end_of_USBStdFeatureReqHandler 0F1A  
                                  ??_LED_On 00D5           __end_of_USBCtrlEPAllowStatusStage 223C  
                  __end_of_USBCtrlEPService 24C8                  __size_of_APP_KeyboardTasks 03BC  
                  __size_of_ProcessKeyboard 0084                   ??_USBCtrlEPAllowDataStage 002D  
                            USBDeviceInit@i 00E1                      _pBDTEntryEP0OutCurrent 0012  
                   USBTransferOnePacket@dir 00D5                     USBTransferOnePacket@len 00D8  
            __end_ofi2_USBTransferOnePacket 1D2A                         _USBStdGetDscHandler 10B2  
                                  ??_memcpy 0032                                    ??_memset 00DB  
                                memset@dest 00D5                      _USBActiveConfiguration 002B  
            __end_of_USBStdGetStatusHandler 22FC                                    ?_LED_Off 002C  
         __end_of_USBHIDCBSetReportComplete 2D80                                 __pbssCOMRAM 0001  
                             __pcstackBANK0 00D5                __size_of_USBCtrlTrfInHandler 00EA  
                     __size_ofi2_LED_Enable 0046                        ?_USBStdGetDscHandler 002C  
                __end_of_USBWakeFromSuspend 2C36                             _USBStallHandler 2A1E  
                              _pBDTEntryOut 00B4                                 ??i2_LED_Off 002C  
                  __size_of_USBDeviceAttach 0030                                   __pintcode 0008  
                               i2LED_On@led 002E                                   _hid_rpt01 0849  
                                 _idle_rate 0029                                i2_LED_Enable 2994  
                          ?i2_USBDeviceInit 002C                        _USBTransferOnePacket 1B22  
                               __smallconst 0800                __end_of_USBCtrlTrfOutHandler 2850  
                              ?_ProcessLine 002C                           ?_APP_KeyboardInit 002C  
                     ??_USBStdGetDscHandler 002C                                 _ep_data_out 00C7  
                          ?i2_BUTTON_Enable 002C                __size_of_USBCtrlTrfRxService 0130  
             USBConfigureEndpoint@direction 002C                          ??_APP_KeyboardInit 0038  
              __size_ofi2_SYSTEM_Initialize 0050                __size_of_USBCtrlTrfTxService 00CC  
                                  _LATEbits 000F8D                  __end_of_USBCheckHIDRequest 1B22  
                ??_USBCtrlEPServiceComplete 002D                                    _IPR3bits 000FA5  
                                  _PIE3bits 000FA3                                    i2_LED_On 2B58  
                                  i2u231_40 2162                                    i2u231_47 2158  
                                  i2u224_40 23AC                                    i2u305_48 1DF6  
                                  i2u218_40 27AC                                    i2u305_49 1E0A  
                                  i2u251_40 1128                                    i2u251_47 111E  
                                  i2u252_40 1158                                    i2u252_47 114E  
                                  i2u229_40 2124                                    i2u229_47 211A  
                                  i2u254_40 11A8                                    i2u254_47 119E  
                                  i2u291_48 155C                                    i2u291_49 1570  
                                  i2u277_40 0E90                                    _PIR3bits 000FA4  
                      __end_of_SortSendList 1A16                                    i2u398_40 18F8  
                                  _RCONbits 000FD0                            __CFG_WDTPS$32768 000000  
                                  _UEP0bits 000F6A                  _USBDeferINDataStagePackets 001A  
               __size_of_USBCheckStdRequest 00E4                           ??_ProcessKeyboard 00E2  
                                  _UCONbits 000F60                        _USBConfigureEndpoint 255C  
                    APP_KeyboardTasks@F5641 00C1                      APP_KeyboardTasks@F5643 00BE  
                    APP_KeyboardTasks@F5639 00C4            __size_of_USBStdFeatureReqHandler 026E  
                     ?_USBTransferOnePacket 00D5                             i2LED_Enable@led 002E  
                         _SYS_InterruptHigh 0008                   APP_KeyboardTasks@shd_send 00F2  
                              _RemoteWakeup 0022                                    i2_memset 131E  
                          __size_of_LED_Off 003E                          ?_SYS_InterruptHigh 002C  
                                  _e2Report 000510                     __end_of_USBStallHandler 2A60  
         __size_of_USBHIDCBSetReportHandler 001E                   ?_USBHIDCBSetReportHandler 002C  
                                 copy_data0 2864                 ??_USBCtrlEPAllowStatusStage 002C  
               __end_of_USBStdSetCfgHandler 20AC                         ??_SYS_InterruptHigh 004B  
                        __end_of_device_dsc 08EA                    ??_APP_LEDUpdateUSBStatus 002C  
                   ?_USBCtrlTrfSetupHandler 002C                                    _SendList 0078  
      __size_of_KeyboardProcessOutputReport 003E             ??i2_KeyboardProcessOutputReport 002F  
                   USBStdGetStatusHandler@p 002E                                    __Hrparam 0000  
                                 memcpy@tmp 0036                                    __Lrparam 0000  
                    USBTransferOnePacket@ep 00DD                          __CFG_BOREN$SBORDIS 000000  
                                  _SetupPkt 000430                       ?_USBConfigureEndpoint 002C  
                         ??_USBDeviceAttach 00D5                   __end_of_SYS_InterruptHigh 0072  
                    __size_of_AddToSendList 0026                                  _ANSELEbits 000F5F  
               ??_USBHIDCBSetReportComplete 002F                                  _EP2KeyList 0100  
                       ProcessKeyboard@line 00E5                     __size_of_USBDeviceTasks 0124  
                                  __ptext10 18FC                                    __ptext11 24C8  
                                  __ptext20 2CC2                                    __ptext12 2CEE  
                                  __ptext21 2A1E                                    __ptext13 2A60  
                                  __ptext30 131E                                    __ptext22 2D14  
                                  __ptext14 2A9E                                    __ptext31 223C  
                                  __ptext23 2432                                    __ptext15 2ADC  
                                  __ptext40 2D64                                    __ptext32 10B2  
                                  __ptext24 29DA                                    __ptext41 2788  
                                  __ptext33 0CAC                                    __ptext25 25F0  
                                  __ptext17 17D8                                    __ptext50 2D76  
                                  __ptext42 2704                                    __ptext34 239A  
                                  __ptext26 1EF8                                    __ptext18 16AC  
                                  __ptext51 2B1A                                    __ptext43 1C28  
                                  __ptext35 28FA                                    __ptext27 22FC  
                                  __ptext19 2C04                                    __ptext52 2B58  
                                  __ptext44 2BCC                                    __ptext36 2994  
                                  __ptext28 1E14                                    __ptext53 2B92  
                                  __ptext45 255C                                    __ptext37 2C94  
                                  __ptext29 1FD8                                    __ptext54 20AC  
                                  __ptext46 27F4                                    __ptext38 1A16  
                                  __ptext55 0000                                    __ptext47 1450  
                                  __ptext39 2D32                                    __ptext48 2178  
                                  __ptext49 1D2A                                 _OSCCON2bits 000FD2  
                                  _keyboard 00BA              __end_of_USBCtrlTrfSetupHandler 2680  
                             __size_of_main 0014                           ?_USBCtrlEPService 002C  
                        ??_USBCtrlEPService 0049                         _USBCtrlTrfInHandler 1D2A  
                               _inputReport 000500                                    _outPipes 00A0  
                     APP_KeyboardTasks@5640 00E9                       APP_KeyboardTasks@5642 00EC  
                     APP_KeyboardTasks@5644 00EF                        _USBCtrlTrfOutHandler 27F4  
                                  int$flags 0057                   _USBCtrlEPAllowStatusStage 2178  
                                _LED_Enable 294A                                ProcessLine@i 00E1  
                              ProcessLine@x 00E0                      ??_USBTransferOnePacket 00D9  
                 _USBDeferStatusStagePacket 001D                                  _INTCONbits 000FF2  
                      ?_USBCtrlTrfInHandler 002C                                    memcpy@d1 002C  
                                  memcpy@s1 002E               USBCtrlTrfTxService@byteToSend 002C  
              ??_USBHIDCBSetIdleRateHandler 002D                            ?_USBStallHandler 002C  
                  USBStdFeatureReqHandler@p 0045                        __size_of_ProcessLine 0094  
                                  intlevel2 0000                      __size_of_USBDeviceInit 012C  
                             _AddToSendList 2CEE     __end_of_USER_USB_CALLBACK_EVENT_HANDLER 2432  
  __size_of_USER_USB_CALLBACK_EVENT_HANDLER 0098           ??_USER_USB_CALLBACK_EVENT_HANDLER 003E  
          ?_USER_USB_CALLBACK_EVENT_HANDLER 0038             _USER_USB_CALLBACK_EVENT_HANDLER 239A  
              i2USBTransferOnePacket@handle 0035                       __size_of_SortSendList 011A  
                 _USBHIDCBSetReportComplete 2D76             __size_of_APP_LEDUpdateUSBStatus 006C  
                i2USBTransferOnePacket@data 002D                      ??_USBConfigureEndpoint 002D  
                     ?_USBCtrlTrfOutHandler 002C                      __size_of_BUTTON_Enable 002E  
                      __CFG_CPUDIV$NOCLKDIV 000000                         _USBCtrlTrfRxService 1450  
     __end_ofi2_KeyboardProcessOutputReport 2B58      __size_ofi2_KeyboardProcessOutputReport 003E  
             i2_KeyboardProcessOutputReport 2B1A                          _USBWakeFromSuspend 2C04  
                   _USBStdFeatureReqHandler 0CAC                         i2_SYSTEM_Initialize 28FA  
                       _USBCtrlTrfTxService 20AC                  __size_of_SYS_InterruptHigh 006A  
       __size_of_USBHIDCBSetIdleRateHandler 0012                         ?_USBWakeFromSuspend 002C  
                     ??_USBCtrlTrfInHandler 002F                       _USBAlternateInterface 0026  
                 i2USBTransferOnePacket@dir 002C                   i2USBTransferOnePacket@len 002F  
     USBHIDCBSetIdleRateHandler@newIdleRate 002C                                _SortSendList 18FC  
                       USBEnableEndpoint@ep 0037                             _endpoint_number 0020  
                      ?_USBCtrlTrfRxService 002C                          __CFG_FOSC$INTOSCIO 000000  
                            ?_AddToSendList 00D5                        ?i2_SYSTEM_Initialize 002C  
                  ?_USBCtrlEPAllowDataStage 002C                        ?_USBCtrlTrfTxService 002C  
                                _SOFCounter 000C                             _ProcessKeyboard 2680  
              _USBStatusStageTimeoutCounter 001E                        ??_USBWakeFromSuspend 0040  
                USBTransferOnePacket@handle 00DE  APP_KeyboardTasks@needToSendNewReportPacket 00F3  
                                _USB_CD_Ptr 0807                   __size_of_APP_KeyboardInit 0084  
